                                      1 ;--------------------------------------------------------
                                      2 ; File Created by SDCC : free open source ANSI-C Compiler
                                      3 ; Version 4.2.0 #13081 (MINGW64)
                                      4 ;--------------------------------------------------------
                                      5 	.module soccerlg
                                      6 	.optsdcc -mz80
                                      7 	
                                      8 ;--------------------------------------------------------
                                      9 ; Public variables in this module
                                     10 ;--------------------------------------------------------
                                     11 	.globl _Trampoline_U8_P1
                                     12 	.globl _Trampoline_VOID_P2
                                     13 	.globl _VGM_Decode
                                     14 	.globl _VGM_Pause
                                     15 	.globl _VGM_Resume
                                     16 	.globl _VGM_Play
                                     17 	.globl _PCM_Play_11K
                                     18 	.globl _PSG_Apply
                                     19 	.globl _TickGameFieldScrolling
                                     20 	.globl _MainSub
                                     21 	.globl _V9_SetPaletteEntry
                                     22 	.globl _V9_Poke16_CurrentAddr
                                     23 	.globl _V9_WriteVRAM_CurrentAddr
                                     24 	.globl _V9_FillVRAM16_CurrentAddr
                                     25 	.globl _V9_FillVRAM_CurrentAddr
                                     26 	.globl _V9_SetWriteAddress
                                     27 	.globl _V9_SetRegister
                                     28 	.globl _Print_SetTextFont
                                     29 	.globl _g_ShotCursorDir
                                     30 	.globl _g_ShotCursorX
                                     31 	.globl _g_SoundRequest
                                     32 	.globl _g_ponPonGirlsInitailized
                                     33 	.globl _g_peopleState
                                     34 	.globl _g_PonPonGrilsPoseCounter
                                     35 	.globl _g_ponPonPatternIndex
                                     36 	.globl _g_GoalScorerId
                                     37 	.globl _g_ThrowInPlayerId
                                     38 	.globl _g_GkAnimTimer
                                     39 	.globl _g_GoalKickSide
                                     40 	.globl _g_GkRecoilY
                                     41 	.globl _g_GkAnimPlayerId
                                     42 	.globl _g_GkIsGroundKick
                                     43 	.globl _g_GameWith2Players
                                     44 	.globl _g_ShootCooldown
                                     45 	.globl _g_ActionCooldown
                                     46 	.globl _g_CornerKickSide
                                     47 	.globl _g_CornerKickTargetId
                                     48 	.globl _g_PmcSoundPlaying
                                     49 	.globl _g_PcmStartPlaying
                                     50 	.globl _g_History2
                                     51 	.globl _g_History1
                                     52 	.globl _g_PonPonGirls
                                     53 	.globl _g_PassTargetPlayer
                                     54 	.globl _g_RestartKickTeamId
                                     55 	.globl _g_Team2Score
                                     56 	.globl _g_Team1Score
                                     57 	.globl _g_SecondsToEndOfMatch
                                     58 	.globl _g_Team2ActivePlayer
                                     59 	.globl _g_Team1ActivePlayer
                                     60 	.globl _g_ShowButtonsInfo
                                     61 	.globl _g_Team2PaletteId
                                     62 	.globl _g_Team1PaletteId
                                     63 	.globl _g_Players
                                     64 	.globl _g_Ball
                                     65 	.globl _g_MatchStatus
                                     66 	.globl _g_ActiveFieldZone
                                     67 	.globl _g_FieldScrollSpeed
                                     68 	.globl _g_FieldCurrentYPosition
                                     69 	.globl _g_FieldScrollingActionInProgress
                                     70 	.globl _g_Timer
                                     71 	.globl _g_FrameCounter
                                     72 	.globl _g_VSynch
                                     73 	.globl _g_SLTSL
                                     74 	.globl _g_GRPACY
                                     75 	.globl _g_GRPACX
                                     76 	.globl _g_LOGOPR
                                     77 	.globl _g_CMASK
                                     78 	.globl _g_CLOC
                                     79 	.globl _g_FNKSTR
                                     80 	.globl _g_ATRBYT
                                     81 	.globl _g_BDRCLR
                                     82 	.globl _g_BAKCLR
                                     83 	.globl _g_FORCLR
                                     84 	.globl _g_CSRX
                                     85 	.globl _g_CSRY
                                     86 	.globl _g_CLIKSW
                                     87 	.globl _g_MLTPAT
                                     88 	.globl _g_MLTATR
                                     89 	.globl _g_MLTCGP
                                     90 	.globl _g_MLTCOL
                                     91 	.globl _g_MLTNAM
                                     92 	.globl _g_GRPPAT
                                     93 	.globl _g_GRPATR
                                     94 	.globl _g_GRPCGP
                                     95 	.globl _g_GRPCOL
                                     96 	.globl _g_GRPNAM
                                     97 	.globl _g_T32PAT
                                     98 	.globl _g_T32ATR
                                     99 	.globl _g_T32CGP
                                    100 	.globl _g_T32COL
                                    101 	.globl _g_T32NAM
                                    102 	.globl _g_TXTPAT
                                    103 	.globl _g_TXTATR
                                    104 	.globl _g_TXTCGP
                                    105 	.globl _g_TXTCOL
                                    106 	.globl _g_TXTNAM
                                    107 	.globl _g_CLMLST
                                    108 	.globl _g_CRTCNT
                                    109 	.globl _g_LINLEN
                                    110 	.globl _g_LINL32
                                    111 	.globl _g_LINL40
                                    112 	.globl _g_MusicEntry
                                    113 	.globl _g_TeamStats
                                    114 	.globl _g_BDOS
                                    115 	.globl _g_MASTER
                                    116 	.globl _g_RAMAD3
                                    117 	.globl _g_RAMAD2
                                    118 	.globl _g_RAMAD1
                                    119 	.globl _g_RAMAD0
                                    120 	.globl _g_BREAKV
                                    121 	.globl _g_DISKVE
                                    122 	.globl _g_KANJTABLE
                                    123 	.globl _g_STRSRC
                                    124 	.globl _g_SUBRID
                                    125 	.globl _g_CHAR_16
                                    126 	.globl _g_MSXMID
                                    127 	.globl _g_MSXVER
                                    128 	.globl _g_ROMVersion
                                    129 	.globl _g_BASRVN
                                    130 	.globl _g_VDP_DW
                                    131 	.globl _g_VDP_DR
                                    132 	.globl _g_CGTABL
                                    133 	.globl _g_SVFFFD
                                    134 	.globl _g_RG27SAV
                                    135 	.globl _g_RG26SAV
                                    136 	.globl _g_RG25SAV
                                    137 	.globl _g_SVFFF8
                                    138 	.globl _g_MINROM
                                    139 	.globl _g_RG23SAV
                                    140 	.globl _g_RG22SAV
                                    141 	.globl _g_RG21SAV
                                    142 	.globl _g_RG20SAV
                                    143 	.globl _g_RG19SAV
                                    144 	.globl _g_RG18SAV
                                    145 	.globl _g_RG17SAV
                                    146 	.globl _g_RG16SAV
                                    147 	.globl _g_RG15SAV
                                    148 	.globl _g_RG14SAV
                                    149 	.globl _g_RG13SAV
                                    150 	.globl _g_RG12SAV
                                    151 	.globl _g_RG11SAV
                                    152 	.globl _g_RG10SAV
                                    153 	.globl _g_RG09SAV
                                    154 	.globl _g_RG08SAV
                                    155 	.globl _g_PROCNM
                                    156 	.globl _g_SLTWRK
                                    157 	.globl _g_SLTATR
                                    158 	.globl _g_SLTTBL
                                    159 	.globl _g_EXPTBL
                                    160 	.globl _g_MNROM
                                    161 	.globl _g_DRWANG
                                    162 	.globl _g_DRWSCL
                                    163 	.globl _g_DRWFLG
                                    164 	.globl _g_GYPOS
                                    165 	.globl _g_GXPOS
                                    166 	.globl _g_BRDATR
                                    167 	.globl _g_CASPRV
                                    168 	.globl _g_OLDSCR
                                    169 	.globl _g_SCRMOD
                                    170 	.globl _g_FLBMEM
                                    171 	.globl _g_KANAMD
                                    172 	.globl _g_KANAST
                                    173 	.globl _g_CAPST
                                    174 	.globl _g_CSTYLE
                                    175 	.globl _g_CSRSW
                                    176 	.globl _g_INSFLG
                                    177 	.globl _g_ESCCNT
                                    178 	.globl _g_GRPHED
                                    179 	.globl _g_WINWID
                                    180 	.globl _g_LOWLIM
                                    181 	.globl _g_INTCNT
                                    182 	.globl _g_INTVAL
                                    183 	.globl _g_JIFFY
                                    184 	.globl _g_PADX
                                    185 	.globl _g_PADY
                                    186 	.globl _g_INTFLG
                                    187 	.globl _g_RTYCNT
                                    188 	.globl _g_TRPTBL
                                    189 	.globl _g_HIMEM
                                    190 	.globl _g_BOTTOM
                                    191 	.globl _g_PATWRK
                                    192 	.globl _g_LINWRK
                                    193 	.globl _g_KEYBUF
                                    194 	.globl _g_NEWKEY
                                    195 	.globl _g_OLDKEY
                                    196 	.globl _g_CLIKFL
                                    197 	.globl _g_ONGSBF
                                    198 	.globl _g_FNKFLG
                                    199 	.globl _g_FNKSWI
                                    200 	.globl _g_CODSAV
                                    201 	.globl _g_FSTPOS
                                    202 	.globl _g_LINTTB
                                    203 	.globl _g_BASROM
                                    204 	.globl _g_ENSTOP
                                    205 	.globl _g_VCBC
                                    206 	.globl _g_VCBB
                                    207 	.globl _g_VCBA
                                    208 	.globl _g_PLYCNT
                                    209 	.globl _g_MUSICF
                                    210 	.globl _g_QUEUEN
                                    211 	.globl _g_MCLPTR
                                    212 	.globl _g_MCLLEN
                                    213 	.globl _g_SAVVOL
                                    214 	.globl _g_VOICEN
                                    215 	.globl _g_SAVSP
                                    216 	.globl _g_PRSCNT
                                    217 	.globl _g_LSTMOD
                                    218 	.globl _g_LSTCOM
                                    219 	.globl _g_COMMSK
                                    220 	.globl _g_ESTBLS
                                    221 	.globl _g_FLAGS
                                    222 	.globl _g_ERRORS
                                    223 	.globl _g_DATCNT
                                    224 	.globl _g_DEVNUM
                                    225 	.globl _g_OLDINT
                                    226 	.globl _g_OLDSTT
                                    227 	.globl _g_MEXBIh
                                    228 	.globl _g_RSIQLN
                                    229 	.globl _g_RSFCB
                                    230 	.globl _g_TOCNT
                                    231 	.globl _g_RSTMP
                                    232 	.globl _g_YSAVE
                                    233 	.globl _g_XSAVE
                                    234 	.globl _g_NORUSE
                                    235 	.globl _g_MODE
                                    236 	.globl _g_ROMA
                                    237 	.globl _g_CHRCNT
                                    238 	.globl _g_EXBRSA
                                    239 	.globl _g_AVCSAV
                                    240 	.globl _g_ACPAGE
                                    241 	.globl _g_DPPAGE
                                    242 	.globl _g_RS2IQ
                                    243 	.globl _g_VOICCQ
                                    244 	.globl _g_VOICBQ
                                    245 	.globl _g_VOICAQ
                                    246 	.globl _g_QUEBAK
                                    247 	.globl _g_QUETAB
                                    248 	.globl _g_ASPCT2
                                    249 	.globl _g_ASPCT1
                                    250 	.globl _g_HEADER
                                    251 	.globl _g_HIGH
                                    252 	.globl _g_LOW
                                    253 	.globl _g_CS240
                                    254 	.globl _g_CS120
                                    255 	.globl _g_GETPNT
                                    256 	.globl _g_PUTPNT
                                    257 	.globl _g_REPCNT
                                    258 	.globl _g_SCNCNT
                                    259 	.globl _g_FRCNEW
                                    260 	.globl _g_QUEUES
                                    261 	.globl _g_MINUPD
                                    262 	.globl _g_MAXUPD
                                    263 	.globl _g_TRGFLG
                                    264 	.globl _g_STATFL
                                    265 	.globl _g_RG7SAV
                                    266 	.globl _g_RG6SAV
                                    267 	.globl _g_RG5SAV
                                    268 	.globl _g_RG4SAV
                                    269 	.globl _g_RG3SAV
                                    270 	.globl _g_RG2SAV
                                    271 	.globl _g_RG1SAV
                                    272 	.globl _g_RG0SAV
                                    273 	.globl _g_CNSDFG
                                    274 	.globl _g_USRTAB
                                    275 	.globl _g_CLPRIM
                                    276 	.globl _g_WRPRIM
                                    277 	.globl _g_RDPRIM
                                    278 	.globl _Trampoline_VOID
                                    279 	.globl _Trampoline_VOID_P1
                                    280 	.globl _Trampoline_VOID_16_P2
                                    281 	.globl _Trampoline_U8
                                    282 	.globl _Trampoline_U8_P2
                                    283 	.globl _Trampoline_BOOL_P1
                                    284 	.globl _PlayPcm
                                    285 	.globl _PlayAyFx
                                    286 	.globl _PlayVGM
                                    287 	.globl _LoadMsxVdpFonts
                                    288 	.globl _V9990_LoadButtonsImageData
                                    289 	.globl _V9990_LoadP1LayerA
                                    290 	.globl _V9990_LoadP1LayerB
                                    291 	.globl _V9990_LoadImagePresentationData
                                    292 	.globl _V9990_LoadMenuTeamsData
                                    293 	.globl _V9990_LoadSprites
                                    294 	.globl _V9990_PrintLayerAStringAtPos
                                    295 	.globl _V9990_WaitSynch
                                    296 	.globl _V9990_ClearTextFromLayerA
                                    297 	.globl _V9_InterruptVBlank
                                    298 	.globl _InterruptHook
                                    299 	.globl _Math_Abs32
                                    300 	.globl _GetTeamStats
                                    301 	.globl _main
                                    302 ;--------------------------------------------------------
                                    303 ; special function registers
                                    304 ;--------------------------------------------------------
                         000000A8   305 _g_PortPrimarySlot	=	0x00a8
                         000000A9   306 _g_PortReadKeyboard	=	0x00a9
                         000000AA   307 _g_PortAccessKeyboard	=	0x00aa
                         000000AB   308 _g_PortControl	=	0x00ab
                         00000098   309 _g_VDP_DataPort	=	0x0098
                         00000099   310 _g_VDP_RegPort	=	0x0099
                         00000099   311 _g_VDP_AddrPort	=	0x0099
                         00000099   312 _g_VDP_StatPort	=	0x0099
                         000000A0   313 _g_PSG_RegPort	=	0x00a0
                         000000A1   314 _g_PSG_DataPort	=	0x00a1
                         000000A2   315 _g_PSG_StatPort	=	0x00a2
                         00000010   316 _g_PSG_Ext_RegPort	=	0x0010
                         00000011   317 _g_PSG_Ext_DataPort	=	0x0011
                         00000012   318 _g_PSG_Ext_StatPort	=	0x0012
                         0000007C   319 _g_MSXMusic_IndexPort	=	0x007c
                         0000007D   320 _g_MSXMusic_DataPort	=	0x007d
                         000000C0   321 _g_MSXAudio_IndexPort	=	0x00c0
                         000000C1   322 _g_MSXAudio_DataPort	=	0x00c1
                         000000C2   323 _g_MSXAudio_IndexPort2	=	0x00c2
                         000000C3   324 _g_MSXAudio_DataPort2	=	0x00c3
                         000000B4   325 _g_RTC_AddrPort	=	0x00b4
                         000000B5   326 _g_RTC_DataPort	=	0x00b5
                         00000060   327 _g_V9_VRAMPort	=	0x0060
                         00000061   328 _g_V9_PalettePort	=	0x0061
                         00000062   329 _g_V9_CmdDataPort	=	0x0062
                         00000063   330 _g_V9_RegDataPort	=	0x0063
                         00000064   331 _g_V9_RegSelectPort	=	0x0064
                         00000065   332 _g_V9_SatusPort	=	0x0065
                         00000066   333 _g_V9_IntFlagPort	=	0x0066
                         00000067   334 _g_V9_SysCtrlPort	=	0x0067
                         00000068   335 _g_V9_KanjiAddrLPort	=	0x0068
                         00000069   336 _g_V9_KanjiAddrHPort	=	0x0069
                         00000069   337 _g_V9_KanjiDataPort	=	0x0069
                         0000006A   338 _g_V9_Kanji2AddrLPort	=	0x006a
                         0000006B   339 _g_V9_Kanji2AddrHPort	=	0x006b
                         0000006B   340 _g_V9_Kanji2DataPort	=	0x006b
                         0000006F   341 _g_V9_OutputCtrPort	=	0x006f
                                    342 ;--------------------------------------------------------
                                    343 ; ram data
                                    344 ;--------------------------------------------------------
                                    345 	.area _DATA
                         0000F3AE   346 _g_LINL40	=	0xf3ae
                         0000F3AF   347 _g_LINL32	=	0xf3af
                         0000F3B0   348 _g_LINLEN	=	0xf3b0
                         0000F3B1   349 _g_CRTCNT	=	0xf3b1
                         0000F3B2   350 _g_CLMLST	=	0xf3b2
                         0000F3B3   351 _g_TXTNAM	=	0xf3b3
                         0000F3B5   352 _g_TXTCOL	=	0xf3b5
                         0000F3B7   353 _g_TXTCGP	=	0xf3b7
                         0000F3B9   354 _g_TXTATR	=	0xf3b9
                         0000F3BB   355 _g_TXTPAT	=	0xf3bb
                         0000F3BD   356 _g_T32NAM	=	0xf3bd
                         0000F3BF   357 _g_T32COL	=	0xf3bf
                         0000F3C1   358 _g_T32CGP	=	0xf3c1
                         0000F3C3   359 _g_T32ATR	=	0xf3c3
                         0000F3C5   360 _g_T32PAT	=	0xf3c5
                         0000F3C7   361 _g_GRPNAM	=	0xf3c7
                         0000F3C9   362 _g_GRPCOL	=	0xf3c9
                         0000F3CB   363 _g_GRPCGP	=	0xf3cb
                         0000F3CD   364 _g_GRPATR	=	0xf3cd
                         0000F3CF   365 _g_GRPPAT	=	0xf3cf
                         0000F3D1   366 _g_MLTNAM	=	0xf3d1
                         0000F3D3   367 _g_MLTCOL	=	0xf3d3
                         0000F3D5   368 _g_MLTCGP	=	0xf3d5
                         0000F3D7   369 _g_MLTATR	=	0xf3d7
                         0000F3D9   370 _g_MLTPAT	=	0xf3d9
                         0000F3DB   371 _g_CLIKSW	=	0xf3db
                         0000F3DC   372 _g_CSRY	=	0xf3dc
                         0000F3DD   373 _g_CSRX	=	0xf3dd
                         0000F3E9   374 _g_FORCLR	=	0xf3e9
                         0000F3EA   375 _g_BAKCLR	=	0xf3ea
                         0000F3EB   376 _g_BDRCLR	=	0xf3eb
                         0000F3F2   377 _g_ATRBYT	=	0xf3f2
                         0000F87F   378 _g_FNKSTR	=	0xf87f
                         0000F92A   379 _g_CLOC	=	0xf92a
                         0000F92C   380 _g_CMASK	=	0xf92c
                         0000FB02   381 _g_LOGOPR	=	0xfb02
                         0000FCB7   382 _g_GRPACX	=	0xfcb7
                         0000FCB9   383 _g_GRPACY	=	0xfcb9
                         0000FFFF   384 _g_SLTSL	=	0xffff
    00000000                        385 _g_VSynch::
    00000000                        386 	.ds 1
    00000001                        387 _g_FrameCounter::
    00000001                        388 	.ds 1
    00000002                        389 _g_Timer::
    00000002                        390 	.ds 1
    00000003                        391 _g_FieldScrollingActionInProgress::
    00000003                        392 	.ds 1
    00000004                        393 _g_FieldCurrentYPosition::
    00000004                        394 	.ds 2
    00000006                        395 _g_FieldScrollSpeed::
    00000006                        396 	.ds 1
    00000007                        397 _g_ActiveFieldZone::
    00000007                        398 	.ds 1
    00000008                        399 _g_MatchStatus::
    00000008                        400 	.ds 1
    00000009                        401 _g_Ball::
    00000009                        402 	.ds 30
    00000027                        403 _g_Players::
    00000027                        404 	.ds 315
    00000162                        405 _g_Team1PaletteId::
    00000162                        406 	.ds 1
    00000163                        407 _g_Team2PaletteId::
    00000163                        408 	.ds 1
    00000164                        409 _g_ShowButtonsInfo::
    00000164                        410 	.ds 1
    00000165                        411 _g_Team1ActivePlayer::
    00000165                        412 	.ds 1
    00000166                        413 _g_Team2ActivePlayer::
    00000166                        414 	.ds 1
    00000167                        415 _g_SecondsToEndOfMatch::
    00000167                        416 	.ds 1
    00000168                        417 _g_Team1Score::
    00000168                        418 	.ds 1
    00000169                        419 _g_Team2Score::
    00000169                        420 	.ds 1
    0000016A                        421 _g_RestartKickTeamId::
    0000016A                        422 	.ds 1
    0000016B                        423 _g_PassTargetPlayer::
    0000016B                        424 	.ds 1
    0000016C                        425 _g_PonPonGirls::
    0000016C                        426 	.ds 30
                                    427 ;--------------------------------------------------------
                                    428 ; ram data
                                    429 ;--------------------------------------------------------
                                    430 	.area _INITIALIZED
    00000000                        431 _g_History1::
    00000000                        432 	.ds 20
    00000014                        433 _g_History2::
    00000014                        434 	.ds 20
    00000028                        435 _g_PcmStartPlaying::
    00000028                        436 	.ds 1
    00000029                        437 _g_PmcSoundPlaying::
    00000029                        438 	.ds 1
    0000002A                        439 _g_CornerKickTargetId::
    0000002A                        440 	.ds 1
    0000002B                        441 _g_CornerKickSide::
    0000002B                        442 	.ds 1
    0000002C                        443 _g_ActionCooldown::
    0000002C                        444 	.ds 1
    0000002D                        445 _g_ShootCooldown::
    0000002D                        446 	.ds 1
    0000002E                        447 _g_GameWith2Players::
    0000002E                        448 	.ds 1
    0000002F                        449 _g_GkIsGroundKick::
    0000002F                        450 	.ds 1
    00000030                        451 _g_GkAnimPlayerId::
    00000030                        452 	.ds 1
    00000031                        453 _g_GkRecoilY::
    00000031                        454 	.ds 1
    00000032                        455 _g_GoalKickSide::
    00000032                        456 	.ds 1
    00000033                        457 _g_GkAnimTimer::
    00000033                        458 	.ds 1
    00000034                        459 _g_ThrowInPlayerId::
    00000034                        460 	.ds 1
    00000035                        461 _g_GoalScorerId::
    00000035                        462 	.ds 1
    00000036                        463 _g_ponPonPatternIndex::
    00000036                        464 	.ds 1
    00000037                        465 _g_PonPonGrilsPoseCounter::
    00000037                        466 	.ds 1
    00000038                        467 _g_peopleState::
    00000038                        468 	.ds 1
    00000039                        469 _g_ponPonGirlsInitailized::
    00000039                        470 	.ds 1
    0000003A                        471 _g_SoundRequest::
    0000003A                        472 	.ds 1
    0000003B                        473 _g_ShotCursorX::
    0000003B                        474 	.ds 2
    0000003D                        475 _g_ShotCursorDir::
    0000003D                        476 	.ds 1
                                    477 ;--------------------------------------------------------
                                    478 ; absolute external ram data
                                    479 ;--------------------------------------------------------
                                    480 	.area _DABS (ABS)
                                    481 ;--------------------------------------------------------
                                    482 ; global & static initialisations
                                    483 ;--------------------------------------------------------
                                    484 	.area _HOME
                                    485 	.area _GSINIT
                                    486 	.area _GSFINAL
                                    487 	.area _GSINIT
                                    488 ;--------------------------------------------------------
                                    489 ; Home
                                    490 ;--------------------------------------------------------
                                    491 	.area _HOME
                                    492 	.area _HOME
                                    493 ;--------------------------------------------------------
                                    494 ; code
                                    495 ;--------------------------------------------------------
                                    496 	.area _CODE
                                    497 ;./soccerlg.c:138: void Trampoline_VOID(u8 bank, void (*func)()) {
                                    498 ;	---------------------------------
                                    499 ; Function Trampoline_VOID
                                    500 ; ---------------------------------
    00000000                        501 _Trampoline_VOID::
    00000000 47               [ 4]  502 	ld	b, a
                                    503 ;./soccerlg.c:139: u8 _old = GET_BANK_SEGMENT(1);
                                    504 ;E:/Dropbox/FAUSTO/SVILUPPI/MSX/CODE/C/MSXgl/engine/src/rom_mapper.h:250: g_Bank0Segment[b] = s;
    00000001 21r01r00         [10]  505 	ld	hl,#(_g_Bank0Segment + 1)
    00000004 4E               [ 7]  506 	ld	c,(hl)
    00000005 70               [ 7]  507 	ld	(hl), b
                                    508 ;E:/Dropbox/FAUSTO/SVILUPPI/MSX/CODE/C/MSXgl/engine/src/system.h:101: inline void Poke(u16 addr, u8 val) { *(u8*)addr = val; }
    00000006 21 FF 77         [10]  509 	ld	hl, #0x77ff
    00000009 70               [ 7]  510 	ld	(hl), b
                                    511 ;./soccerlg.c:141: func();
    0000000A C5               [11]  512 	push	bc
    0000000B EB               [ 4]  513 	ex	de, hl
    0000000C CDr00r00         [17]  514 	call	___sdcc_call_hl
    0000000F C1               [10]  515 	pop	bc
                                    516 ;E:/Dropbox/FAUSTO/SVILUPPI/MSX/CODE/C/MSXgl/engine/src/rom_mapper.h:250: g_Bank0Segment[b] = s;
    00000010 21r01r00         [10]  517 	ld	hl, #(_g_Bank0Segment + 1)
    00000013 71               [ 7]  518 	ld	(hl), c
                                    519 ;E:/Dropbox/FAUSTO/SVILUPPI/MSX/CODE/C/MSXgl/engine/src/system.h:101: inline void Poke(u16 addr, u8 val) { *(u8*)addr = val; }
    00000014 21 FF 77         [10]  520 	ld	hl, #0x77ff
    00000017 71               [ 7]  521 	ld	(hl), c
                                    522 ;./soccerlg.c:142: SET_BANK_SEGMENT(1, _old);
                                    523 ;./soccerlg.c:143: }
    00000018 C9               [10]  524 	ret
                         0000F380   525 _g_RDPRIM	=	0xf380
                         0000F385   526 _g_WRPRIM	=	0xf385
                         0000F38C   527 _g_CLPRIM	=	0xf38c
                         0000F39A   528 _g_USRTAB	=	0xf39a
                         0000F3DE   529 _g_CNSDFG	=	0xf3de
                         0000F3DF   530 _g_RG0SAV	=	0xf3df
                         0000F3E0   531 _g_RG1SAV	=	0xf3e0
                         0000F3E1   532 _g_RG2SAV	=	0xf3e1
                         0000F3E2   533 _g_RG3SAV	=	0xf3e2
                         0000F3E3   534 _g_RG4SAV	=	0xf3e3
                         0000F3E4   535 _g_RG5SAV	=	0xf3e4
                         0000F3E5   536 _g_RG6SAV	=	0xf3e5
                         0000F3E6   537 _g_RG7SAV	=	0xf3e6
                         0000F3E7   538 _g_STATFL	=	0xf3e7
                         0000F3E8   539 _g_TRGFLG	=	0xf3e8
                         0000F3EC   540 _g_MAXUPD	=	0xf3ec
                         0000F3EF   541 _g_MINUPD	=	0xf3ef
                         0000F3F3   542 _g_QUEUES	=	0xf3f3
                         0000F3F5   543 _g_FRCNEW	=	0xf3f5
                         0000F3F6   544 _g_SCNCNT	=	0xf3f6
                         0000F3F7   545 _g_REPCNT	=	0xf3f7
                         0000F3F8   546 _g_PUTPNT	=	0xf3f8
                         0000F3FA   547 _g_GETPNT	=	0xf3fa
                         0000F3FC   548 _g_CS120	=	0xf3fc
                         0000F401   549 _g_CS240	=	0xf401
                         0000F406   550 _g_LOW	=	0xf406
                         0000F408   551 _g_HIGH	=	0xf408
                         0000F40A   552 _g_HEADER	=	0xf40a
                         0000F40B   553 _g_ASPCT1	=	0xf40b
                         0000F40D   554 _g_ASPCT2	=	0xf40d
                         0000F959   555 _g_QUETAB	=	0xf959
                         0000F971   556 _g_QUEBAK	=	0xf971
                         0000F975   557 _g_VOICAQ	=	0xf975
                         0000F9F5   558 _g_VOICBQ	=	0xf9f5
                         0000FA75   559 _g_VOICCQ	=	0xfa75
                         0000FAF5   560 _g_RS2IQ	=	0xfaf5
                         0000FAF5   561 _g_DPPAGE	=	0xfaf5
                         0000FAF6   562 _g_ACPAGE	=	0xfaf6
                         0000FAF7   563 _g_AVCSAV	=	0xfaf7
                         0000FAF8   564 _g_EXBRSA	=	0xfaf8
                         0000FAF9   565 _g_CHRCNT	=	0xfaf9
                         0000FAFA   566 _g_ROMA	=	0xfafa
                         0000FAFC   567 _g_MODE	=	0xfafc
                         0000FAFD   568 _g_NORUSE	=	0xfafd
                         0000FAFE   569 _g_XSAVE	=	0xfafe
                         0000FB00   570 _g_YSAVE	=	0xfb00
                         0000FB03   571 _g_RSTMP	=	0xfb03
                         0000FB03   572 _g_TOCNT	=	0xfb03
                         0000FB04   573 _g_RSFCB	=	0xfb04
                         0000FB06   574 _g_RSIQLN	=	0xfb06
                         0000FB07   575 _g_MEXBIh	=	0xfb07
                         0000FB0C   576 _g_OLDSTT	=	0xfb0c
                         0000FB0C   577 _g_OLDINT	=	0xfb0c
                         0000FB16   578 _g_DEVNUM	=	0xfb16
                         0000FB17   579 _g_DATCNT	=	0xfb17
                         0000FB1A   580 _g_ERRORS	=	0xfb1a
                         0000FB1B   581 _g_FLAGS	=	0xfb1b
                         0000FB1C   582 _g_ESTBLS	=	0xfb1c
                         0000FB1D   583 _g_COMMSK	=	0xfb1d
                         0000FB1E   584 _g_LSTCOM	=	0xfb1e
                         0000FB1F   585 _g_LSTMOD	=	0xfb1f
                         0000FB35   586 _g_PRSCNT	=	0xfb35
                         0000FB36   587 _g_SAVSP	=	0xfb36
                         0000FB38   588 _g_VOICEN	=	0xfb38
                         0000FB39   589 _g_SAVVOL	=	0xfb39
                         0000FB3B   590 _g_MCLLEN	=	0xfb3b
                         0000FB3C   591 _g_MCLPTR	=	0xfb3c
                         0000FB3E   592 _g_QUEUEN	=	0xfb3e
                         0000FB3F   593 _g_MUSICF	=	0xfb3f
                         0000FB40   594 _g_PLYCNT	=	0xfb40
                         0000FB41   595 _g_VCBA	=	0xfb41
                         0000FB66   596 _g_VCBB	=	0xfb66
                         0000FB8B   597 _g_VCBC	=	0xfb8b
                         0000FBB0   598 _g_ENSTOP	=	0xfbb0
                         0000FBB1   599 _g_BASROM	=	0xfbb1
                         0000FBB2   600 _g_LINTTB	=	0xfbb2
                         0000FBCA   601 _g_FSTPOS	=	0xfbca
                         0000FBCC   602 _g_CODSAV	=	0xfbcc
                         0000FBCD   603 _g_FNKSWI	=	0xfbcd
                         0000FBCE   604 _g_FNKFLG	=	0xfbce
                         0000FBD8   605 _g_ONGSBF	=	0xfbd8
                         0000FBD9   606 _g_CLIKFL	=	0xfbd9
                         0000FBDA   607 _g_OLDKEY	=	0xfbda
                         0000FBE5   608 _g_NEWKEY	=	0xfbe5
                         0000FBF0   609 _g_KEYBUF	=	0xfbf0
                         0000FC18   610 _g_LINWRK	=	0xfc18
                         0000FC40   611 _g_PATWRK	=	0xfc40
                         0000FC48   612 _g_BOTTOM	=	0xfc48
                         0000FC4A   613 _g_HIMEM	=	0xfc4a
                         0000FC4C   614 _g_TRPTBL	=	0xfc4c
                         0000FC9A   615 _g_RTYCNT	=	0xfc9a
                         0000FC9B   616 _g_INTFLG	=	0xfc9b
                         0000FC9C   617 _g_PADY	=	0xfc9c
                         0000FC9D   618 _g_PADX	=	0xfc9d
                         0000FC9E   619 _g_JIFFY	=	0xfc9e
                         0000FCA0   620 _g_INTVAL	=	0xfca0
                         0000FCA2   621 _g_INTCNT	=	0xfca2
                         0000FCA4   622 _g_LOWLIM	=	0xfca4
                         0000FCA5   623 _g_WINWID	=	0xfca5
                         0000FCA6   624 _g_GRPHED	=	0xfca6
                         0000FCA7   625 _g_ESCCNT	=	0xfca7
                         0000FCA8   626 _g_INSFLG	=	0xfca8
                         0000FCA9   627 _g_CSRSW	=	0xfca9
                         0000FCAA   628 _g_CSTYLE	=	0xfcaa
                         0000FCAB   629 _g_CAPST	=	0xfcab
                         0000FCAC   630 _g_KANAST	=	0xfcac
                         0000FCAD   631 _g_KANAMD	=	0xfcad
                         0000FCAE   632 _g_FLBMEM	=	0xfcae
                         0000FCAF   633 _g_SCRMOD	=	0xfcaf
                         0000FCB0   634 _g_OLDSCR	=	0xfcb0
                         0000FCB1   635 _g_CASPRV	=	0xfcb1
                         0000FCB2   636 _g_BRDATR	=	0xfcb2
                         0000FCB3   637 _g_GXPOS	=	0xfcb3
                         0000FCB5   638 _g_GYPOS	=	0xfcb5
                         0000FCBB   639 _g_DRWFLG	=	0xfcbb
                         0000FCBC   640 _g_DRWSCL	=	0xfcbc
                         0000FCBD   641 _g_DRWANG	=	0xfcbd
                         0000FCC1   642 _g_MNROM	=	0xfcc1
                         0000FCC1   643 _g_EXPTBL	=	0xfcc1
                         0000FCC5   644 _g_SLTTBL	=	0xfcc5
                         0000FCC9   645 _g_SLTATR	=	0xfcc9
                         0000FD09   646 _g_SLTWRK	=	0xfd09
                         0000FD89   647 _g_PROCNM	=	0xfd89
                         0000FFE7   648 _g_RG08SAV	=	0xffe7
                         0000FFE8   649 _g_RG09SAV	=	0xffe8
                         0000FFE9   650 _g_RG10SAV	=	0xffe9
                         0000FFEA   651 _g_RG11SAV	=	0xffea
                         0000FFEB   652 _g_RG12SAV	=	0xffeb
                         0000FFEC   653 _g_RG13SAV	=	0xffec
                         0000FFED   654 _g_RG14SAV	=	0xffed
                         0000FFEE   655 _g_RG15SAV	=	0xffee
                         0000FFEF   656 _g_RG16SAV	=	0xffef
                         0000FFF0   657 _g_RG17SAV	=	0xfff0
                         0000FFF1   658 _g_RG18SAV	=	0xfff1
                         0000FFF2   659 _g_RG19SAV	=	0xfff2
                         0000FFF3   660 _g_RG20SAV	=	0xfff3
                         0000FFF4   661 _g_RG21SAV	=	0xfff4
                         0000FFF5   662 _g_RG22SAV	=	0xfff5
                         0000FFF6   663 _g_RG23SAV	=	0xfff6
                         0000FFF7   664 _g_MINROM	=	0xfff7
                         0000FFF8   665 _g_SVFFF8	=	0xfff8
                         0000FFFA   666 _g_RG25SAV	=	0xfffa
                         0000FFFB   667 _g_RG26SAV	=	0xfffb
                         0000FFFC   668 _g_RG27SAV	=	0xfffc
                         0000FFFD   669 _g_SVFFFD	=	0xfffd
                         00000004   670 _g_CGTABL	=	0x0004
                         00000006   671 _g_VDP_DR	=	0x0006
                         00000007   672 _g_VDP_DW	=	0x0007
                         0000002B   673 _g_BASRVN	=	0x002b
                         0000002B   674 _g_ROMVersion	=	0x002b
                         0000002D   675 _g_MSXVER	=	0x002d
                         0000002E   676 _g_MSXMID	=	0x002e
                         00000034   677 _g_CHAR_16	=	0x0034
                         00000000   678 _g_SUBRID	=	0x0000
                         00000002   679 _g_STRSRC	=	0x0002
                         0000F30F   680 _g_KANJTABLE	=	0xf30f
                         0000F323   681 _g_DISKVE	=	0xf323
                         0000F325   682 _g_BREAKV	=	0xf325
                         0000F341   683 _g_RAMAD0	=	0xf341
                         0000F342   684 _g_RAMAD1	=	0xf342
                         0000F343   685 _g_RAMAD2	=	0xf343
                         0000F344   686 _g_RAMAD3	=	0xf344
                         0000F348   687 _g_MASTER	=	0xf348
                         0000F37D   688 _g_BDOS	=	0xf37d
    00000019                        689 _g_TeamStats:
    00000019 03                     690 	.db #0x03	; 3
    0000001A 0C                     691 	.db #0x0c	; 12
    0000001B 05                     692 	.db #0x05	; 5
    0000001C 05                     693 	.db #0x05	; 5
    0000001D 0E                     694 	.db #0x0e	; 14
    0000001E 05                     695 	.db #0x05	; 5
    0000001F 0F                     696 	.db #0x0f	; 15
    00000020 08                     697 	.db #0x08	; 8
    00000021 09                     698 	.db #0x09	; 9
    00000022 0E                     699 	.db #0x0e	; 14
    00000023 03                     700 	.db #0x03	; 3
    00000024 11                     701 	.db #0x11	; 17
    00000025 04                     702 	.db #0x04	; 4
    00000026 05                     703 	.db #0x05	; 5
    00000027 10                     704 	.db #0x10	; 16
    00000028 03                     705 	.db #0x03	; 3
    00000029 0C                     706 	.db #0x0c	; 12
    0000002A 06                     707 	.db #0x06	; 6
    0000002B 08                     708 	.db #0x08	; 8
    0000002C 0E                     709 	.db #0x0e	; 14
    0000002D 03                     710 	.db #0x03	; 3
    0000002E 0F                     711 	.db #0x0f	; 15
    0000002F 06                     712 	.db #0x06	; 6
    00000030 05                     713 	.db #0x05	; 5
    00000031 0E                     714 	.db #0x0e	; 14
    00000032 05                     715 	.db #0x05	; 5
    00000033 10                     716 	.db #0x10	; 16
    00000034 07                     717 	.db #0x07	; 7
    00000035 08                     718 	.db #0x08	; 8
    00000036 0F                     719 	.db #0x0f	; 15
    00000037                        720 _g_MusicEntry:
    00000037r41r00                  721 	.dw __str_0
    00000039 00 80                  722 	.dw #0x8000
    0000003B 3C                     723 	.db #0x3c	; 60
    0000003Cr46r00                  724 	.dw __str_1
    0000003E 00 80                  725 	.dw #0x8000
    00000040 3D                     726 	.db #0x3d	; 61
    00000041                        727 __str_0:
    00000041 4D 65 6E 75            728 	.ascii "Menu"
    00000045 00                     729 	.db 0x00
    00000046                        730 __str_1:
    00000046 4D 61 74 63 68         731 	.ascii "Match"
    0000004B 00                     732 	.db 0x00
                                    733 ;./soccerlg.c:145: void Trampoline_VOID_P1(u8 bank, void (*func)(u8), u8 p1) {
                                    734 ;	---------------------------------
                                    735 ; Function Trampoline_VOID_P1
                                    736 ; ---------------------------------
    0000004C                        737 _Trampoline_VOID_P1::
    0000004C DD E5            [15]  738 	push	ix
    0000004E DD 21 00 00      [14]  739 	ld	ix,#0
    00000052 DD 39            [15]  740 	add	ix,sp
    00000054 47               [ 4]  741 	ld	b, a
                                    742 ;./soccerlg.c:146: u8 _old = GET_BANK_SEGMENT(1);
                                    743 ;E:/Dropbox/FAUSTO/SVILUPPI/MSX/CODE/C/MSXgl/engine/src/rom_mapper.h:250: g_Bank0Segment[b] = s;
    00000055 21r01r00         [10]  744 	ld	hl,#(_g_Bank0Segment + 1)
    00000058 4E               [ 7]  745 	ld	c,(hl)
    00000059 70               [ 7]  746 	ld	(hl), b
                                    747 ;E:/Dropbox/FAUSTO/SVILUPPI/MSX/CODE/C/MSXgl/engine/src/system.h:101: inline void Poke(u16 addr, u8 val) { *(u8*)addr = val; }
    0000005A 21 FF 77         [10]  748 	ld	hl, #0x77ff
    0000005D 70               [ 7]  749 	ld	(hl), b
                                    750 ;./soccerlg.c:148: func(p1);
    0000005E C5               [11]  751 	push	bc
    0000005F DD 7E 04         [19]  752 	ld	a, 4 (ix)
    00000062 EB               [ 4]  753 	ex	de, hl
    00000063 CDr00r00         [17]  754 	call	___sdcc_call_hl
    00000066 C1               [10]  755 	pop	bc
                                    756 ;E:/Dropbox/FAUSTO/SVILUPPI/MSX/CODE/C/MSXgl/engine/src/rom_mapper.h:250: g_Bank0Segment[b] = s;
    00000067 21r01r00         [10]  757 	ld	hl, #(_g_Bank0Segment + 1)
    0000006A 71               [ 7]  758 	ld	(hl), c
                                    759 ;E:/Dropbox/FAUSTO/SVILUPPI/MSX/CODE/C/MSXgl/engine/src/system.h:101: inline void Poke(u16 addr, u8 val) { *(u8*)addr = val; }
    0000006B 21 FF 77         [10]  760 	ld	hl, #0x77ff
    0000006E 71               [ 7]  761 	ld	(hl), c
                                    762 ;./soccerlg.c:149: SET_BANK_SEGMENT(1, _old);
                                    763 ;./soccerlg.c:150: }
    0000006F DD E1            [14]  764 	pop	ix
    00000071 E1               [10]  765 	pop	hl
    00000072 33               [ 6]  766 	inc	sp
    00000073 E9               [ 4]  767 	jp	(hl)
                                    768 ;./soccerlg.c:152: void Trampoline_VOID_P2(u8 bank, void (*func)(u8, bool), u8 p1, bool p2) {
                                    769 ;	---------------------------------
                                    770 ; Function Trampoline_VOID_P2
                                    771 ; ---------------------------------
    00000074                        772 _Trampoline_VOID_P2::
    00000074 DD E5            [15]  773 	push	ix
    00000076 DD 21 00 00      [14]  774 	ld	ix,#0
    0000007A DD 39            [15]  775 	add	ix,sp
    0000007C 47               [ 4]  776 	ld	b, a
                                    777 ;./soccerlg.c:153: u8 _old = GET_BANK_SEGMENT(1);
                                    778 ;E:/Dropbox/FAUSTO/SVILUPPI/MSX/CODE/C/MSXgl/engine/src/rom_mapper.h:250: g_Bank0Segment[b] = s;
    0000007D 21r01r00         [10]  779 	ld	hl,#(_g_Bank0Segment + 1)
    00000080 4E               [ 7]  780 	ld	c,(hl)
    00000081 70               [ 7]  781 	ld	(hl), b
                                    782 ;E:/Dropbox/FAUSTO/SVILUPPI/MSX/CODE/C/MSXgl/engine/src/system.h:101: inline void Poke(u16 addr, u8 val) { *(u8*)addr = val; }
    00000082 21 FF 77         [10]  783 	ld	hl, #0x77ff
    00000085 70               [ 7]  784 	ld	(hl), b
                                    785 ;./soccerlg.c:155: func(p1,p2);
    00000086 C5               [11]  786 	push	bc
    00000087 DD 6E 05         [19]  787 	ld	l, 5 (ix)
                                    788 ;	spillPairReg hl
                                    789 ;	spillPairReg hl
    0000008A DD 7E 04         [19]  790 	ld	a, 4 (ix)
    0000008D D5               [11]  791 	push	de
    0000008E FD E1            [14]  792 	pop	iy
    00000090 CDr00r00         [17]  793 	call	___sdcc_call_iy
    00000093 C1               [10]  794 	pop	bc
                                    795 ;E:/Dropbox/FAUSTO/SVILUPPI/MSX/CODE/C/MSXgl/engine/src/rom_mapper.h:250: g_Bank0Segment[b] = s;
    00000094 21r01r00         [10]  796 	ld	hl, #(_g_Bank0Segment + 1)
    00000097 71               [ 7]  797 	ld	(hl), c
                                    798 ;E:/Dropbox/FAUSTO/SVILUPPI/MSX/CODE/C/MSXgl/engine/src/system.h:101: inline void Poke(u16 addr, u8 val) { *(u8*)addr = val; }
    00000098 21 FF 77         [10]  799 	ld	hl, #0x77ff
    0000009B 71               [ 7]  800 	ld	(hl), c
                                    801 ;./soccerlg.c:156: SET_BANK_SEGMENT(1, _old);
                                    802 ;./soccerlg.c:157: }
    0000009C DD E1            [14]  803 	pop	ix
    0000009E E1               [10]  804 	pop	hl
    0000009F F1               [10]  805 	pop	af
    000000A0 E9               [ 4]  806 	jp	(hl)
                                    807 ;./soccerlg.c:159: void Trampoline_VOID_16_P2(u8 bank, void (*func)(u16,u16), u16 p1, u16 p2) {
                                    808 ;	---------------------------------
                                    809 ; Function Trampoline_VOID_16_P2
                                    810 ; ---------------------------------
    000000A1                        811 _Trampoline_VOID_16_P2::
    000000A1 DD E5            [15]  812 	push	ix
    000000A3 DD 21 00 00      [14]  813 	ld	ix,#0
    000000A7 DD 39            [15]  814 	add	ix,sp
    000000A9 F5               [11]  815 	push	af
    000000AA DD 77 FF         [19]  816 	ld	-1 (ix), a
    000000AD 4B               [ 4]  817 	ld	c, e
    000000AE 42               [ 4]  818 	ld	b, d
                                    819 ;./soccerlg.c:160: u8 _old = GET_BANK_SEGMENT(1);
    000000AF 3Ar01r00         [13]  820 	ld	a, (#(_g_Bank0Segment + 1) + 0)
    000000B2 DD 77 FE         [19]  821 	ld	-2 (ix), a
                                    822 ;E:/Dropbox/FAUSTO/SVILUPPI/MSX/CODE/C/MSXgl/engine/src/rom_mapper.h:250: g_Bank0Segment[b] = s;
    000000B5 21r01r00         [10]  823 	ld	hl, #(_g_Bank0Segment + 1)
    000000B8 DD 7E FF         [19]  824 	ld	a, -1 (ix)
    000000BB 77               [ 7]  825 	ld	(hl), a
                                    826 ;E:/Dropbox/FAUSTO/SVILUPPI/MSX/CODE/C/MSXgl/engine/src/system.h:101: inline void Poke(u16 addr, u8 val) { *(u8*)addr = val; }
    000000BC 21 FF 77         [10]  827 	ld	hl, #0x77ff
    000000BF DD 7E FF         [19]  828 	ld	a, -1 (ix)
    000000C2 77               [ 7]  829 	ld	(hl), a
                                    830 ;./soccerlg.c:162: func(p1,p2);
    000000C3 DD 5E 06         [19]  831 	ld	e, 6 (ix)
    000000C6 DD 56 07         [19]  832 	ld	d, 7 (ix)
    000000C9 DD 6E 04         [19]  833 	ld	l, 4 (ix)
                                    834 ;	spillPairReg hl
                                    835 ;	spillPairReg hl
    000000CC DD 66 05         [19]  836 	ld	h, 5 (ix)
                                    837 ;	spillPairReg hl
                                    838 ;	spillPairReg hl
    000000CF C5               [11]  839 	push	bc
    000000D0 FD E1            [14]  840 	pop	iy
    000000D2 CDr00r00         [17]  841 	call	___sdcc_call_iy
                                    842 ;E:/Dropbox/FAUSTO/SVILUPPI/MSX/CODE/C/MSXgl/engine/src/rom_mapper.h:250: g_Bank0Segment[b] = s;
    000000D5 21r01r00         [10]  843 	ld	hl, #(_g_Bank0Segment + 1)
    000000D8 DD 7E FE         [19]  844 	ld	a, -2 (ix)
    000000DB 77               [ 7]  845 	ld	(hl), a
                                    846 ;E:/Dropbox/FAUSTO/SVILUPPI/MSX/CODE/C/MSXgl/engine/src/system.h:101: inline void Poke(u16 addr, u8 val) { *(u8*)addr = val; }
    000000DC 21 FF 77         [10]  847 	ld	hl, #0x77ff
    000000DF DD 7E FE         [19]  848 	ld	a, -2 (ix)
    000000E2 77               [ 7]  849 	ld	(hl), a
                                    850 ;./soccerlg.c:163: SET_BANK_SEGMENT(1, _old);
                                    851 ;./soccerlg.c:164: }
    000000E3 DD F9            [10]  852 	ld	sp, ix
    000000E5 DD E1            [14]  853 	pop	ix
    000000E7 E1               [10]  854 	pop	hl
    000000E8 F1               [10]  855 	pop	af
    000000E9 F1               [10]  856 	pop	af
    000000EA E9               [ 4]  857 	jp	(hl)
                                    858 ;./soccerlg.c:166: u8 Trampoline_U8(u8 bank, u8 (*func)()) {
                                    859 ;	---------------------------------
                                    860 ; Function Trampoline_U8
                                    861 ; ---------------------------------
    000000EB                        862 _Trampoline_U8::
    000000EB 47               [ 4]  863 	ld	b, a
                                    864 ;./soccerlg.c:168: u8 _old = GET_BANK_SEGMENT(1);
                                    865 ;E:/Dropbox/FAUSTO/SVILUPPI/MSX/CODE/C/MSXgl/engine/src/rom_mapper.h:250: g_Bank0Segment[b] = s;
    000000EC 21r01r00         [10]  866 	ld	hl,#(_g_Bank0Segment + 1)
    000000EF 4E               [ 7]  867 	ld	c,(hl)
    000000F0 70               [ 7]  868 	ld	(hl), b
                                    869 ;E:/Dropbox/FAUSTO/SVILUPPI/MSX/CODE/C/MSXgl/engine/src/system.h:101: inline void Poke(u16 addr, u8 val) { *(u8*)addr = val; }
    000000F1 21 FF 77         [10]  870 	ld	hl, #0x77ff
    000000F4 70               [ 7]  871 	ld	(hl), b
                                    872 ;./soccerlg.c:170: _res = func();
    000000F5 C5               [11]  873 	push	bc
    000000F6 EB               [ 4]  874 	ex	de, hl
    000000F7 CDr00r00         [17]  875 	call	___sdcc_call_hl
    000000FA C1               [10]  876 	pop	bc
                                    877 ;E:/Dropbox/FAUSTO/SVILUPPI/MSX/CODE/C/MSXgl/engine/src/rom_mapper.h:250: g_Bank0Segment[b] = s;
    000000FB 21r01r00         [10]  878 	ld	hl, #(_g_Bank0Segment + 1)
    000000FE 71               [ 7]  879 	ld	(hl), c
                                    880 ;E:/Dropbox/FAUSTO/SVILUPPI/MSX/CODE/C/MSXgl/engine/src/system.h:101: inline void Poke(u16 addr, u8 val) { *(u8*)addr = val; }
    000000FF 21 FF 77         [10]  881 	ld	hl, #0x77ff
    00000102 71               [ 7]  882 	ld	(hl), c
                                    883 ;./soccerlg.c:172: return _res;
                                    884 ;./soccerlg.c:173: }
    00000103 C9               [10]  885 	ret
                                    886 ;./soccerlg.c:175: u8 Trampoline_U8_P1(u8 bank, u8 (*func)(u8), u8 p1) {
                                    887 ;	---------------------------------
                                    888 ; Function Trampoline_U8_P1
                                    889 ; ---------------------------------
    00000104                        890 _Trampoline_U8_P1::
    00000104 DD E5            [15]  891 	push	ix
    00000106 DD 21 00 00      [14]  892 	ld	ix,#0
    0000010A DD 39            [15]  893 	add	ix,sp
    0000010C 47               [ 4]  894 	ld	b, a
                                    895 ;./soccerlg.c:177: u8 _old = GET_BANK_SEGMENT(1);
                                    896 ;E:/Dropbox/FAUSTO/SVILUPPI/MSX/CODE/C/MSXgl/engine/src/rom_mapper.h:250: g_Bank0Segment[b] = s;
    0000010D 21r01r00         [10]  897 	ld	hl,#(_g_Bank0Segment + 1)
    00000110 4E               [ 7]  898 	ld	c,(hl)
    00000111 70               [ 7]  899 	ld	(hl), b
                                    900 ;E:/Dropbox/FAUSTO/SVILUPPI/MSX/CODE/C/MSXgl/engine/src/system.h:101: inline void Poke(u16 addr, u8 val) { *(u8*)addr = val; }
    00000112 21 FF 77         [10]  901 	ld	hl, #0x77ff
    00000115 70               [ 7]  902 	ld	(hl), b
                                    903 ;./soccerlg.c:179: _res = func(p1);
    00000116 C5               [11]  904 	push	bc
    00000117 DD 7E 04         [19]  905 	ld	a, 4 (ix)
    0000011A EB               [ 4]  906 	ex	de, hl
    0000011B CDr00r00         [17]  907 	call	___sdcc_call_hl
    0000011E C1               [10]  908 	pop	bc
                                    909 ;E:/Dropbox/FAUSTO/SVILUPPI/MSX/CODE/C/MSXgl/engine/src/rom_mapper.h:250: g_Bank0Segment[b] = s;
    0000011F 21r01r00         [10]  910 	ld	hl, #(_g_Bank0Segment + 1)
    00000122 71               [ 7]  911 	ld	(hl), c
                                    912 ;E:/Dropbox/FAUSTO/SVILUPPI/MSX/CODE/C/MSXgl/engine/src/system.h:101: inline void Poke(u16 addr, u8 val) { *(u8*)addr = val; }
    00000123 21 FF 77         [10]  913 	ld	hl, #0x77ff
    00000126 71               [ 7]  914 	ld	(hl), c
                                    915 ;./soccerlg.c:181: return _res;
                                    916 ;./soccerlg.c:182: }
    00000127 DD E1            [14]  917 	pop	ix
    00000129 E1               [10]  918 	pop	hl
    0000012A 33               [ 6]  919 	inc	sp
    0000012B E9               [ 4]  920 	jp	(hl)
                                    921 ;./soccerlg.c:184: u8 Trampoline_U8_P2(u8 bank, u8 (*func)(u8, u8), u8 p1, u8 p2) {
                                    922 ;	---------------------------------
                                    923 ; Function Trampoline_U8_P2
                                    924 ; ---------------------------------
    0000012C                        925 _Trampoline_U8_P2::
    0000012C DD E5            [15]  926 	push	ix
    0000012E DD 21 00 00      [14]  927 	ld	ix,#0
    00000132 DD 39            [15]  928 	add	ix,sp
    00000134 47               [ 4]  929 	ld	b, a
                                    930 ;./soccerlg.c:186: u8 _old = GET_BANK_SEGMENT(1);
                                    931 ;E:/Dropbox/FAUSTO/SVILUPPI/MSX/CODE/C/MSXgl/engine/src/rom_mapper.h:250: g_Bank0Segment[b] = s;
    00000135 21r01r00         [10]  932 	ld	hl,#(_g_Bank0Segment + 1)
    00000138 4E               [ 7]  933 	ld	c,(hl)
    00000139 70               [ 7]  934 	ld	(hl), b
                                    935 ;E:/Dropbox/FAUSTO/SVILUPPI/MSX/CODE/C/MSXgl/engine/src/system.h:101: inline void Poke(u16 addr, u8 val) { *(u8*)addr = val; }
    0000013A 21 FF 77         [10]  936 	ld	hl, #0x77ff
    0000013D 70               [ 7]  937 	ld	(hl), b
                                    938 ;./soccerlg.c:188: _res = func(p1,p2);
    0000013E C5               [11]  939 	push	bc
    0000013F DD 6E 05         [19]  940 	ld	l, 5 (ix)
                                    941 ;	spillPairReg hl
                                    942 ;	spillPairReg hl
    00000142 DD 7E 04         [19]  943 	ld	a, 4 (ix)
    00000145 D5               [11]  944 	push	de
    00000146 FD E1            [14]  945 	pop	iy
    00000148 CDr00r00         [17]  946 	call	___sdcc_call_iy
    0000014B C1               [10]  947 	pop	bc
                                    948 ;E:/Dropbox/FAUSTO/SVILUPPI/MSX/CODE/C/MSXgl/engine/src/rom_mapper.h:250: g_Bank0Segment[b] = s;
    0000014C 21r01r00         [10]  949 	ld	hl, #(_g_Bank0Segment + 1)
    0000014F 71               [ 7]  950 	ld	(hl), c
                                    951 ;E:/Dropbox/FAUSTO/SVILUPPI/MSX/CODE/C/MSXgl/engine/src/system.h:101: inline void Poke(u16 addr, u8 val) { *(u8*)addr = val; }
    00000150 21 FF 77         [10]  952 	ld	hl, #0x77ff
    00000153 71               [ 7]  953 	ld	(hl), c
                                    954 ;./soccerlg.c:190: return _res;
                                    955 ;./soccerlg.c:191: }
    00000154 DD E1            [14]  956 	pop	ix
    00000156 E1               [10]  957 	pop	hl
    00000157 C1               [10]  958 	pop	bc
    00000158 E9               [ 4]  959 	jp	(hl)
                                    960 ;./soccerlg.c:193: bool Trampoline_BOOL_P1(u8 bank, u8 (*func)(u8), u8 p1) {
                                    961 ;	---------------------------------
                                    962 ; Function Trampoline_BOOL_P1
                                    963 ; ---------------------------------
    00000159                        964 _Trampoline_BOOL_P1::
    00000159 DD E5            [15]  965 	push	ix
    0000015B DD 21 00 00      [14]  966 	ld	ix,#0
    0000015F DD 39            [15]  967 	add	ix,sp
    00000161 47               [ 4]  968 	ld	b, a
                                    969 ;./soccerlg.c:195: u8 _old = GET_BANK_SEGMENT(1);
                                    970 ;E:/Dropbox/FAUSTO/SVILUPPI/MSX/CODE/C/MSXgl/engine/src/rom_mapper.h:250: g_Bank0Segment[b] = s;
    00000162 21r01r00         [10]  971 	ld	hl,#(_g_Bank0Segment + 1)
    00000165 4E               [ 7]  972 	ld	c,(hl)
    00000166 70               [ 7]  973 	ld	(hl), b
                                    974 ;E:/Dropbox/FAUSTO/SVILUPPI/MSX/CODE/C/MSXgl/engine/src/system.h:101: inline void Poke(u16 addr, u8 val) { *(u8*)addr = val; }
    00000167 21 FF 77         [10]  975 	ld	hl, #0x77ff
    0000016A 70               [ 7]  976 	ld	(hl), b
                                    977 ;./soccerlg.c:197: _res = func(p1);
    0000016B C5               [11]  978 	push	bc
    0000016C DD 7E 04         [19]  979 	ld	a, 4 (ix)
    0000016F EB               [ 4]  980 	ex	de, hl
    00000170 CDr00r00         [17]  981 	call	___sdcc_call_hl
    00000173 C1               [10]  982 	pop	bc
                                    983 ;E:/Dropbox/FAUSTO/SVILUPPI/MSX/CODE/C/MSXgl/engine/src/rom_mapper.h:250: g_Bank0Segment[b] = s;
    00000174 21r01r00         [10]  984 	ld	hl, #(_g_Bank0Segment + 1)
    00000177 71               [ 7]  985 	ld	(hl), c
                                    986 ;E:/Dropbox/FAUSTO/SVILUPPI/MSX/CODE/C/MSXgl/engine/src/system.h:101: inline void Poke(u16 addr, u8 val) { *(u8*)addr = val; }
    00000178 21 FF 77         [10]  987 	ld	hl, #0x77ff
    0000017B 71               [ 7]  988 	ld	(hl), c
                                    989 ;./soccerlg.c:199: return _res;
                                    990 ;./soccerlg.c:200: }
    0000017C DD E1            [14]  991 	pop	ix
    0000017E E1               [10]  992 	pop	hl
    0000017F 33               [ 6]  993 	inc	sp
    00000180 E9               [ 4]  994 	jp	(hl)
                                    995 ;./soccerlg.c:205: void PlayPcm(u8 id){
                                    996 ;	---------------------------------
                                    997 ; Function PlayPcm
                                    998 ; ---------------------------------
    00000181                        999 _PlayPcm::
    00000181 DD E5            [15] 1000 	push	ix
    00000183 DD 21 00 00      [14] 1001 	ld	ix,#0
    00000187 DD 39            [15] 1002 	add	ix,sp
    00000189 3B               [ 6] 1003 	dec	sp
    0000018A 4F               [ 4] 1004 	ld	c, a
                                   1005 ;./soccerlg.c:206: u8 currentSegment = GET_BANK_SEGMENT(1);
    0000018B 3Ar01r00         [13] 1006 	ld	a, (#(_g_Bank0Segment + 1) + 0)
    0000018E DD 77 FF         [19] 1007 	ld	-1 (ix), a
                                   1008 ;./soccerlg.c:207: switch(id){
    00000191 3E 05            [ 7] 1009 	ld	a, #0x05
    00000193 91               [ 4] 1010 	sub	a, c
    00000194 DAr65r02         [10] 1011 	jp	C, 00107$
    00000197 06 00            [ 7] 1012 	ld	b, #0x00
    00000199 21rA0r01         [10] 1013 	ld	hl, #00206$
    0000019C 09               [11] 1014 	add	hl, bc
    0000019D 09               [11] 1015 	add	hl, bc
    0000019E 09               [11] 1016 	add	hl, bc
    0000019F E9               [ 4] 1017 	jp	(hl)
    000001A0                       1018 00206$:
    000001A0 C3rB2r01         [10] 1019 	jp	00101$
    000001A3 C3rCBr01         [10] 1020 	jp	00102$
    000001A6 C3rE3r01         [10] 1021 	jp	00103$
    000001A9 C3r22r02         [10] 1022 	jp	00104$
    000001AC C3r36r02         [10] 1023 	jp	00105$
    000001AF C3r4Fr02         [10] 1024 	jp	00106$
                                   1025 ;./soccerlg.c:208: case PCM_CORNERKICK:
    000001B2                       1026 00101$:
                                   1027 ;./soccerlg.c:209: VGM_Pause();
    000001B2 CDr00r00         [17] 1028 	call	_VGM_Pause
                                   1029 ;E:/Dropbox/FAUSTO/SVILUPPI/MSX/CODE/C/MSXgl/engine/src/rom_mapper.h:250: g_Bank0Segment[b] = s;
    000001B5 21r01r00         [10] 1030 	ld	hl, #(_g_Bank0Segment + 1)
    000001B8 36 2C            [10] 1031 	ld	(hl), #0x2c
                                   1032 ;E:/Dropbox/FAUSTO/SVILUPPI/MSX/CODE/C/MSXgl/engine/src/system.h:101: inline void Poke(u16 addr, u8 val) { *(u8*)addr = val; }
    000001BA 21 FF 77         [10] 1033 	ld	hl, #0x77ff
    000001BD 36 2C            [10] 1034 	ld	(hl), #0x2c
                                   1035 ;./soccerlg.c:211: PCM_Play_11K((u16)g_Data_PCM_CornerKick);
    000001BF 21r00r00         [10] 1036 	ld	hl, #_g_Data_PCM_CornerKick
    000001C2 CDr00r00         [17] 1037 	call	_PCM_Play_11K
                                   1038 ;./soccerlg.c:212: VGM_Resume();
    000001C5 CDr00r00         [17] 1039 	call	_VGM_Resume
                                   1040 ;./soccerlg.c:213: break;
    000001C8 C3r65r02         [10] 1041 	jp	00107$
                                   1042 ;./soccerlg.c:214: case PCM_KICKOFF:
    000001CB                       1043 00102$:
                                   1044 ;E:/Dropbox/FAUSTO/SVILUPPI/MSX/CODE/C/MSXgl/engine/src/rom_mapper.h:250: g_Bank0Segment[b] = s;
    000001CB 21r01r00         [10] 1045 	ld	hl, #(_g_Bank0Segment + 1)
    000001CE 36 2D            [10] 1046 	ld	(hl), #0x2d
                                   1047 ;E:/Dropbox/FAUSTO/SVILUPPI/MSX/CODE/C/MSXgl/engine/src/system.h:101: inline void Poke(u16 addr, u8 val) { *(u8*)addr = val; }
    000001D0 21 FF 77         [10] 1048 	ld	hl, #0x77ff
    000001D3 36 2D            [10] 1049 	ld	(hl), #0x2d
                                   1050 ;./soccerlg.c:216: PCM_Play_11K((u16)g_Data_PCM_KickOff);
    000001D5 21r00r00         [10] 1051 	ld	hl, #_g_Data_PCM_KickOff
    000001D8 CDr00r00         [17] 1052 	call	_PCM_Play_11K
                                   1053 ;./soccerlg.c:217: PlayVGM(VGM_MATCH);
    000001DB 3E 01            [ 7] 1054 	ld	a, #0x01
    000001DD CDr78r02         [17] 1055 	call	_PlayVGM
                                   1056 ;./soccerlg.c:218: break;
    000001E0 C3r65r02         [10] 1057 	jp	00107$
                                   1058 ;./soccerlg.c:219: case PCM_INGOAL:
    000001E3                       1059 00103$:
                                   1060 ;./soccerlg.c:220: VGM_Pause();
    000001E3 CDr00r00         [17] 1061 	call	_VGM_Pause
                                   1062 ;E:/Dropbox/FAUSTO/SVILUPPI/MSX/CODE/C/MSXgl/engine/src/rom_mapper.h:250: g_Bank0Segment[b] = s;
    000001E6 21r01r00         [10] 1063 	ld	hl, #(_g_Bank0Segment + 1)
    000001E9 36 2E            [10] 1064 	ld	(hl), #0x2e
                                   1065 ;E:/Dropbox/FAUSTO/SVILUPPI/MSX/CODE/C/MSXgl/engine/src/system.h:101: inline void Poke(u16 addr, u8 val) { *(u8*)addr = val; }
    000001EB 21 FF 77         [10] 1066 	ld	hl, #0x77ff
    000001EE 36 2E            [10] 1067 	ld	(hl), #0x2e
                                   1068 ;./soccerlg.c:222: PCM_Play_11K((u16)g_Data_PCM_InGoal_1);
    000001F0 21r00r00         [10] 1069 	ld	hl, #_g_Data_PCM_InGoal_1
    000001F3 CDr00r00         [17] 1070 	call	_PCM_Play_11K
                                   1071 ;E:/Dropbox/FAUSTO/SVILUPPI/MSX/CODE/C/MSXgl/engine/src/rom_mapper.h:250: g_Bank0Segment[b] = s;
    000001F6 21r01r00         [10] 1072 	ld	hl, #(_g_Bank0Segment + 1)
    000001F9 36 2F            [10] 1073 	ld	(hl), #0x2f
                                   1074 ;E:/Dropbox/FAUSTO/SVILUPPI/MSX/CODE/C/MSXgl/engine/src/system.h:101: inline void Poke(u16 addr, u8 val) { *(u8*)addr = val; }
    000001FB 21 FF 77         [10] 1075 	ld	hl, #0x77ff
    000001FE 36 2F            [10] 1076 	ld	(hl), #0x2f
                                   1077 ;./soccerlg.c:224: PCM_Play_11K((u16)g_Data_PCM_InGoal_2);
    00000200 21r00r00         [10] 1078 	ld	hl, #_g_Data_PCM_InGoal_2
    00000203 CDr00r00         [17] 1079 	call	_PCM_Play_11K
                                   1080 ;E:/Dropbox/FAUSTO/SVILUPPI/MSX/CODE/C/MSXgl/engine/src/rom_mapper.h:250: g_Bank0Segment[b] = s;
    00000206 21r01r00         [10] 1081 	ld	hl, #(_g_Bank0Segment + 1)
    00000209 36 30            [10] 1082 	ld	(hl), #0x30
                                   1083 ;E:/Dropbox/FAUSTO/SVILUPPI/MSX/CODE/C/MSXgl/engine/src/system.h:101: inline void Poke(u16 addr, u8 val) { *(u8*)addr = val; }
    0000020B 21 FF 77         [10] 1084 	ld	hl, #0x77ff
    0000020E 36 30            [10] 1085 	ld	(hl), #0x30
                                   1086 ;./soccerlg.c:226: PCM_Play_11K((u16)g_Data_PCM_InGoal_3);
    00000210 21r00r00         [10] 1087 	ld	hl, #_g_Data_PCM_InGoal_3
    00000213 CDr00r00         [17] 1088 	call	_PCM_Play_11K
                                   1089 ;./soccerlg.c:227: PCM_Play_11K((u16)g_Data_PCM_InGoal_3);
    00000216 21r00r00         [10] 1090 	ld	hl, #_g_Data_PCM_InGoal_3
    00000219 CDr00r00         [17] 1091 	call	_PCM_Play_11K
                                   1092 ;./soccerlg.c:228: VGM_Resume();
    0000021C CDr00r00         [17] 1093 	call	_VGM_Resume
                                   1094 ;./soccerlg.c:229: break;
    0000021F C3r65r02         [10] 1095 	jp	00107$
                                   1096 ;./soccerlg.c:230: case PCM_THROWIN:
    00000222                       1097 00104$:
                                   1098 ;./soccerlg.c:231: VGM_Pause();
    00000222 CDr00r00         [17] 1099 	call	_VGM_Pause
                                   1100 ;E:/Dropbox/FAUSTO/SVILUPPI/MSX/CODE/C/MSXgl/engine/src/rom_mapper.h:250: g_Bank0Segment[b] = s;
    00000225 21r02r00         [10] 1101 	ld	hl, #(_g_Bank0Segment + 2)
    00000228 36 31            [10] 1102 	ld	(hl), #0x31
                                   1103 ;./soccerlg.c:233: PCM_Play_11K((u16)g_Data_PCM_ThrowIn);
    0000022A 21r00r00         [10] 1104 	ld	hl, #_g_Data_PCM_ThrowIn
    0000022D CDr00r00         [17] 1105 	call	_PCM_Play_11K
                                   1106 ;./soccerlg.c:234: VGM_Resume();
    00000230 CDr00r00         [17] 1107 	call	_VGM_Resume
                                   1108 ;./soccerlg.c:235: break;
    00000233 C3r65r02         [10] 1109 	jp	00107$
                                   1110 ;./soccerlg.c:236: case PCM_GOALKICK:
    00000236                       1111 00105$:
                                   1112 ;./soccerlg.c:237: VGM_Pause();
    00000236 CDr00r00         [17] 1113 	call	_VGM_Pause
                                   1114 ;E:/Dropbox/FAUSTO/SVILUPPI/MSX/CODE/C/MSXgl/engine/src/rom_mapper.h:250: g_Bank0Segment[b] = s;
    00000239 21r01r00         [10] 1115 	ld	hl, #(_g_Bank0Segment + 1)
    0000023C 36 32            [10] 1116 	ld	(hl), #0x32
                                   1117 ;E:/Dropbox/FAUSTO/SVILUPPI/MSX/CODE/C/MSXgl/engine/src/system.h:101: inline void Poke(u16 addr, u8 val) { *(u8*)addr = val; }
    0000023E 21 FF 77         [10] 1118 	ld	hl, #0x77ff
    00000241 36 32            [10] 1119 	ld	(hl), #0x32
                                   1120 ;./soccerlg.c:239: PCM_Play_11K((u16)g_Data_PCM_GoalKick);
    00000243 21r00r00         [10] 1121 	ld	hl, #_g_Data_PCM_GoalKick
    00000246 CDr00r00         [17] 1122 	call	_PCM_Play_11K
                                   1123 ;./soccerlg.c:240: VGM_Resume();
    00000249 CDr00r00         [17] 1124 	call	_VGM_Resume
                                   1125 ;./soccerlg.c:241: break;
    0000024C C3r65r02         [10] 1126 	jp	00107$
                                   1127 ;./soccerlg.c:242: case PCM_TEAM_SELECTION:
    0000024F                       1128 00106$:
                                   1129 ;./soccerlg.c:243: VGM_Pause();
    0000024F CDr00r00         [17] 1130 	call	_VGM_Pause
                                   1131 ;E:/Dropbox/FAUSTO/SVILUPPI/MSX/CODE/C/MSXgl/engine/src/rom_mapper.h:250: g_Bank0Segment[b] = s;
    00000252 21r01r00         [10] 1132 	ld	hl, #(_g_Bank0Segment + 1)
    00000255 36 33            [10] 1133 	ld	(hl), #0x33
                                   1134 ;E:/Dropbox/FAUSTO/SVILUPPI/MSX/CODE/C/MSXgl/engine/src/system.h:101: inline void Poke(u16 addr, u8 val) { *(u8*)addr = val; }
    00000257 21 FF 77         [10] 1135 	ld	hl, #0x77ff
    0000025A 36 33            [10] 1136 	ld	(hl), #0x33
                                   1137 ;./soccerlg.c:245: PCM_Play_11K((u16)g_Data_PCM_TeamSelection);
    0000025C 21r00r00         [10] 1138 	ld	hl, #_g_Data_PCM_TeamSelection
    0000025F CDr00r00         [17] 1139 	call	_PCM_Play_11K
                                   1140 ;./soccerlg.c:246: VGM_Resume();
    00000262 CDr00r00         [17] 1141 	call	_VGM_Resume
                                   1142 ;./soccerlg.c:248: }
    00000265                       1143 00107$:
                                   1144 ;E:/Dropbox/FAUSTO/SVILUPPI/MSX/CODE/C/MSXgl/engine/src/rom_mapper.h:250: g_Bank0Segment[b] = s;
    00000265 21r01r00         [10] 1145 	ld	hl, #(_g_Bank0Segment + 1)
    00000268 DD 7E FF         [19] 1146 	ld	a, -1 (ix)
    0000026B 77               [ 7] 1147 	ld	(hl), a
                                   1148 ;E:/Dropbox/FAUSTO/SVILUPPI/MSX/CODE/C/MSXgl/engine/src/system.h:101: inline void Poke(u16 addr, u8 val) { *(u8*)addr = val; }
    0000026C 21 FF 77         [10] 1149 	ld	hl, #0x77ff
    0000026F DD 7E FF         [19] 1150 	ld	a, -1 (ix)
    00000272 77               [ 7] 1151 	ld	(hl), a
                                   1152 ;./soccerlg.c:249: SET_BANK_SEGMENT(1, currentSegment);
                                   1153 ;./soccerlg.c:251: }
    00000273 33               [ 6] 1154 	inc	sp
    00000274 DD E1            [14] 1155 	pop	ix
    00000276 C9               [10] 1156 	ret
                                   1157 ;./soccerlg.c:256: void PlayAyFx(u8 id){
                                   1158 ;	---------------------------------
                                   1159 ; Function PlayAyFx
                                   1160 ; ---------------------------------
    00000277                       1161 _PlayAyFx::
                                   1162 ;./soccerlg.c:258: }
    00000277 C9               [10] 1163 	ret
                                   1164 ;./soccerlg.c:265: void PlayVGM(u8 vgmId){
                                   1165 ;	---------------------------------
                                   1166 ; Function PlayVGM
                                   1167 ; ---------------------------------
    00000278                       1168 _PlayVGM::
    00000278 5F               [ 4] 1169 	ld	e, a
                                   1170 ;./soccerlg.c:266: u8 currentSegment = GET_BANK_SEGMENT(1);
    00000279 21r01r00         [10] 1171 	ld	hl, #(_g_Bank0Segment + 1)
    0000027C 4E               [ 7] 1172 	ld	c, (hl)
                                   1173 ;./soccerlg.c:267: SET_BANK_SEGMENT(1, g_MusicEntry[vgmId].Segment);
    0000027D 16 00            [ 7] 1174 	ld	d, #0x00
    0000027F 6B               [ 4] 1175 	ld	l, e
    00000280 62               [ 4] 1176 	ld	h, d
    00000281 29               [11] 1177 	add	hl, hl
    00000282 29               [11] 1178 	add	hl, hl
    00000283 19               [11] 1179 	add	hl, de
    00000284 EB               [ 4] 1180 	ex	de, hl
    00000285 21r37r00         [10] 1181 	ld	hl, #_g_MusicEntry
    00000288 19               [11] 1182 	add	hl, de
    00000289 EB               [ 4] 1183 	ex	de, hl
    0000028A D5               [11] 1184 	push	de
    0000028B FD E1            [14] 1185 	pop	iy
    0000028D FD 7E 04         [19] 1186 	ld	a, 4 (iy)
                                   1187 ;E:/Dropbox/FAUSTO/SVILUPPI/MSX/CODE/C/MSXgl/engine/src/rom_mapper.h:250: g_Bank0Segment[b] = s;
    00000290 32r01r00         [13] 1188 	ld	(#(_g_Bank0Segment + 1)),a
                                   1189 ;E:/Dropbox/FAUSTO/SVILUPPI/MSX/CODE/C/MSXgl/engine/src/system.h:101: inline void Poke(u16 addr, u8 val) { *(u8*)addr = val; }
    00000293 21 FF 77         [10] 1190 	ld	hl, #0x77ff
    00000296 77               [ 7] 1191 	ld	(hl), a
                                   1192 ;./soccerlg.c:268: VGM_Play((void*)g_MusicEntry[vgmId].Data,TRUE);
    00000297 EB               [ 4] 1193 	ex	de, hl
    00000298 23               [ 6] 1194 	inc	hl
    00000299 23               [ 6] 1195 	inc	hl
    0000029A 5E               [ 7] 1196 	ld	e, (hl)
    0000029B 23               [ 6] 1197 	inc	hl
    0000029C 56               [ 7] 1198 	ld	d, (hl)
    0000029D C5               [11] 1199 	push	bc
    0000029E 3E 01            [ 7] 1200 	ld	a, #0x01
    000002A0 F5               [11] 1201 	push	af
    000002A1 33               [ 6] 1202 	inc	sp
    000002A2 EB               [ 4] 1203 	ex	de, hl
    000002A3 CDr00r00         [17] 1204 	call	_VGM_Play
    000002A6 C1               [10] 1205 	pop	bc
                                   1206 ;E:/Dropbox/FAUSTO/SVILUPPI/MSX/CODE/C/MSXgl/engine/src/rom_mapper.h:250: g_Bank0Segment[b] = s;
    000002A7 21r01r00         [10] 1207 	ld	hl, #(_g_Bank0Segment + 1)
    000002AA 71               [ 7] 1208 	ld	(hl), c
                                   1209 ;E:/Dropbox/FAUSTO/SVILUPPI/MSX/CODE/C/MSXgl/engine/src/system.h:101: inline void Poke(u16 addr, u8 val) { *(u8*)addr = val; }
    000002AB 21 FF 77         [10] 1210 	ld	hl, #0x77ff
    000002AE 71               [ 7] 1211 	ld	(hl), c
                                   1212 ;./soccerlg.c:269: SET_BANK_SEGMENT(1, currentSegment);
                                   1213 ;./soccerlg.c:270: }
    000002AF C9               [10] 1214 	ret
                                   1215 ;./soccerlg.c:276: void LoadMsxVdpFonts() {
                                   1216 ;	---------------------------------
                                   1217 ; Function LoadMsxVdpFonts
                                   1218 ; ---------------------------------
    000002B0                       1219 _LoadMsxVdpFonts::
                                   1220 ;./soccerlg.c:277: u8 currentSegment = GET_BANK_SEGMENT(1);
    000002B0 01r01r00         [10] 1221 	ld	bc, #_g_Bank0Segment+1
    000002B3 0A               [ 7] 1222 	ld	a, (bc)
    000002B4 5F               [ 4] 1223 	ld	e, a
                                   1224 ;E:/Dropbox/FAUSTO/SVILUPPI/MSX/CODE/C/MSXgl/engine/src/rom_mapper.h:250: g_Bank0Segment[b] = s;
    000002B5 3E 1E            [ 7] 1225 	ld	a, #0x1e
    000002B7 02               [ 7] 1226 	ld	(bc), a
                                   1227 ;E:/Dropbox/FAUSTO/SVILUPPI/MSX/CODE/C/MSXgl/engine/src/system.h:101: inline void Poke(u16 addr, u8 val) { *(u8*)addr = val; }
    000002B8 21 FF 77         [10] 1228 	ld	hl, #0x77ff
    000002BB 36 1E            [10] 1229 	ld	(hl), #0x1e
                                   1230 ;./soccerlg.c:279: Print_SetTextFont((const void*)g_Data_Fonts, 1);
    000002BD C5               [11] 1231 	push	bc
    000002BE D5               [11] 1232 	push	de
    000002BF 3E 01            [ 7] 1233 	ld	a, #0x01
    000002C1 F5               [11] 1234 	push	af
    000002C2 33               [ 6] 1235 	inc	sp
    000002C3 21r00r00         [10] 1236 	ld	hl, #_g_Data_Fonts
    000002C6 CDr00r00         [17] 1237 	call	_Print_SetTextFont
    000002C9 D1               [10] 1238 	pop	de
    000002CA C1               [10] 1239 	pop	bc
                                   1240 ;E:/Dropbox/FAUSTO/SVILUPPI/MSX/CODE/C/MSXgl/engine/src/rom_mapper.h:250: g_Bank0Segment[b] = s;
    000002CB 7B               [ 4] 1241 	ld	a, e
    000002CC 02               [ 7] 1242 	ld	(bc), a
                                   1243 ;E:/Dropbox/FAUSTO/SVILUPPI/MSX/CODE/C/MSXgl/engine/src/system.h:101: inline void Poke(u16 addr, u8 val) { *(u8*)addr = val; }
    000002CD 21 FF 77         [10] 1244 	ld	hl, #0x77ff
    000002D0 73               [ 7] 1245 	ld	(hl), e
                                   1246 ;./soccerlg.c:280: SET_BANK_SEGMENT(1, currentSegment);
                                   1247 ;./soccerlg.c:281: }
    000002D1 C9               [10] 1248 	ret
                                   1249 ;./soccerlg.c:287: void V9990_LoadButtonsImageData(){
                                   1250 ;	---------------------------------
                                   1251 ; Function V9990_LoadButtonsImageData
                                   1252 ; ---------------------------------
    000002D2                       1253 _V9990_LoadButtonsImageData::
    000002D2 DD E5            [15] 1254 	push	ix
    000002D4 DD 21 00 00      [14] 1255 	ld	ix,#0
    000002D8 DD 39            [15] 1256 	add	ix,sp
    000002DA F5               [11] 1257 	push	af
                                   1258 ;./soccerlg.c:288: u8 currentSegment = GET_BANK_SEGMENT(1);
    000002DB 3Ar01r00         [13] 1259 	ld	a, (#(_g_Bank0Segment + 1) + 0)
    000002DE DD 77 FE         [19] 1260 	ld	-2 (ix), a
                                   1261 ;E:/Dropbox/FAUSTO/SVILUPPI/MSX/CODE/C/MSXgl/engine/src/rom_mapper.h:250: g_Bank0Segment[b] = s;
    000002E1 21r01r00         [10] 1262 	ld	hl, #(_g_Bank0Segment + 1)
    000002E4 36 2A            [10] 1263 	ld	(hl), #0x2a
                                   1264 ;E:/Dropbox/FAUSTO/SVILUPPI/MSX/CODE/C/MSXgl/engine/src/system.h:101: inline void Poke(u16 addr, u8 val) { *(u8*)addr = val; }
    000002E6 21 FF 77         [10] 1265 	ld	hl, #0x77ff
    000002E9 36 2A            [10] 1266 	ld	(hl), #0x2a
                                   1267 ;./soccerlg.c:290: V9_WriteVRAM(V9_P1_PGT_A, g_Data_Img_Buttons_Presentation_Part1, sizeof(g_Data_Img_Buttons_Presentation_Part1)); // Load tiles (part 1)
                                   1268 ;E:/Dropbox/FAUSTO/SVILUPPI/MSX/CODE/C/MSXgl/engine/src/v9990.h:371: inline void V9_WriteVRAM(u32 addr, const u8* src, u16 count) { V9_SetWriteAddress(addr); V9_WriteVRAM_CurrentAddr(src, count); }
    000002EB 11 00 00         [10] 1269 	ld	de, #0x0000
    000002EE 21 00 00         [10] 1270 	ld	hl, #0x0000
    000002F1 CDr00r00         [17] 1271 	call	_V9_SetWriteAddress
    000002F4 11 00 40         [10] 1272 	ld	de, #0x4000
    000002F7 21r00r00         [10] 1273 	ld	hl, #_g_Data_Img_Buttons_Presentation_Part1
    000002FA CDr00r00         [17] 1274 	call	_V9_WriteVRAM_CurrentAddr
                                   1275 ;E:/Dropbox/FAUSTO/SVILUPPI/MSX/CODE/C/MSXgl/engine/src/rom_mapper.h:250: g_Bank0Segment[b] = s;
    000002FD 21r01r00         [10] 1276 	ld	hl, #(_g_Bank0Segment + 1)
    00000300 36 2B            [10] 1277 	ld	(hl), #0x2b
                                   1278 ;E:/Dropbox/FAUSTO/SVILUPPI/MSX/CODE/C/MSXgl/engine/src/system.h:101: inline void Poke(u16 addr, u8 val) { *(u8*)addr = val; }
    00000302 21 FF 77         [10] 1279 	ld	hl, #0x77ff
    00000305 36 2B            [10] 1280 	ld	(hl), #0x2b
                                   1281 ;./soccerlg.c:292: V9_WriteVRAM(V9_P1_PGT_A + 16384, g_Data_Img_Buttons_Presentation_Part2, sizeof(g_Data_Img_Buttons_Presentation_Part2)); // Load tiles (part 2)	
                                   1282 ;E:/Dropbox/FAUSTO/SVILUPPI/MSX/CODE/C/MSXgl/engine/src/v9990.h:371: inline void V9_WriteVRAM(u32 addr, const u8* src, u16 count) { V9_SetWriteAddress(addr); V9_WriteVRAM_CurrentAddr(src, count); }
    00000307 11 00 40         [10] 1283 	ld	de, #0x4000
    0000030A 21 00 00         [10] 1284 	ld	hl, #0x0000
    0000030D CDr00r00         [17] 1285 	call	_V9_SetWriteAddress
    00000310 11 00 40         [10] 1286 	ld	de, #0x4000
    00000313 21r00r00         [10] 1287 	ld	hl, #_g_Data_Img_Buttons_Presentation_Part2
    00000316 CDr00r00         [17] 1288 	call	_V9_WriteVRAM_CurrentAddr
                                   1289 ;E:/Dropbox/FAUSTO/SVILUPPI/MSX/CODE/C/MSXgl/engine/src/rom_mapper.h:250: g_Bank0Segment[b] = s;
    00000319 21r01r00         [10] 1290 	ld	hl, #(_g_Bank0Segment + 1)
    0000031C 36 27            [10] 1291 	ld	(hl), #0x27
                                   1292 ;E:/Dropbox/FAUSTO/SVILUPPI/MSX/CODE/C/MSXgl/engine/src/system.h:101: inline void Poke(u16 addr, u8 val) { *(u8*)addr = val; }
    0000031E 21 FF 77         [10] 1293 	ld	hl, #0x77ff
    00000321 36 27            [10] 1294 	ld	(hl), #0x27
                                   1295 ;./soccerlg.c:294: V9_SetPalette(0, 16, g_Data_Palette_Buttons); 
    00000323 01r00r00         [10] 1296 	ld	bc, #_g_Data_Palette_Buttons+0
                                   1297 ;./soccerlg.c:1028: ERROR: no line number 1028 in file ./soccerlg.c
                                   1298 ;	spillPairReg hl
                                   1299 ;	spillPairReg hl
    00000326 21 00 00         [10] 1300 	ld	hl, #0x0
                                   1301 ;	spillPairReg hl
                                   1302 ;	spillPairReg hl
    00000329                       1303 00139$:
    00000329 7C               [ 4] 1304 	ld	a, h
    0000032A D6 10            [ 7] 1305 	sub	a, #0x10
    0000032C 30 17            [12] 1306 	jr	NC, 00129$
    0000032E DD 75 FF         [19] 1307 	ld	-1 (ix), l
    00000331 2C               [ 4] 1308 	inc	l
    00000332 E5               [11] 1309 	push	hl
    00000333 C5               [11] 1310 	push	bc
    00000334 59               [ 4] 1311 	ld	e, c
    00000335 50               [ 4] 1312 	ld	d, b
    00000336 DD 7E FF         [19] 1313 	ld	a, -1 (ix)
    00000339 CDr00r00         [17] 1314 	call	_V9_SetPaletteEntry
    0000033C C1               [10] 1315 	pop	bc
    0000033D E1               [10] 1316 	pop	hl
    0000033E 03               [ 6] 1317 	inc	bc
    0000033F 03               [ 6] 1318 	inc	bc
    00000340 03               [ 6] 1319 	inc	bc
    00000341 24               [ 4] 1320 	inc	h
    00000342 C3r29r03         [10] 1321 	jp	00139$
                                   1322 ;./soccerlg.c:294: ERROR: no line number 294 in file ./soccerlg.c
    00000345                       1323 00129$:
                                   1324 ;E:/Dropbox/FAUSTO/SVILUPPI/MSX/CODE/C/MSXgl/engine/src/rom_mapper.h:250: ERROR: no line number 250 in file E:/Dropbox/FAUSTO/SVILUPPI/MSX/CODE/C/MSXgl/engine/src/rom_mapper.h
    00000345 21r01r00         [10] 1325 	ld	hl, #(_g_Bank0Segment + 1)
    00000348 DD 7E FE         [19] 1326 	ld	a, -2 (ix)
    0000034B 77               [ 7] 1327 	ld	(hl), a
                                   1328 ;E:/Dropbox/FAUSTO/SVILUPPI/MSX/CODE/C/MSXgl/engine/src/system.h:101: ERROR: no line number 101 in file E:/Dropbox/FAUSTO/SVILUPPI/MSX/CODE/C/MSXgl/engine/src/system.h
    0000034C 21 FF 77         [10] 1329 	ld	hl, #0x77ff
    0000034F DD 7E FE         [19] 1330 	ld	a, -2 (ix)
    00000352 77               [ 7] 1331 	ld	(hl), a
                                   1332 ;./soccerlg.c:295: ERROR: no line number 295 in file ./soccerlg.c
                                   1333 ;./soccerlg.c:296: ERROR: no line number 296 in file ./soccerlg.c
    00000353 DD F9            [10] 1334 	ld	sp, ix
    00000355 DD E1            [14] 1335 	pop	ix
    00000357 C9               [10] 1336 	ret
                                   1337 ;./soccerlg.c:298: ERROR: no line number 298 in file ./soccerlg.c
                                   1338 ;	---------------------------------
                                   1339 ; Function V9990_LoadP1LayerA
                                   1340 ; ---------------------------------
    00000358                       1341 _V9990_LoadP1LayerA::
    00000358 DD E5            [15] 1342 	push	ix
    0000035A DD 21 00 00      [14] 1343 	ld	ix,#0
    0000035E DD 39            [15] 1344 	add	ix,sp
    00000360 3B               [ 6] 1345 	dec	sp
                                   1346 ;./soccerlg.c:299: ERROR: no line number 299 in file ./soccerlg.c
    00000361 3Ar01r00         [13] 1347 	ld	a, (#(_g_Bank0Segment + 1) + 0)
    00000364 DD 77 FF         [19] 1348 	ld	-1 (ix), a
                                   1349 ;E:/Dropbox/FAUSTO/SVILUPPI/MSX/CODE/C/MSXgl/engine/src/v9990.h:353: ERROR: no line number 353 in file E:/Dropbox/FAUSTO/SVILUPPI/MSX/CODE/C/MSXgl/engine/src/v9990.h
    00000367 11 00 00         [10] 1350 	ld	de, #0x0000
    0000036A 21 00 00         [10] 1351 	ld	hl, #0x0000
    0000036D CDr00r00         [17] 1352 	call	_V9_SetWriteAddress
    00000370 11 00 6A         [10] 1353 	ld	de, #0x6a00
    00000373 AF               [ 4] 1354 	xor	a, a
    00000374 CDr00r00         [17] 1355 	call	_V9_FillVRAM_CurrentAddr
                                   1356 ;E:/Dropbox/FAUSTO/SVILUPPI/MSX/CODE/C/MSXgl/engine/src/rom_mapper.h:250: ERROR: no line number 250 in file E:/Dropbox/FAUSTO/SVILUPPI/MSX/CODE/C/MSXgl/engine/src/rom_mapper.h
    00000377 21r01r00         [10] 1357 	ld	hl, #(_g_Bank0Segment + 1)
    0000037A 36 23            [10] 1358 	ld	(hl), #0x23
                                   1359 ;E:/Dropbox/FAUSTO/SVILUPPI/MSX/CODE/C/MSXgl/engine/src/system.h:101: ERROR: no line number 101 in file E:/Dropbox/FAUSTO/SVILUPPI/MSX/CODE/C/MSXgl/engine/src/system.h
    0000037C 21 FF 77         [10] 1360 	ld	hl, #0x77ff
    0000037F 36 23            [10] 1361 	ld	(hl), #0x23
                                   1362 ;./soccerlg.c:302: ERROR: no line number 302 in file ./soccerlg.c
                                   1363 ;E:/Dropbox/FAUSTO/SVILUPPI/MSX/CODE/C/MSXgl/engine/src/v9990.h:371: ERROR: no line number 371 in file E:/Dropbox/FAUSTO/SVILUPPI/MSX/CODE/C/MSXgl/engine/src/v9990.h
    00000381 11 00 00         [10] 1364 	ld	de, #0x0000
    00000384 21 00 00         [10] 1365 	ld	hl, #0x0000
    00000387 CDr00r00         [17] 1366 	call	_V9_SetWriteAddress
    0000038A 11 00 40         [10] 1367 	ld	de, #0x4000
    0000038D 21r00r00         [10] 1368 	ld	hl, #_g_Data_P1_LayerA_Std
    00000390 CDr00r00         [17] 1369 	call	_V9_WriteVRAM_CurrentAddr
                                   1370 ;E:/Dropbox/FAUSTO/SVILUPPI/MSX/CODE/C/MSXgl/engine/src/rom_mapper.h:250: ERROR: no line number 250 in file E:/Dropbox/FAUSTO/SVILUPPI/MSX/CODE/C/MSXgl/engine/src/rom_mapper.h
    00000393 21r01r00         [10] 1371 	ld	hl, #(_g_Bank0Segment + 1)
    00000396 36 24            [10] 1372 	ld	(hl), #0x24
                                   1373 ;E:/Dropbox/FAUSTO/SVILUPPI/MSX/CODE/C/MSXgl/engine/src/system.h:101: ERROR: no line number 101 in file E:/Dropbox/FAUSTO/SVILUPPI/MSX/CODE/C/MSXgl/engine/src/system.h
    00000398 21 FF 77         [10] 1374 	ld	hl, #0x77ff
    0000039B 36 24            [10] 1375 	ld	(hl), #0x24
                                   1376 ;./soccerlg.c:304: ERROR: no line number 304 in file ./soccerlg.c
                                   1377 ;E:/Dropbox/FAUSTO/SVILUPPI/MSX/CODE/C/MSXgl/engine/src/v9990.h:371: ERROR: no line number 371 in file E:/Dropbox/FAUSTO/SVILUPPI/MSX/CODE/C/MSXgl/engine/src/v9990.h
    0000039D 11 00 20         [10] 1378 	ld	de, #0x2000
    000003A0 21 00 00         [10] 1379 	ld	hl, #0x0000
    000003A3 CDr00r00         [17] 1380 	call	_V9_SetWriteAddress
    000003A6 11 00 40         [10] 1381 	ld	de, #0x4000
    000003A9 21r00r00         [10] 1382 	ld	hl, #_g_Data_LayerA_Menu_Teams_Part1
    000003AC CDr00r00         [17] 1383 	call	_V9_WriteVRAM_CurrentAddr
                                   1384 ;E:/Dropbox/FAUSTO/SVILUPPI/MSX/CODE/C/MSXgl/engine/src/rom_mapper.h:250: ERROR: no line number 250 in file E:/Dropbox/FAUSTO/SVILUPPI/MSX/CODE/C/MSXgl/engine/src/rom_mapper.h
    000003AF 21r01r00         [10] 1385 	ld	hl, #(_g_Bank0Segment + 1)
    000003B2 36 25            [10] 1386 	ld	(hl), #0x25
                                   1387 ;E:/Dropbox/FAUSTO/SVILUPPI/MSX/CODE/C/MSXgl/engine/src/system.h:101: ERROR: no line number 101 in file E:/Dropbox/FAUSTO/SVILUPPI/MSX/CODE/C/MSXgl/engine/src/system.h
    000003B4 21 FF 77         [10] 1388 	ld	hl, #0x77ff
    000003B7 36 25            [10] 1389 	ld	(hl), #0x25
                                   1390 ;./soccerlg.c:306: ERROR: no line number 306 in file ./soccerlg.c
                                   1391 ;E:/Dropbox/FAUSTO/SVILUPPI/MSX/CODE/C/MSXgl/engine/src/v9990.h:371: ERROR: no line number 371 in file E:/Dropbox/FAUSTO/SVILUPPI/MSX/CODE/C/MSXgl/engine/src/v9990.h
    000003B9 11 00 60         [10] 1392 	ld	de, #0x6000
    000003BC 21 00 00         [10] 1393 	ld	hl, #0x0000
    000003BF CDr00r00         [17] 1394 	call	_V9_SetWriteAddress
    000003C2 11 00 10         [10] 1395 	ld	de, #0x1000
    000003C5 21r00r00         [10] 1396 	ld	hl, #_g_Data_LayerA_Menu_Teams_Part2
    000003C8 CDr00r00         [17] 1397 	call	_V9_WriteVRAM_CurrentAddr
                                   1398 ;E:/Dropbox/FAUSTO/SVILUPPI/MSX/CODE/C/MSXgl/engine/src/v9990.h:362: ERROR: no line number 362 in file E:/Dropbox/FAUSTO/SVILUPPI/MSX/CODE/C/MSXgl/engine/src/v9990.h
    000003CB 11 00 C0         [10] 1399 	ld	de, #0xc000
    000003CE 21 07 00         [10] 1400 	ld	hl, #0x0007
    000003D1 CDr00r00         [17] 1401 	call	_V9_SetWriteAddress
    000003D4 11 00 10         [10] 1402 	ld	de, #0x1000
    000003D7 21 00 00         [10] 1403 	ld	hl, #0x0000
    000003DA CDr00r00         [17] 1404 	call	_V9_FillVRAM16_CurrentAddr
                                   1405 ;E:/Dropbox/FAUSTO/SVILUPPI/MSX/CODE/C/MSXgl/engine/src/rom_mapper.h:250: ERROR: no line number 250 in file E:/Dropbox/FAUSTO/SVILUPPI/MSX/CODE/C/MSXgl/engine/src/rom_mapper.h
    000003DD 21r01r00         [10] 1406 	ld	hl, #(_g_Bank0Segment + 1)
    000003E0 DD 7E FF         [19] 1407 	ld	a, -1 (ix)
    000003E3 77               [ 7] 1408 	ld	(hl), a
                                   1409 ;E:/Dropbox/FAUSTO/SVILUPPI/MSX/CODE/C/MSXgl/engine/src/system.h:101: ERROR: no line number 101 in file E:/Dropbox/FAUSTO/SVILUPPI/MSX/CODE/C/MSXgl/engine/src/system.h
    000003E4 21 FF 77         [10] 1410 	ld	hl, #0x77ff
    000003E7 DD 7E FF         [19] 1411 	ld	a, -1 (ix)
    000003EA 77               [ 7] 1412 	ld	(hl), a
                                   1413 ;./soccerlg.c:308: ERROR: no line number 308 in file ./soccerlg.c
                                   1414 ;./soccerlg.c:309: ERROR: no line number 309 in file ./soccerlg.c
    000003EB 33               [ 6] 1415 	inc	sp
    000003EC DD E1            [14] 1416 	pop	ix
    000003EE C9               [10] 1417 	ret
                                   1418 ;./soccerlg.c:310: ERROR: no line number 310 in file ./soccerlg.c
                                   1419 ;	---------------------------------
                                   1420 ; Function V9990_LoadP1LayerB
                                   1421 ; ---------------------------------
    000003EF                       1422 _V9990_LoadP1LayerB::
    000003EF DD E5            [15] 1423 	push	ix
    000003F1 DD 21 00 00      [14] 1424 	ld	ix,#0
    000003F5 DD 39            [15] 1425 	add	ix,sp
    000003F7 3B               [ 6] 1426 	dec	sp
                                   1427 ;./soccerlg.c:311: ERROR: no line number 311 in file ./soccerlg.c
    000003F8 3Ar01r00         [13] 1428 	ld	a, (#(_g_Bank0Segment + 1) + 0)
    000003FB DD 77 FF         [19] 1429 	ld	-1 (ix), a
                                   1430 ;E:/Dropbox/FAUSTO/SVILUPPI/MSX/CODE/C/MSXgl/engine/src/v9990.h:353: ERROR: no line number 353 in file E:/Dropbox/FAUSTO/SVILUPPI/MSX/CODE/C/MSXgl/engine/src/v9990.h
    000003FE 11 00 00         [10] 1431 	ld	de, #0x0000
    00000401 21 04 00         [10] 1432 	ld	hl, #0x0004
    00000404 CDr00r00         [17] 1433 	call	_V9_SetWriteAddress
    00000407 11 00 6A         [10] 1434 	ld	de, #0x6a00
    0000040A AF               [ 4] 1435 	xor	a, a
    0000040B CDr00r00         [17] 1436 	call	_V9_FillVRAM_CurrentAddr
                                   1437 ;E:/Dropbox/FAUSTO/SVILUPPI/MSX/CODE/C/MSXgl/engine/src/rom_mapper.h:250: ERROR: no line number 250 in file E:/Dropbox/FAUSTO/SVILUPPI/MSX/CODE/C/MSXgl/engine/src/rom_mapper.h
    0000040E 21r01r00         [10] 1438 	ld	hl, #(_g_Bank0Segment + 1)
    00000411 36 34            [10] 1439 	ld	(hl), #0x34
                                   1440 ;E:/Dropbox/FAUSTO/SVILUPPI/MSX/CODE/C/MSXgl/engine/src/system.h:101: ERROR: no line number 101 in file E:/Dropbox/FAUSTO/SVILUPPI/MSX/CODE/C/MSXgl/engine/src/system.h
    00000413 21 FF 77         [10] 1441 	ld	hl, #0x77ff
    00000416 36 34            [10] 1442 	ld	(hl), #0x34
                                   1443 ;./soccerlg.c:314: ERROR: no line number 314 in file ./soccerlg.c
                                   1444 ;E:/Dropbox/FAUSTO/SVILUPPI/MSX/CODE/C/MSXgl/engine/src/v9990.h:371: ERROR: no line number 371 in file E:/Dropbox/FAUSTO/SVILUPPI/MSX/CODE/C/MSXgl/engine/src/v9990.h
    00000418 11 00 00         [10] 1445 	ld	de, #0x0000
    0000041B 21 04 00         [10] 1446 	ld	hl, #0x0004
    0000041E CDr00r00         [17] 1447 	call	_V9_SetWriteAddress
    00000421 11 00 40         [10] 1448 	ld	de, #0x4000
    00000424 21r00r00         [10] 1449 	ld	hl, #_g_Data_Field_LayerB_Part1
    00000427 CDr00r00         [17] 1450 	call	_V9_WriteVRAM_CurrentAddr
                                   1451 ;E:/Dropbox/FAUSTO/SVILUPPI/MSX/CODE/C/MSXgl/engine/src/rom_mapper.h:250: ERROR: no line number 250 in file E:/Dropbox/FAUSTO/SVILUPPI/MSX/CODE/C/MSXgl/engine/src/rom_mapper.h
    0000042A 21r01r00         [10] 1452 	ld	hl, #(_g_Bank0Segment + 1)
    0000042D 36 35            [10] 1453 	ld	(hl), #0x35
                                   1454 ;E:/Dropbox/FAUSTO/SVILUPPI/MSX/CODE/C/MSXgl/engine/src/system.h:101: ERROR: no line number 101 in file E:/Dropbox/FAUSTO/SVILUPPI/MSX/CODE/C/MSXgl/engine/src/system.h
    0000042F 21 FF 77         [10] 1455 	ld	hl, #0x77ff
    00000432 36 35            [10] 1456 	ld	(hl), #0x35
                                   1457 ;./soccerlg.c:316: ERROR: no line number 316 in file ./soccerlg.c
                                   1458 ;E:/Dropbox/FAUSTO/SVILUPPI/MSX/CODE/C/MSXgl/engine/src/v9990.h:371: ERROR: no line number 371 in file E:/Dropbox/FAUSTO/SVILUPPI/MSX/CODE/C/MSXgl/engine/src/v9990.h
    00000434 11 00 40         [10] 1459 	ld	de, #0x4000
    00000437 21 04 00         [10] 1460 	ld	hl, #0x0004
    0000043A CDr00r00         [17] 1461 	call	_V9_SetWriteAddress
    0000043D 11 00 40         [10] 1462 	ld	de, #0x4000
    00000440 21r00r00         [10] 1463 	ld	hl, #_g_Data_Field_LayerB_Part2
    00000443 CDr00r00         [17] 1464 	call	_V9_WriteVRAM_CurrentAddr
                                   1465 ;E:/Dropbox/FAUSTO/SVILUPPI/MSX/CODE/C/MSXgl/engine/src/rom_mapper.h:250: ERROR: no line number 250 in file E:/Dropbox/FAUSTO/SVILUPPI/MSX/CODE/C/MSXgl/engine/src/rom_mapper.h
    00000446 21r01r00         [10] 1466 	ld	hl, #(_g_Bank0Segment + 1)
    00000449 36 36            [10] 1467 	ld	(hl), #0x36
                                   1468 ;E:/Dropbox/FAUSTO/SVILUPPI/MSX/CODE/C/MSXgl/engine/src/system.h:101: ERROR: no line number 101 in file E:/Dropbox/FAUSTO/SVILUPPI/MSX/CODE/C/MSXgl/engine/src/system.h
    0000044B 21 FF 77         [10] 1469 	ld	hl, #0x77ff
    0000044E 36 36            [10] 1470 	ld	(hl), #0x36
                                   1471 ;./soccerlg.c:318: ERROR: no line number 318 in file ./soccerlg.c
                                   1472 ;E:/Dropbox/FAUSTO/SVILUPPI/MSX/CODE/C/MSXgl/engine/src/v9990.h:371: ERROR: no line number 371 in file E:/Dropbox/FAUSTO/SVILUPPI/MSX/CODE/C/MSXgl/engine/src/v9990.h
    00000450 11 00 80         [10] 1473 	ld	de, #0x8000
    00000453 21 04 00         [10] 1474 	ld	hl, #0x0004
    00000456 CDr00r00         [17] 1475 	call	_V9_SetWriteAddress
    00000459 11 00 40         [10] 1476 	ld	de, #0x4000
    0000045C 21r00r00         [10] 1477 	ld	hl, #_g_Data_Field_LayerB_Part3
    0000045F CDr00r00         [17] 1478 	call	_V9_WriteVRAM_CurrentAddr
                                   1479 ;E:/Dropbox/FAUSTO/SVILUPPI/MSX/CODE/C/MSXgl/engine/src/rom_mapper.h:250: ERROR: no line number 250 in file E:/Dropbox/FAUSTO/SVILUPPI/MSX/CODE/C/MSXgl/engine/src/rom_mapper.h
    00000462 21r01r00         [10] 1480 	ld	hl, #(_g_Bank0Segment + 1)
    00000465 36 37            [10] 1481 	ld	(hl), #0x37
                                   1482 ;E:/Dropbox/FAUSTO/SVILUPPI/MSX/CODE/C/MSXgl/engine/src/system.h:101: ERROR: no line number 101 in file E:/Dropbox/FAUSTO/SVILUPPI/MSX/CODE/C/MSXgl/engine/src/system.h
    00000467 21 FF 77         [10] 1483 	ld	hl, #0x77ff
    0000046A 36 37            [10] 1484 	ld	(hl), #0x37
                                   1485 ;./soccerlg.c:320: ERROR: no line number 320 in file ./soccerlg.c
                                   1486 ;E:/Dropbox/FAUSTO/SVILUPPI/MSX/CODE/C/MSXgl/engine/src/v9990.h:371: ERROR: no line number 371 in file E:/Dropbox/FAUSTO/SVILUPPI/MSX/CODE/C/MSXgl/engine/src/v9990.h
    0000046C 11 00 C0         [10] 1487 	ld	de, #0xc000
    0000046F 21 04 00         [10] 1488 	ld	hl, #0x0004
    00000472 CDr00r00         [17] 1489 	call	_V9_SetWriteAddress
    00000475 11 00 3C         [10] 1490 	ld	de, #0x3c00
    00000478 21r00r00         [10] 1491 	ld	hl, #_g_Data_Field_LayerB_Part4
    0000047B CDr00r00         [17] 1492 	call	_V9_WriteVRAM_CurrentAddr
                                   1493 ;E:/Dropbox/FAUSTO/SVILUPPI/MSX/CODE/C/MSXgl/engine/src/rom_mapper.h:250: ERROR: no line number 250 in file E:/Dropbox/FAUSTO/SVILUPPI/MSX/CODE/C/MSXgl/engine/src/rom_mapper.h
    0000047E 21r01r00         [10] 1494 	ld	hl, #(_g_Bank0Segment + 1)
    00000481 36 38            [10] 1495 	ld	(hl), #0x38
                                   1496 ;E:/Dropbox/FAUSTO/SVILUPPI/MSX/CODE/C/MSXgl/engine/src/system.h:101: ERROR: no line number 101 in file E:/Dropbox/FAUSTO/SVILUPPI/MSX/CODE/C/MSXgl/engine/src/system.h
    00000483 21 FF 77         [10] 1497 	ld	hl, #0x77ff
    00000486 36 38            [10] 1498 	ld	(hl), #0x38
                                   1499 ;./soccerlg.c:322: ERROR: no line number 322 in file ./soccerlg.c
                                   1500 ;E:/Dropbox/FAUSTO/SVILUPPI/MSX/CODE/C/MSXgl/engine/src/v9990.h:371: ERROR: no line number 371 in file E:/Dropbox/FAUSTO/SVILUPPI/MSX/CODE/C/MSXgl/engine/src/v9990.h
    00000488 11 00 00         [10] 1501 	ld	de, #0x0000
    0000048B 21 05 00         [10] 1502 	ld	hl, #0x0005
    0000048E CDr00r00         [17] 1503 	call	_V9_SetWriteAddress
    00000491 11 00 40         [10] 1504 	ld	de, #0x4000
    00000494 21r00r00         [10] 1505 	ld	hl, #_g_Data_Field_LayerB_Part5
    00000497 CDr00r00         [17] 1506 	call	_V9_WriteVRAM_CurrentAddr
                                   1507 ;E:/Dropbox/FAUSTO/SVILUPPI/MSX/CODE/C/MSXgl/engine/src/rom_mapper.h:250: ERROR: no line number 250 in file E:/Dropbox/FAUSTO/SVILUPPI/MSX/CODE/C/MSXgl/engine/src/rom_mapper.h
    0000049A 21r01r00         [10] 1508 	ld	hl, #(_g_Bank0Segment + 1)
    0000049D DD 7E FF         [19] 1509 	ld	a, -1 (ix)
    000004A0 77               [ 7] 1510 	ld	(hl), a
                                   1511 ;E:/Dropbox/FAUSTO/SVILUPPI/MSX/CODE/C/MSXgl/engine/src/system.h:101: ERROR: no line number 101 in file E:/Dropbox/FAUSTO/SVILUPPI/MSX/CODE/C/MSXgl/engine/src/system.h
    000004A1 21 FF 77         [10] 1512 	ld	hl, #0x77ff
    000004A4 DD 7E FF         [19] 1513 	ld	a, -1 (ix)
    000004A7 77               [ 7] 1514 	ld	(hl), a
                                   1515 ;./soccerlg.c:323: ERROR: no line number 323 in file ./soccerlg.c
                                   1516 ;./soccerlg.c:325: ERROR: no line number 325 in file ./soccerlg.c
    000004A8 33               [ 6] 1517 	inc	sp
    000004A9 DD E1            [14] 1518 	pop	ix
    000004AB C9               [10] 1519 	ret
                                   1520 ;./soccerlg.c:327: ERROR: no line number 327 in file ./soccerlg.c
                                   1521 ;	---------------------------------
                                   1522 ; Function V9990_LoadImagePresentationData
                                   1523 ; ---------------------------------
    000004AC                       1524 _V9990_LoadImagePresentationData::
                                   1525 ;./soccerlg.c:328: ERROR: no line number 328 in file ./soccerlg.c
                                   1526 ;E:/Dropbox/FAUSTO/SVILUPPI/MSX/CODE/C/MSXgl/engine/src/rom_mapper.h:250: ERROR: no line number 250 in file E:/Dropbox/FAUSTO/SVILUPPI/MSX/CODE/C/MSXgl/engine/src/rom_mapper.h
    000004AC 21r01r00         [10] 1527 	ld	hl,#(_g_Bank0Segment + 1)
    000004AF 46               [ 7] 1528 	ld	b,(hl)
    000004B0 36 1F            [10] 1529 	ld	(hl), #0x1f
                                   1530 ;E:/Dropbox/FAUSTO/SVILUPPI/MSX/CODE/C/MSXgl/engine/src/system.h:101: ERROR: no line number 101 in file E:/Dropbox/FAUSTO/SVILUPPI/MSX/CODE/C/MSXgl/engine/src/system.h
    000004B2 21 FF 77         [10] 1531 	ld	hl, #0x77ff
    000004B5 36 1F            [10] 1532 	ld	(hl), #0x1f
                                   1533 ;./soccerlg.c:330: ERROR: no line number 330 in file ./soccerlg.c
                                   1534 ;E:/Dropbox/FAUSTO/SVILUPPI/MSX/CODE/C/MSXgl/engine/src/v9990.h:371: ERROR: no line number 371 in file E:/Dropbox/FAUSTO/SVILUPPI/MSX/CODE/C/MSXgl/engine/src/v9990.h
    000004B7 11 00 00         [10] 1535 	ld	de, #0x0000
    000004BA 21 00 00         [10] 1536 	ld	hl, #0x0000
    000004BD CDr00r00         [17] 1537 	call	_V9_SetWriteAddress
    000004C0 C5               [11] 1538 	push	bc
    000004C1 11 00 40         [10] 1539 	ld	de, #0x4000
    000004C4 21r00r00         [10] 1540 	ld	hl, #_g_Data_Img_Presentation_Part1
    000004C7 CDr00r00         [17] 1541 	call	_V9_WriteVRAM_CurrentAddr
    000004CA C1               [10] 1542 	pop	bc
                                   1543 ;E:/Dropbox/FAUSTO/SVILUPPI/MSX/CODE/C/MSXgl/engine/src/rom_mapper.h:250: ERROR: no line number 250 in file E:/Dropbox/FAUSTO/SVILUPPI/MSX/CODE/C/MSXgl/engine/src/rom_mapper.h
    000004CB 21r01r00         [10] 1544 	ld	hl, #(_g_Bank0Segment + 1)
    000004CE 36 20            [10] 1545 	ld	(hl), #0x20
                                   1546 ;E:/Dropbox/FAUSTO/SVILUPPI/MSX/CODE/C/MSXgl/engine/src/system.h:101: ERROR: no line number 101 in file E:/Dropbox/FAUSTO/SVILUPPI/MSX/CODE/C/MSXgl/engine/src/system.h
    000004D0 21 FF 77         [10] 1547 	ld	hl, #0x77ff
    000004D3 36 20            [10] 1548 	ld	(hl), #0x20
                                   1549 ;./soccerlg.c:332: ERROR: no line number 332 in file ./soccerlg.c
                                   1550 ;E:/Dropbox/FAUSTO/SVILUPPI/MSX/CODE/C/MSXgl/engine/src/v9990.h:371: ERROR: no line number 371 in file E:/Dropbox/FAUSTO/SVILUPPI/MSX/CODE/C/MSXgl/engine/src/v9990.h
    000004D5 11 00 40         [10] 1551 	ld	de, #0x4000
    000004D8 21 00 00         [10] 1552 	ld	hl, #0x0000
    000004DB CDr00r00         [17] 1553 	call	_V9_SetWriteAddress
    000004DE C5               [11] 1554 	push	bc
    000004DF 11 00 40         [10] 1555 	ld	de, #0x4000
    000004E2 21r00r00         [10] 1556 	ld	hl, #_g_Data_Img_Presentation_Part2
    000004E5 CDr00r00         [17] 1557 	call	_V9_WriteVRAM_CurrentAddr
    000004E8 C1               [10] 1558 	pop	bc
                                   1559 ;E:/Dropbox/FAUSTO/SVILUPPI/MSX/CODE/C/MSXgl/engine/src/rom_mapper.h:250: ERROR: no line number 250 in file E:/Dropbox/FAUSTO/SVILUPPI/MSX/CODE/C/MSXgl/engine/src/rom_mapper.h
    000004E9 21r01r00         [10] 1560 	ld	hl, #(_g_Bank0Segment + 1)
    000004EC 36 21            [10] 1561 	ld	(hl), #0x21
                                   1562 ;E:/Dropbox/FAUSTO/SVILUPPI/MSX/CODE/C/MSXgl/engine/src/system.h:101: ERROR: no line number 101 in file E:/Dropbox/FAUSTO/SVILUPPI/MSX/CODE/C/MSXgl/engine/src/system.h
    000004EE 21 FF 77         [10] 1563 	ld	hl, #0x77ff
    000004F1 36 21            [10] 1564 	ld	(hl), #0x21
                                   1565 ;./soccerlg.c:334: ERROR: no line number 334 in file ./soccerlg.c
                                   1566 ;E:/Dropbox/FAUSTO/SVILUPPI/MSX/CODE/C/MSXgl/engine/src/v9990.h:371: ERROR: no line number 371 in file E:/Dropbox/FAUSTO/SVILUPPI/MSX/CODE/C/MSXgl/engine/src/v9990.h
    000004F3 11 00 80         [10] 1567 	ld	de, #0x8000
    000004F6 21 00 00         [10] 1568 	ld	hl, #0x0000
    000004F9 CDr00r00         [17] 1569 	call	_V9_SetWriteAddress
    000004FC C5               [11] 1570 	push	bc
    000004FD 11 00 40         [10] 1571 	ld	de, #0x4000
    00000500 21r00r00         [10] 1572 	ld	hl, #_g_Data_Img_Presentation_Part3
    00000503 CDr00r00         [17] 1573 	call	_V9_WriteVRAM_CurrentAddr
    00000506 C1               [10] 1574 	pop	bc
                                   1575 ;E:/Dropbox/FAUSTO/SVILUPPI/MSX/CODE/C/MSXgl/engine/src/rom_mapper.h:250: ERROR: no line number 250 in file E:/Dropbox/FAUSTO/SVILUPPI/MSX/CODE/C/MSXgl/engine/src/rom_mapper.h
    00000507 21r01r00         [10] 1576 	ld	hl, #(_g_Bank0Segment + 1)
    0000050A 36 22            [10] 1577 	ld	(hl), #0x22
                                   1578 ;E:/Dropbox/FAUSTO/SVILUPPI/MSX/CODE/C/MSXgl/engine/src/system.h:101: ERROR: no line number 101 in file E:/Dropbox/FAUSTO/SVILUPPI/MSX/CODE/C/MSXgl/engine/src/system.h
    0000050C 21 FF 77         [10] 1579 	ld	hl, #0x77ff
    0000050F 36 22            [10] 1580 	ld	(hl), #0x22
                                   1581 ;./soccerlg.c:336: ERROR: no line number 336 in file ./soccerlg.c
                                   1582 ;E:/Dropbox/FAUSTO/SVILUPPI/MSX/CODE/C/MSXgl/engine/src/v9990.h:371: ERROR: no line number 371 in file E:/Dropbox/FAUSTO/SVILUPPI/MSX/CODE/C/MSXgl/engine/src/v9990.h
    00000511 11 00 C0         [10] 1583 	ld	de, #0xc000
    00000514 21 00 00         [10] 1584 	ld	hl, #0x0000
    00000517 CDr00r00         [17] 1585 	call	_V9_SetWriteAddress
    0000051A C5               [11] 1586 	push	bc
    0000051B 11 00 14         [10] 1587 	ld	de, #0x1400
    0000051E 21r00r00         [10] 1588 	ld	hl, #_g_Data_Img_Presentation_Part4
    00000521 CDr00r00         [17] 1589 	call	_V9_WriteVRAM_CurrentAddr
    00000524 C1               [10] 1590 	pop	bc
                                   1591 ;E:/Dropbox/FAUSTO/SVILUPPI/MSX/CODE/C/MSXgl/engine/src/rom_mapper.h:250: ERROR: no line number 250 in file E:/Dropbox/FAUSTO/SVILUPPI/MSX/CODE/C/MSXgl/engine/src/rom_mapper.h
    00000525 21r01r00         [10] 1592 	ld	hl, #(_g_Bank0Segment + 1)
    00000528 70               [ 7] 1593 	ld	(hl), b
                                   1594 ;E:/Dropbox/FAUSTO/SVILUPPI/MSX/CODE/C/MSXgl/engine/src/system.h:101: ERROR: no line number 101 in file E:/Dropbox/FAUSTO/SVILUPPI/MSX/CODE/C/MSXgl/engine/src/system.h
    00000529 21 FF 77         [10] 1595 	ld	hl, #0x77ff
    0000052C 70               [ 7] 1596 	ld	(hl), b
                                   1597 ;./soccerlg.c:337: ERROR: no line number 337 in file ./soccerlg.c
                                   1598 ;./soccerlg.c:338: ERROR: no line number 338 in file ./soccerlg.c
    0000052D C9               [10] 1599 	ret
                                   1600 ;./soccerlg.c:340: ERROR: no line number 340 in file ./soccerlg.c
                                   1601 ;	---------------------------------
                                   1602 ; Function V9990_LoadMenuTeamsData
                                   1603 ; ---------------------------------
    0000052E                       1604 _V9990_LoadMenuTeamsData::
    0000052E DD E5            [15] 1605 	push	ix
    00000530 DD 21 00 00      [14] 1606 	ld	ix,#0
    00000534 DD 39            [15] 1607 	add	ix,sp
    00000536 21 FB FF         [10] 1608 	ld	hl, #-5
    00000539 39               [11] 1609 	add	hl, sp
    0000053A F9               [ 6] 1610 	ld	sp, hl
                                   1611 ;./soccerlg.c:341: ERROR: no line number 341 in file ./soccerlg.c
    0000053B 3Ar01r00         [13] 1612 	ld	a, (#(_g_Bank0Segment + 1) + 0)
    0000053E DD 77 FB         [19] 1613 	ld	-5 (ix), a
                                   1614 ;E:/Dropbox/FAUSTO/SVILUPPI/MSX/CODE/C/MSXgl/engine/src/rom_mapper.h:250: ERROR: no line number 250 in file E:/Dropbox/FAUSTO/SVILUPPI/MSX/CODE/C/MSXgl/engine/src/rom_mapper.h
    00000541 21r01r00         [10] 1615 	ld	hl, #(_g_Bank0Segment + 1)
    00000544 36 26            [10] 1616 	ld	(hl), #0x26
                                   1617 ;E:/Dropbox/FAUSTO/SVILUPPI/MSX/CODE/C/MSXgl/engine/src/system.h:101: ERROR: no line number 101 in file E:/Dropbox/FAUSTO/SVILUPPI/MSX/CODE/C/MSXgl/engine/src/system.h
    00000546 21 FF 77         [10] 1618 	ld	hl, #0x77ff
    00000549 36 26            [10] 1619 	ld	(hl), #0x26
                                   1620 ;./soccerlg.c:343: ERROR: no line number 343 in file ./soccerlg.c
                                   1621 ;E:/Dropbox/FAUSTO/SVILUPPI/MSX/CODE/C/MSXgl/engine/src/v9990.h:371: ERROR: no line number 371 in file E:/Dropbox/FAUSTO/SVILUPPI/MSX/CODE/C/MSXgl/engine/src/v9990.h
    0000054B 11 00 20         [10] 1622 	ld	de, #0x2000
    0000054E 21 04 00         [10] 1623 	ld	hl, #0x0004
    00000551 CDr00r00         [17] 1624 	call	_V9_SetWriteAddress
    00000554 11 00 40         [10] 1625 	ld	de, #0x4000
    00000557 21r00r00         [10] 1626 	ld	hl, #_g_Data_Teams_Gray_Part1
    0000055A CDr00r00         [17] 1627 	call	_V9_WriteVRAM_CurrentAddr
                                   1628 ;E:/Dropbox/FAUSTO/SVILUPPI/MSX/CODE/C/MSXgl/engine/src/rom_mapper.h:250: ERROR: no line number 250 in file E:/Dropbox/FAUSTO/SVILUPPI/MSX/CODE/C/MSXgl/engine/src/rom_mapper.h
    0000055D 21r01r00         [10] 1629 	ld	hl, #(_g_Bank0Segment + 1)
    00000560 36 27            [10] 1630 	ld	(hl), #0x27
                                   1631 ;E:/Dropbox/FAUSTO/SVILUPPI/MSX/CODE/C/MSXgl/engine/src/system.h:101: ERROR: no line number 101 in file E:/Dropbox/FAUSTO/SVILUPPI/MSX/CODE/C/MSXgl/engine/src/system.h
    00000562 21 FF 77         [10] 1632 	ld	hl, #0x77ff
    00000565 36 27            [10] 1633 	ld	(hl), #0x27
                                   1634 ;./soccerlg.c:345: ERROR: no line number 345 in file ./soccerlg.c
                                   1635 ;E:/Dropbox/FAUSTO/SVILUPPI/MSX/CODE/C/MSXgl/engine/src/v9990.h:371: ERROR: no line number 371 in file E:/Dropbox/FAUSTO/SVILUPPI/MSX/CODE/C/MSXgl/engine/src/v9990.h
    00000567 11 00 60         [10] 1636 	ld	de, #0x6000
    0000056A 21 04 00         [10] 1637 	ld	hl, #0x0004
    0000056D CDr00r00         [17] 1638 	call	_V9_SetWriteAddress
    00000570 11 00 10         [10] 1639 	ld	de, #0x1000
    00000573 21r00r00         [10] 1640 	ld	hl, #_g_Data_Teams_Gray_Part2
    00000576 CDr00r00         [17] 1641 	call	_V9_WriteVRAM_CurrentAddr
                                   1642 ;E:/Dropbox/FAUSTO/SVILUPPI/MSX/CODE/C/MSXgl/engine/src/v9990.h:362: ERROR: no line number 362 in file E:/Dropbox/FAUSTO/SVILUPPI/MSX/CODE/C/MSXgl/engine/src/v9990.h
    00000579 11 00 E0         [10] 1643 	ld	de, #0xe000
    0000057C 21 07 00         [10] 1644 	ld	hl, #0x0007
    0000057F CDr00r00         [17] 1645 	call	_V9_SetWriteAddress
    00000582 11 00 10         [10] 1646 	ld	de, #0x1000
    00000585 21 00 00         [10] 1647 	ld	hl, #0x0000
    00000588 CDr00r00         [17] 1648 	call	_V9_FillVRAM16_CurrentAddr
                                   1649 ;./soccerlg.c:347: ERROR: no line number 347 in file ./soccerlg.c
    0000058B DD 36 FCr00      [19] 1650 	ld	-4 (ix), #<(_g_Data_Palette_Gray_Scale)
    0000058F DD 36 FDs00      [19] 1651 	ld	-3 (ix), #>(_g_Data_Palette_Gray_Scale)
                                   1652 ;./soccerlg.c:1028: ERROR: no line number 1028 in file ./soccerlg.c
    00000593 DD 36 FE 10      [19] 1653 	ld	-2 (ix), #0x10
    00000597 DD 36 FF 00      [19] 1654 	ld	-1 (ix), #0x00
    0000059B                       1655 00142$:
    0000059B DD 7E FF         [19] 1656 	ld	a, -1 (ix)
    0000059E D6 10            [ 7] 1657 	sub	a, #0x10
    000005A0 30 23            [12] 1658 	jr	NC, 00122$
    000005A2 DD 4E FE         [19] 1659 	ld	c, -2 (ix)
    000005A5 DD 34 FE         [23] 1660 	inc	-2 (ix)
    000005A8 DD 5E FC         [19] 1661 	ld	e, -4 (ix)
    000005AB DD 56 FD         [19] 1662 	ld	d, -3 (ix)
    000005AE 79               [ 4] 1663 	ld	a, c
    000005AF CDr00r00         [17] 1664 	call	_V9_SetPaletteEntry
    000005B2 DD 7E FC         [19] 1665 	ld	a, -4 (ix)
    000005B5 C6 03            [ 7] 1666 	add	a, #0x03
    000005B7 DD 77 FC         [19] 1667 	ld	-4 (ix), a
    000005BA 30 03            [12] 1668 	jr	NC, 00179$
    000005BC DD 34 FD         [23] 1669 	inc	-3 (ix)
    000005BF                       1670 00179$:
    000005BF DD 34 FF         [23] 1671 	inc	-1 (ix)
    000005C2 C3r9Br05         [10] 1672 	jp	00142$
                                   1673 ;./soccerlg.c:347: ERROR: no line number 347 in file ./soccerlg.c
    000005C5                       1674 00122$:
                                   1675 ;E:/Dropbox/FAUSTO/SVILUPPI/MSX/CODE/C/MSXgl/engine/src/rom_mapper.h:250: ERROR: no line number 250 in file E:/Dropbox/FAUSTO/SVILUPPI/MSX/CODE/C/MSXgl/engine/src/rom_mapper.h
    000005C5 21r01r00         [10] 1676 	ld	hl, #(_g_Bank0Segment + 1)
    000005C8 36 25            [10] 1677 	ld	(hl), #0x25
                                   1678 ;E:/Dropbox/FAUSTO/SVILUPPI/MSX/CODE/C/MSXgl/engine/src/system.h:101: ERROR: no line number 101 in file E:/Dropbox/FAUSTO/SVILUPPI/MSX/CODE/C/MSXgl/engine/src/system.h
    000005CA 21 FF 77         [10] 1679 	ld	hl, #0x77ff
    000005CD 36 25            [10] 1680 	ld	(hl), #0x25
                                   1681 ;./soccerlg.c:349: ERROR: no line number 349 in file ./soccerlg.c
    000005CF 01r00r00         [10] 1682 	ld	bc, #_g_Data_Palette_Teams_Colors+0
                                   1683 ;./soccerlg.c:1028: ERROR: no line number 1028 in file ./soccerlg.c
                                   1684 ;	spillPairReg hl
                                   1685 ;	spillPairReg hl
    000005D2 21 00 00         [10] 1686 	ld	hl, #0x0
                                   1687 ;	spillPairReg hl
                                   1688 ;	spillPairReg hl
    000005D5                       1689 00145$:
    000005D5 7C               [ 4] 1690 	ld	a, h
    000005D6 D6 10            [ 7] 1691 	sub	a, #0x10
    000005D8 30 17            [12] 1692 	jr	NC, 00132$
    000005DA DD 75 FF         [19] 1693 	ld	-1 (ix), l
    000005DD 2C               [ 4] 1694 	inc	l
    000005DE E5               [11] 1695 	push	hl
    000005DF C5               [11] 1696 	push	bc
    000005E0 59               [ 4] 1697 	ld	e, c
    000005E1 50               [ 4] 1698 	ld	d, b
    000005E2 DD 7E FF         [19] 1699 	ld	a, -1 (ix)
    000005E5 CDr00r00         [17] 1700 	call	_V9_SetPaletteEntry
    000005E8 C1               [10] 1701 	pop	bc
    000005E9 E1               [10] 1702 	pop	hl
    000005EA 03               [ 6] 1703 	inc	bc
    000005EB 03               [ 6] 1704 	inc	bc
    000005EC 03               [ 6] 1705 	inc	bc
    000005ED 24               [ 4] 1706 	inc	h
    000005EE C3rD5r05         [10] 1707 	jp	00145$
                                   1708 ;./soccerlg.c:349: ERROR: no line number 349 in file ./soccerlg.c
    000005F1                       1709 00132$:
                                   1710 ;E:/Dropbox/FAUSTO/SVILUPPI/MSX/CODE/C/MSXgl/engine/src/rom_mapper.h:250: ERROR: no line number 250 in file E:/Dropbox/FAUSTO/SVILUPPI/MSX/CODE/C/MSXgl/engine/src/rom_mapper.h
    000005F1 21r01r00         [10] 1711 	ld	hl, #(_g_Bank0Segment + 1)
    000005F4 DD 7E FB         [19] 1712 	ld	a, -5 (ix)
    000005F7 77               [ 7] 1713 	ld	(hl), a
                                   1714 ;E:/Dropbox/FAUSTO/SVILUPPI/MSX/CODE/C/MSXgl/engine/src/system.h:101: ERROR: no line number 101 in file E:/Dropbox/FAUSTO/SVILUPPI/MSX/CODE/C/MSXgl/engine/src/system.h
    000005F8 21 FF 77         [10] 1715 	ld	hl, #0x77ff
    000005FB DD 7E FB         [19] 1716 	ld	a, -5 (ix)
    000005FE 77               [ 7] 1717 	ld	(hl), a
                                   1718 ;./soccerlg.c:350: ERROR: no line number 350 in file ./soccerlg.c
                                   1719 ;./soccerlg.c:351: ERROR: no line number 351 in file ./soccerlg.c
    000005FF DD F9            [10] 1720 	ld	sp, ix
    00000601 DD E1            [14] 1721 	pop	ix
    00000603 C9               [10] 1722 	ret
                                   1723 ;./soccerlg.c:353: ERROR: no line number 353 in file ./soccerlg.c
                                   1724 ;	---------------------------------
                                   1725 ; Function V9990_LoadSprites
                                   1726 ; ---------------------------------
    00000604                       1727 _V9990_LoadSprites::
                                   1728 ;./soccerlg.c:354: ERROR: no line number 354 in file ./soccerlg.c
                                   1729 ;E:/Dropbox/FAUSTO/SVILUPPI/MSX/CODE/C/MSXgl/engine/src/rom_mapper.h:250: ERROR: no line number 250 in file E:/Dropbox/FAUSTO/SVILUPPI/MSX/CODE/C/MSXgl/engine/src/rom_mapper.h
    00000604 21r01r00         [10] 1730 	ld	hl,#(_g_Bank0Segment + 1)
    00000607 46               [ 7] 1731 	ld	b,(hl)
    00000608 36 28            [10] 1732 	ld	(hl), #0x28
                                   1733 ;E:/Dropbox/FAUSTO/SVILUPPI/MSX/CODE/C/MSXgl/engine/src/system.h:101: ERROR: no line number 101 in file E:/Dropbox/FAUSTO/SVILUPPI/MSX/CODE/C/MSXgl/engine/src/system.h
    0000060A 21 FF 77         [10] 1734 	ld	hl, #0x77ff
    0000060D 36 28            [10] 1735 	ld	(hl), #0x28
                                   1736 ;E:/Dropbox/FAUSTO/SVILUPPI/MSX/CODE/C/MSXgl/engine/src/v9990.h:739: ERROR: no line number 739 in file E:/Dropbox/FAUSTO/SVILUPPI/MSX/CODE/C/MSXgl/engine/src/v9990.h
    0000060F 2E 02            [ 7] 1737 	ld	l, #0x02
                                   1738 ;	spillPairReg hl
                                   1739 ;	spillPairReg hl
    00000611 3E 19            [ 7] 1740 	ld	a, #0x19
    00000613 CDr00r00         [17] 1741 	call	_V9_SetRegister
                                   1742 ;./soccerlg.c:357: ERROR: no line number 357 in file ./soccerlg.c
                                   1743 ;E:/Dropbox/FAUSTO/SVILUPPI/MSX/CODE/C/MSXgl/engine/src/v9990.h:371: ERROR: no line number 371 in file E:/Dropbox/FAUSTO/SVILUPPI/MSX/CODE/C/MSXgl/engine/src/v9990.h
    00000616 11 00 80         [10] 1744 	ld	de, #0x8000
    00000619 21 00 00         [10] 1745 	ld	hl, #0x0000
    0000061C CDr00r00         [17] 1746 	call	_V9_SetWriteAddress
    0000061F C5               [11] 1747 	push	bc
    00000620 11 00 40         [10] 1748 	ld	de, #0x4000
    00000623 21r00r00         [10] 1749 	ld	hl, #_g_Data_Sprites_Part1
    00000626 CDr00r00         [17] 1750 	call	_V9_WriteVRAM_CurrentAddr
    00000629 C1               [10] 1751 	pop	bc
                                   1752 ;E:/Dropbox/FAUSTO/SVILUPPI/MSX/CODE/C/MSXgl/engine/src/rom_mapper.h:250: ERROR: no line number 250 in file E:/Dropbox/FAUSTO/SVILUPPI/MSX/CODE/C/MSXgl/engine/src/rom_mapper.h
    0000062A 21r01r00         [10] 1753 	ld	hl, #(_g_Bank0Segment + 1)
    0000062D 36 29            [10] 1754 	ld	(hl), #0x29
                                   1755 ;E:/Dropbox/FAUSTO/SVILUPPI/MSX/CODE/C/MSXgl/engine/src/system.h:101: ERROR: no line number 101 in file E:/Dropbox/FAUSTO/SVILUPPI/MSX/CODE/C/MSXgl/engine/src/system.h
    0000062F 21 FF 77         [10] 1756 	ld	hl, #0x77ff
    00000632 36 29            [10] 1757 	ld	(hl), #0x29
                                   1758 ;./soccerlg.c:359: ERROR: no line number 359 in file ./soccerlg.c
                                   1759 ;E:/Dropbox/FAUSTO/SVILUPPI/MSX/CODE/C/MSXgl/engine/src/v9990.h:371: ERROR: no line number 371 in file E:/Dropbox/FAUSTO/SVILUPPI/MSX/CODE/C/MSXgl/engine/src/v9990.h
    00000634 11 00 C0         [10] 1760 	ld	de, #0xc000
    00000637 21 00 00         [10] 1761 	ld	hl, #0x0000
    0000063A CDr00r00         [17] 1762 	call	_V9_SetWriteAddress
    0000063D C5               [11] 1763 	push	bc
    0000063E 11 00 40         [10] 1764 	ld	de, #0x4000
    00000641 21r00r00         [10] 1765 	ld	hl, #_g_Data_Sprites_Part2
    00000644 CDr00r00         [17] 1766 	call	_V9_WriteVRAM_CurrentAddr
    00000647 C1               [10] 1767 	pop	bc
                                   1768 ;E:/Dropbox/FAUSTO/SVILUPPI/MSX/CODE/C/MSXgl/engine/src/rom_mapper.h:250: ERROR: no line number 250 in file E:/Dropbox/FAUSTO/SVILUPPI/MSX/CODE/C/MSXgl/engine/src/rom_mapper.h
    00000648 21r01r00         [10] 1769 	ld	hl, #(_g_Bank0Segment + 1)
    0000064B 70               [ 7] 1770 	ld	(hl), b
                                   1771 ;E:/Dropbox/FAUSTO/SVILUPPI/MSX/CODE/C/MSXgl/engine/src/system.h:101: ERROR: no line number 101 in file E:/Dropbox/FAUSTO/SVILUPPI/MSX/CODE/C/MSXgl/engine/src/system.h
    0000064C 21 FF 77         [10] 1772 	ld	hl, #0x77ff
    0000064F 70               [ 7] 1773 	ld	(hl), b
                                   1774 ;./soccerlg.c:360: ERROR: no line number 360 in file ./soccerlg.c
                                   1775 ;./soccerlg.c:362: ERROR: no line number 362 in file ./soccerlg.c
    00000650 C9               [10] 1776 	ret
                                   1777 ;./soccerlg.c:364: ERROR: no line number 364 in file ./soccerlg.c
                                   1778 ;	---------------------------------
                                   1779 ; Function V9990_PrintLayerAStringAtPos
                                   1780 ; ---------------------------------
    00000651                       1781 _V9990_PrintLayerAStringAtPos::
    00000651 DD E5            [15] 1782 	push	ix
    00000653 DD 21 00 00      [14] 1783 	ld	ix,#0
    00000657 DD 39            [15] 1784 	add	ix,sp
    00000659 F5               [11] 1785 	push	af
    0000065A F5               [11] 1786 	push	af
    0000065B DD 77 FF         [19] 1787 	ld	-1 (ix), a
    0000065E DD 75 FE         [19] 1788 	ld	-2 (ix), l
                                   1789 ;./soccerlg.c:367: ERROR: no line number 367 in file ./soccerlg.c
    00000661 DD 5E 04         [19] 1790 	ld	e, 4 (ix)
    00000664 DD 56 05         [19] 1791 	ld	d, 5 (ix)
    00000667                       1792 00101$:
    00000667 1A               [ 7] 1793 	ld	a, (de)
    00000668 B7               [ 4] 1794 	or	a, a
    00000669 28 3D            [12] 1795 	jr	Z, 00106$
                                   1796 ;./soccerlg.c:368: ERROR: no line number 368 in file ./soccerlg.c
    0000066B 13               [ 6] 1797 	inc	de
    0000066C DD 77 FC         [19] 1798 	ld	-4 (ix), a
    0000066F DD 36 FD 00      [19] 1799 	ld	-3 (ix), #0x00
                                   1800 ;E:/Dropbox/FAUSTO/SVILUPPI/MSX/CODE/C/MSXgl/engine/src/v9990.h:1426: ERROR: no line number 1426 in file E:/Dropbox/FAUSTO/SVILUPPI/MSX/CODE/C/MSXgl/engine/src/v9990.h
    00000673 DD 6E FE         [19] 1801 	ld	l, -2 (ix)
                                   1802 ;	spillPairReg hl
                                   1803 ;	spillPairReg hl
    00000676 26 00            [ 7] 1804 	ld	h, #0x00
                                   1805 ;	spillPairReg hl
                                   1806 ;	spillPairReg hl
    00000678 29               [11] 1807 	add	hl, hl
    00000679 29               [11] 1808 	add	hl, hl
    0000067A 29               [11] 1809 	add	hl, hl
    0000067B 29               [11] 1810 	add	hl, hl
    0000067C 29               [11] 1811 	add	hl, hl
    0000067D 29               [11] 1812 	add	hl, hl
    0000067E DD 4E FF         [19] 1813 	ld	c, -1 (ix)
    00000681 06 00            [ 7] 1814 	ld	b, #0x00
    00000683 09               [11] 1815 	add	hl, bc
    00000684 29               [11] 1816 	add	hl, hl
    00000685 7C               [ 4] 1817 	ld	a, h
    00000686 07               [ 4] 1818 	rlca
    00000687 9F               [ 4] 1819 	sbc	a, a
    00000688 4F               [ 4] 1820 	ld	c, a
    00000689 47               [ 4] 1821 	ld	b, a
    0000068A 7C               [ 4] 1822 	ld	a, h
    0000068B C6 C0            [ 7] 1823 	add	a, #0xc0
    0000068D 67               [ 4] 1824 	ld	h, a
                                   1825 ;	spillPairReg hl
                                   1826 ;	spillPairReg hl
    0000068E 79               [ 4] 1827 	ld	a, c
    0000068F CE 07            [ 7] 1828 	adc	a, #0x07
    00000691 4F               [ 4] 1829 	ld	c, a
    00000692 30 01            [12] 1830 	jr	NC, 00119$
    00000694 04               [ 4] 1831 	inc	b
    00000695                       1832 00119$:
                                   1833 ;E:/Dropbox/FAUSTO/SVILUPPI/MSX/CODE/C/MSXgl/engine/src/v9990.h:396: ERROR: no line number 396 in file E:/Dropbox/FAUSTO/SVILUPPI/MSX/CODE/C/MSXgl/engine/src/v9990.h
    00000695 EB               [ 4] 1834 	ex	de, hl
    00000696 E5               [11] 1835 	push	hl
    00000697 69               [ 4] 1836 	ld	l, c
                                   1837 ;	spillPairReg hl
                                   1838 ;	spillPairReg hl
    00000698 60               [ 4] 1839 	ld	h, b
                                   1840 ;	spillPairReg hl
                                   1841 ;	spillPairReg hl
    00000699 CDr00r00         [17] 1842 	call	_V9_SetWriteAddress
    0000069C D1               [10] 1843 	pop	de
    0000069D E1               [10] 1844 	pop	hl
    0000069E E5               [11] 1845 	push	hl
    0000069F CDr00r00         [17] 1846 	call	_V9_Poke16_CurrentAddr
                                   1847 ;./soccerlg.c:369: ERROR: no line number 369 in file ./soccerlg.c
    000006A2 DD 34 FF         [23] 1848 	inc	-1 (ix)
                                   1849 ;./soccerlg.c:370: ERROR: no line number 370 in file ./soccerlg.c
    000006A5 C3r67r06         [10] 1850 	jp	00101$
    000006A8                       1851 00106$:
                                   1852 ;./soccerlg.c:373: ERROR: no line number 373 in file ./soccerlg.c
    000006A8 DD F9            [10] 1853 	ld	sp, ix
    000006AA DD E1            [14] 1854 	pop	ix
    000006AC E1               [10] 1855 	pop	hl
    000006AD F1               [10] 1856 	pop	af
    000006AE E9               [ 4] 1857 	jp	(hl)
                                   1858 ;./soccerlg.c:375: ERROR: no line number 375 in file ./soccerlg.c
                                   1859 ;	---------------------------------
                                   1860 ; Function V9990_WaitSynch
                                   1861 ; ---------------------------------
    000006AF                       1862 _V9990_WaitSynch::
                                   1863 ;./soccerlg.c:377: ERROR: no line number 377 in file ./soccerlg.c
    000006AF                       1864 00101$:
    000006AF 3Ar00r00         [13] 1865 	ld	a, (_g_VSynch+0)
    000006B2 B7               [ 4] 1866 	or	a, a
    000006B3 28 FA            [12] 1867 	jr	Z, 00101$
                                   1868 ;./soccerlg.c:378: ERROR: no line number 378 in file ./soccerlg.c
    000006B5 21r00r00         [10] 1869 	ld	hl, #_g_VSynch
    000006B8 36 00            [10] 1870 	ld	(hl), #0x00
                                   1871 ;./soccerlg.c:379: ERROR: no line number 379 in file ./soccerlg.c
    000006BA FD 21r01r00      [14] 1872 	ld	iy, #_g_FrameCounter
    000006BE FD 34 00         [23] 1873 	inc	0 (iy)
                                   1874 ;./soccerlg.c:380: ERROR: no line number 380 in file ./soccerlg.c
    000006C1 3Ar01r00         [13] 1875 	ld	a, (_g_FrameCounter+0)
    000006C4 D6 3C            [ 7] 1876 	sub	a, #0x3c
    000006C6 20 04            [12] 1877 	jr	NZ, 00105$
                                   1878 ;./soccerlg.c:381: ERROR: no line number 381 in file ./soccerlg.c
    000006C8 FD 36 00 00      [19] 1879 	ld	0 (iy), #0x00
    000006CC                       1880 00105$:
                                   1881 ;./soccerlg.c:383: ERROR: no line number 383 in file ./soccerlg.c
    000006CC 3Ar08r00         [13] 1882 	ld	a, (_g_MatchStatus+0)
    000006CF D6 13            [ 7] 1883 	sub	a, #0x13
    000006D1 C0               [11] 1884 	ret	NZ
                                   1885 ;./soccerlg.c:384: ERROR: no line number 384 in file ./soccerlg.c
                                   1886 ;E:/Dropbox/FAUSTO/SVILUPPI/MSX/CODE/C/MSXgl/engine/src/rom_mapper.h:250: ERROR: no line number 250 in file E:/Dropbox/FAUSTO/SVILUPPI/MSX/CODE/C/MSXgl/engine/src/rom_mapper.h
    000006D2 21r01r00         [10] 1887 	ld	hl,#(_g_Bank0Segment + 1)
    000006D5 4E               [ 7] 1888 	ld	c,(hl)
    000006D6 36 3C            [10] 1889 	ld	(hl), #0x3c
                                   1890 ;E:/Dropbox/FAUSTO/SVILUPPI/MSX/CODE/C/MSXgl/engine/src/system.h:101: ERROR: no line number 101 in file E:/Dropbox/FAUSTO/SVILUPPI/MSX/CODE/C/MSXgl/engine/src/system.h
    000006D8 21 FF 77         [10] 1891 	ld	hl, #0x77ff
    000006DB 36 3C            [10] 1892 	ld	(hl), #0x3c
                                   1893 ;./soccerlg.c:386: ERROR: no line number 386 in file ./soccerlg.c
    000006DD C5               [11] 1894 	push	bc
    000006DE CDr00r00         [17] 1895 	call	_VGM_Decode
    000006E1 CDr00r00         [17] 1896 	call	_PSG_Apply
    000006E4 C1               [10] 1897 	pop	bc
                                   1898 ;E:/Dropbox/FAUSTO/SVILUPPI/MSX/CODE/C/MSXgl/engine/src/rom_mapper.h:250: ERROR: no line number 250 in file E:/Dropbox/FAUSTO/SVILUPPI/MSX/CODE/C/MSXgl/engine/src/rom_mapper.h
    000006E5 21r01r00         [10] 1899 	ld	hl, #(_g_Bank0Segment + 1)
    000006E8 71               [ 7] 1900 	ld	(hl), c
                                   1901 ;E:/Dropbox/FAUSTO/SVILUPPI/MSX/CODE/C/MSXgl/engine/src/system.h:101: ERROR: no line number 101 in file E:/Dropbox/FAUSTO/SVILUPPI/MSX/CODE/C/MSXgl/engine/src/system.h
    000006E9 21 FF 77         [10] 1902 	ld	hl, #0x77ff
    000006EC 71               [ 7] 1903 	ld	(hl), c
                                   1904 ;./soccerlg.c:389: ERROR: no line number 389 in file ./soccerlg.c
                                   1905 ;./soccerlg.c:391: ERROR: no line number 391 in file ./soccerlg.c
    000006ED C9               [10] 1906 	ret
                                   1907 ;./soccerlg.c:393: ERROR: no line number 393 in file ./soccerlg.c
                                   1908 ;	---------------------------------
                                   1909 ; Function V9990_ClearTextFromLayerA
                                   1910 ; ---------------------------------
    000006EE                       1911 _V9990_ClearTextFromLayerA::
    000006EE DD E5            [15] 1912 	push	ix
    000006F0 DD 21 00 00      [14] 1913 	ld	ix,#0
    000006F4 DD 39            [15] 1914 	add	ix,sp
    000006F6 F5               [11] 1915 	push	af
    000006F7 4F               [ 4] 1916 	ld	c, a
    000006F8 DD 75 FE         [19] 1917 	ld	-2 (ix), l
                                   1918 ;./soccerlg.c:394: ERROR: no line number 394 in file ./soccerlg.c
    000006FB DD 36 FF 00      [19] 1919 	ld	-1 (ix), #0x00
    000006FF                       1920 00105$:
    000006FF DD 7E FF         [19] 1921 	ld	a, -1 (ix)
    00000702 DD 96 04         [19] 1922 	sub	a, 4 (ix)
    00000705 30 33            [12] 1923 	jr	NC, 00107$
                                   1924 ;E:/Dropbox/FAUSTO/SVILUPPI/MSX/CODE/C/MSXgl/engine/src/v9990.h:1426: ERROR: no line number 1426 in file E:/Dropbox/FAUSTO/SVILUPPI/MSX/CODE/C/MSXgl/engine/src/v9990.h
    00000707 DD 6E FE         [19] 1925 	ld	l, -2 (ix)
                                   1926 ;	spillPairReg hl
                                   1927 ;	spillPairReg hl
    0000070A 26 00            [ 7] 1928 	ld	h, #0x00
                                   1929 ;	spillPairReg hl
                                   1930 ;	spillPairReg hl
    0000070C 29               [11] 1931 	add	hl, hl
    0000070D 29               [11] 1932 	add	hl, hl
    0000070E 29               [11] 1933 	add	hl, hl
    0000070F 29               [11] 1934 	add	hl, hl
    00000710 29               [11] 1935 	add	hl, hl
    00000711 29               [11] 1936 	add	hl, hl
    00000712 59               [ 4] 1937 	ld	e, c
    00000713 16 00            [ 7] 1938 	ld	d, #0x00
    00000715 19               [11] 1939 	add	hl, de
    00000716 29               [11] 1940 	add	hl, hl
    00000717 7C               [ 4] 1941 	ld	a, h
    00000718 07               [ 4] 1942 	rlca
    00000719 9F               [ 4] 1943 	sbc	a, a
    0000071A 5F               [ 4] 1944 	ld	e, a
    0000071B 57               [ 4] 1945 	ld	d, a
    0000071C 7C               [ 4] 1946 	ld	a, h
    0000071D C6 C0            [ 7] 1947 	add	a, #0xc0
    0000071F 67               [ 4] 1948 	ld	h, a
                                   1949 ;	spillPairReg hl
                                   1950 ;	spillPairReg hl
    00000720 7B               [ 4] 1951 	ld	a, e
    00000721 CE 07            [ 7] 1952 	adc	a, #0x07
    00000723 5F               [ 4] 1953 	ld	e, a
    00000724 30 01            [12] 1954 	jr	NC, 00120$
    00000726 14               [ 4] 1955 	inc	d
    00000727                       1956 00120$:
                                   1957 ;E:/Dropbox/FAUSTO/SVILUPPI/MSX/CODE/C/MSXgl/engine/src/v9990.h:396: ERROR: no line number 396 in file E:/Dropbox/FAUSTO/SVILUPPI/MSX/CODE/C/MSXgl/engine/src/v9990.h
    00000727 C5               [11] 1958 	push	bc
    00000728 EB               [ 4] 1959 	ex	de, hl
    00000729 CDr00r00         [17] 1960 	call	_V9_SetWriteAddress
    0000072C C1               [10] 1961 	pop	bc
    0000072D 21 00 00         [10] 1962 	ld	hl, #0x0000
    00000730 CDr00r00         [17] 1963 	call	_V9_Poke16_CurrentAddr
    00000733 0C               [ 4] 1964 	inc	c
                                   1965 ;./soccerlg.c:394: ERROR: no line number 394 in file ./soccerlg.c
    00000734 DD 34 FF         [23] 1966 	inc	-1 (ix)
    00000737 C3rFFr06         [10] 1967 	jp	00105$
    0000073A                       1968 00107$:
                                   1969 ;./soccerlg.c:398: ERROR: no line number 398 in file ./soccerlg.c
    0000073A DD F9            [10] 1970 	ld	sp, ix
    0000073C DD E1            [14] 1971 	pop	ix
    0000073E E1               [10] 1972 	pop	hl
    0000073F 33               [ 6] 1973 	inc	sp
    00000740 E9               [ 4] 1974 	jp	(hl)
                                   1975 ;./soccerlg.c:400: ERROR: no line number 400 in file ./soccerlg.c
                                   1976 ;	---------------------------------
                                   1977 ; Function V9_InterruptVBlank
                                   1978 ; ---------------------------------
    00000741                       1979 _V9_InterruptVBlank::
                                   1980 ;./soccerlg.c:402: ERROR: no line number 402 in file ./soccerlg.c
    00000741 3Ar08r00         [13] 1981 	ld	a, (_g_MatchStatus+0)
    00000744 D6 0F            [ 7] 1982 	sub	a, #0x0f
    00000746 20 05            [12] 1983 	jr	NZ, 00102$
                                   1984 ;./soccerlg.c:403: ERROR: no line number 403 in file ./soccerlg.c
    00000748 21r02r00         [10] 1985 	ld	hl, #_g_Timer
    0000074B 34               [11] 1986 	inc	(hl)
                                   1987 ;./soccerlg.c:404: ERROR: no line number 404 in file ./soccerlg.c
    0000074C C9               [10] 1988 	ret
    0000074D                       1989 00102$:
                                   1990 ;./soccerlg.c:408: ERROR: no line number 408 in file ./soccerlg.c
    0000074D FD 21r00r00      [14] 1991 	ld	iy, #_g_VSynch
    00000751 FD 36 00 01      [19] 1992 	ld	0 (iy), #0x01
                                   1993 ;./soccerlg.c:409: ERROR: no line number 409 in file ./soccerlg.c
    00000755 3Ar03r00         [13] 1994 	ld	a, (_g_FieldScrollingActionInProgress+0)
    00000758 3C               [ 4] 1995 	inc	a
    00000759 C8               [11] 1996 	ret	Z
                                   1997 ;./soccerlg.c:410: ERROR: no line number 410 in file ./soccerlg.c
    0000075A 11r00r00         [10] 1998 	ld	de, #_TickGameFieldScrolling
    0000075D 3E 02            [ 7] 1999 	ld	a, #0x02
                                   2000 ;./soccerlg.c:415: ERROR: no line number 415 in file ./soccerlg.c
    0000075F C3r00r00         [10] 2001 	jp	_Trampoline_VOID
                                   2002 ;./soccerlg.c:417: ERROR: no line number 417 in file ./soccerlg.c
                                   2003 ;	---------------------------------
                                   2004 ; Function InterruptHook
                                   2005 ; ---------------------------------
    00000762                       2006 _InterruptHook::
                                   2007 ;./soccerlg.c:429: ERROR: no line number 429 in file ./soccerlg.c
    00000762 DB 99            [11] 2008 	in	a, (0x99)
    00000764 DB 66            [11] 2009 	in	a, (0x66)
    00000766 D3 66            [11] 2010 	out	(0x66), a
    00000768 1F               [ 4] 2011 	rra
    00000769 DCr41r07         [17] 2012 	call	c, _V9_InterruptVBlank
                                   2013 ;./soccerlg.c:430: ERROR: no line number 430 in file ./soccerlg.c
    0000076C C9               [10] 2014 	ret
                                   2015 ;./soccerlg.c:436: ERROR: no line number 436 in file ./soccerlg.c
                                   2016 ;	---------------------------------
                                   2017 ; Function Math_Abs32
                                   2018 ; ---------------------------------
    0000076D                       2019 _Math_Abs32::
    0000076D 4D               [ 4] 2020 	ld	c, l
    0000076E 44               [ 4] 2021 	ld	b, h
    0000076F CB 78            [ 8] 2022 	bit	7, b
    00000771 28 0D            [12] 2023 	jr	Z, 00103$
    00000773 21 00 00         [10] 2024 	ld	hl, #0x0000
    00000776 BF               [ 4] 2025 	cp	a, a
    00000777 ED 52            [15] 2026 	sbc	hl, de
    00000779 EB               [ 4] 2027 	ex	de, hl
    0000077A 21 00 00         [10] 2028 	ld	hl, #0x0000
    0000077D ED 42            [15] 2029 	sbc	hl, bc
    0000077F C9               [10] 2030 	ret
    00000780                       2031 00103$:
    00000780 69               [ 4] 2032 	ld	l, c
                                   2033 ;	spillPairReg hl
                                   2034 ;	spillPairReg hl
    00000781 60               [ 4] 2035 	ld	h, b
                                   2036 ;	spillPairReg hl
                                   2037 ;	spillPairReg hl
    00000782 C9               [10] 2038 	ret
                                   2039 ;./soccerlg.c:438: ERROR: no line number 438 in file ./soccerlg.c
                                   2040 ;	---------------------------------
                                   2041 ; Function GetTeamStats
                                   2042 ; ---------------------------------
    00000783                       2043 _GetTeamStats::
    00000783 4F               [ 4] 2044 	ld	c, a
                                   2045 ;./soccerlg.c:439: ERROR: no line number 439 in file ./soccerlg.c
    00000784 3E 05            [ 7] 2046 	ld	a, #0x05
    00000786 91               [ 4] 2047 	sub	a, c
    00000787 30 04            [12] 2048 	jr	NC, 00102$
    00000789 11r19r00         [10] 2049 	ld	de, #_g_TeamStats
    0000078C C9               [10] 2050 	ret
    0000078D                       2051 00102$:
                                   2052 ;./soccerlg.c:440: ERROR: no line number 440 in file ./soccerlg.c
    0000078D 06 00            [ 7] 2053 	ld	b, #0x00
    0000078F 69               [ 4] 2054 	ld	l, c
    00000790 60               [ 4] 2055 	ld	h, b
    00000791 29               [11] 2056 	add	hl, hl
    00000792 29               [11] 2057 	add	hl, hl
    00000793 09               [11] 2058 	add	hl, bc
    00000794 11r19r00         [10] 2059 	ld	de, #_g_TeamStats
    00000797 19               [11] 2060 	add	hl, de
    00000798 EB               [ 4] 2061 	ex	de, hl
                                   2062 ;./soccerlg.c:441: ERROR: no line number 441 in file ./soccerlg.c
    00000799 C9               [10] 2063 	ret
                                   2064 ;./soccerlg.c:446: ERROR: no line number 446 in file ./soccerlg.c
                                   2065 ;	---------------------------------
                                   2066 ; Function main
                                   2067 ; ---------------------------------
    0000079A                       2068 _main::
                                   2069 ;./soccerlg.c:447: ERROR: no line number 447 in file ./soccerlg.c
    0000079A 01r62r07         [10] 2070 	ld	bc, #_InterruptHook
                                   2071 ;E:/Dropbox/FAUSTO/SVILUPPI/MSX/CODE/C/MSXgl/engine/src/bios_hook.h:37: ERROR: no line number 37 in file E:/Dropbox/FAUSTO/SVILUPPI/MSX/CODE/C/MSXgl/engine/src/bios_hook.h
    0000079D 21 9A FD         [10] 2072 	ld	hl, #0xfd9a
    000007A0 36 C3            [10] 2073 	ld	(hl), #0xc3
                                   2074 ;E:/Dropbox/FAUSTO/SVILUPPI/MSX/CODE/C/MSXgl/engine/src/bios_hook.h:38: ERROR: no line number 38 in file E:/Dropbox/FAUSTO/SVILUPPI/MSX/CODE/C/MSXgl/engine/src/bios_hook.h
    000007A2 ED 43 9B FD      [20] 2075 	ld	(0xfd9b), bc
                                   2076 ;E:/Dropbox/FAUSTO/SVILUPPI/MSX/CODE/C/MSXgl/engine/src/bios_hook.h:62: ERROR: no line number 62 in file E:/Dropbox/FAUSTO/SVILUPPI/MSX/CODE/C/MSXgl/engine/src/bios_hook.h
    000007A6 2E 9F            [ 7] 2077 	ld	l, #0x9f
    000007A8 36 C9            [10] 2078 	ld	(hl), #0xc9
                                   2079 ;./soccerlg.c:449: ERROR: no line number 449 in file ./soccerlg.c
    000007AA 11r00r00         [10] 2080 	ld	de, #_MainSub
    000007AD 3E 02            [ 7] 2081 	ld	a, #0x02
                                   2082 ;./soccerlg.c:450: ERROR: no line number 450 in file ./soccerlg.c
    000007AF C3r00r00         [10] 2083 	jp	_Trampoline_VOID
                                   2084 	.area _CODE
                                   2085 	.area _INITIALIZER
    00000000                       2086 __xinit__g_History1:
    00000000 50 4C 59 3A 20 20 20  2087 	.ascii "PLY:      "
             20 20 20
    0000000A 00                    2088 	.db 0x00
    0000000B 00                    2089 	.db 0x00
    0000000C 00                    2090 	.db 0x00
    0000000D 00                    2091 	.db 0x00
    0000000E 00                    2092 	.db 0x00
    0000000F 00                    2093 	.db 0x00
    00000010 00                    2094 	.db 0x00
    00000011 00                    2095 	.db 0x00
    00000012 00                    2096 	.db 0x00
    00000013 00                    2097 	.db 0x00
    00000014                       2098 __xinit__g_History2:
    00000014 43 50 55 3A 20 20 20  2099 	.ascii "CPU:      "
             20 20 20
    0000001E 00                    2100 	.db 0x00
    0000001F 00                    2101 	.db 0x00
    00000020 00                    2102 	.db 0x00
    00000021 00                    2103 	.db 0x00
    00000022 00                    2104 	.db 0x00
    00000023 00                    2105 	.db 0x00
    00000024 00                    2106 	.db 0x00
    00000025 00                    2107 	.db 0x00
    00000026 00                    2108 	.db 0x00
    00000027 00                    2109 	.db 0x00
    00000028                       2110 __xinit__g_PcmStartPlaying:
    00000028 00                    2111 	.db #0x00	; 0
    00000029                       2112 __xinit__g_PmcSoundPlaying:
    00000029 FF                    2113 	.db #0xff	; 255
    0000002A                       2114 __xinit__g_CornerKickTargetId:
    0000002A FF                    2115 	.db #0xff	; 255
    0000002B                       2116 __xinit__g_CornerKickSide:
    0000002B 00                    2117 	.db #0x00	; 0
    0000002C                       2118 __xinit__g_ActionCooldown:
    0000002C 00                    2119 	.db #0x00	; 0
    0000002D                       2120 __xinit__g_ShootCooldown:
    0000002D 00                    2121 	.db #0x00	; 0
    0000002E                       2122 __xinit__g_GameWith2Players:
    0000002E 00                    2123 	.db #0x00	; 0
    0000002F                       2124 __xinit__g_GkIsGroundKick:
    0000002F 00                    2125 	.db #0x00	; 0
    00000030                       2126 __xinit__g_GkAnimPlayerId:
    00000030 FF                    2127 	.db #0xff	; 255
    00000031                       2128 __xinit__g_GkRecoilY:
    00000031 00                    2129 	.db #0x00	;  0
    00000032                       2130 __xinit__g_GoalKickSide:
    00000032 00                    2131 	.db #0x00	; 0
    00000033                       2132 __xinit__g_GkAnimTimer:
    00000033 00                    2133 	.db #0x00	; 0
    00000034                       2134 __xinit__g_ThrowInPlayerId:
    00000034 FF                    2135 	.db #0xff	; 255
    00000035                       2136 __xinit__g_GoalScorerId:
    00000035 FF                    2137 	.db #0xff	; 255
    00000036                       2138 __xinit__g_ponPonPatternIndex:
    00000036 00                    2139 	.db #0x00	; 0
    00000037                       2140 __xinit__g_PonPonGrilsPoseCounter:
    00000037 00                    2141 	.db #0x00	; 0
    00000038                       2142 __xinit__g_peopleState:
    00000038 00                    2143 	.db #0x00	; 0
    00000039                       2144 __xinit__g_ponPonGirlsInitailized:
    00000039 00                    2145 	.db #0x00	; 0
    0000003A                       2146 __xinit__g_SoundRequest:
    0000003A FF                    2147 	.db #0xff	; 255
    0000003B                       2148 __xinit__g_ShotCursorX:
    0000003B 78 00                 2149 	.dw #0x0078
    0000003D                       2150 __xinit__g_ShotCursorDir:
    0000003D 02                    2151 	.db #0x02	;  2
                                   2152 	.area _CABS (ABS)
