                                      1 ;--------------------------------------------------------
                                      2 ; File Created by SDCC : free open source ANSI-C Compiler
                                      3 ; Version 4.2.0 #13081 (MINGW64)
                                      4 ;--------------------------------------------------------
                                      5 	.module soccerlg_s3_b1
                                      6 	.optsdcc -mz80
                                      7 	
                                      8 ;--------------------------------------------------------
                                      9 ; Public variables in this module
                                     10 ;--------------------------------------------------------
                                     11 	.globl _PutBallSprite
                                     12 	.globl _SetPlayerTarget
                                     13 	.globl _V9990_ClearTextFromLayerA
                                     14 	.globl _Trampoline_VOID_P1
                                     15 	.globl _V9990_LoadP1LayerA
                                     16 	.globl _V9_SetPaletteEntry
                                     17 	.globl _V9_SetScreenMode
                                     18 	.globl _V9_Poke16_CurrentAddr
                                     19 	.globl _V9_WriteVRAM_CurrentAddr
                                     20 	.globl _V9_SetWriteAddress
                                     21 	.globl _V9_GetRegister
                                     22 	.globl _V9_SetRegister
                                     23 	.globl _g_SLTSL
                                     24 	.globl _g_GRPACY
                                     25 	.globl _g_GRPACX
                                     26 	.globl _g_LOGOPR
                                     27 	.globl _g_CMASK
                                     28 	.globl _g_CLOC
                                     29 	.globl _g_FNKSTR
                                     30 	.globl _g_ATRBYT
                                     31 	.globl _g_BDRCLR
                                     32 	.globl _g_BAKCLR
                                     33 	.globl _g_FORCLR
                                     34 	.globl _g_CSRX
                                     35 	.globl _g_CSRY
                                     36 	.globl _g_CLIKSW
                                     37 	.globl _g_MLTPAT
                                     38 	.globl _g_MLTATR
                                     39 	.globl _g_MLTCGP
                                     40 	.globl _g_MLTCOL
                                     41 	.globl _g_MLTNAM
                                     42 	.globl _g_GRPPAT
                                     43 	.globl _g_GRPATR
                                     44 	.globl _g_GRPCGP
                                     45 	.globl _g_GRPCOL
                                     46 	.globl _g_GRPNAM
                                     47 	.globl _g_T32PAT
                                     48 	.globl _g_T32ATR
                                     49 	.globl _g_T32CGP
                                     50 	.globl _g_T32COL
                                     51 	.globl _g_T32NAM
                                     52 	.globl _g_TXTPAT
                                     53 	.globl _g_TXTATR
                                     54 	.globl _g_TXTCGP
                                     55 	.globl _g_TXTCOL
                                     56 	.globl _g_TXTNAM
                                     57 	.globl _g_CLMLST
                                     58 	.globl _g_CRTCNT
                                     59 	.globl _g_LINLEN
                                     60 	.globl _g_LINL32
                                     61 	.globl _g_LINL40
                                     62 	.globl _g_Data_Palette_LayerB_Standard
                                     63 	.globl _g_Data_Palette_LayerA_Standard
                                     64 	.globl _g_PonPonGirlsPos
                                     65 	.globl _g_GirlPatterns
                                     66 	.globl _g_BDOS
                                     67 	.globl _g_MASTER
                                     68 	.globl _g_RAMAD3
                                     69 	.globl _g_RAMAD2
                                     70 	.globl _g_RAMAD1
                                     71 	.globl _g_RAMAD0
                                     72 	.globl _g_BREAKV
                                     73 	.globl _g_DISKVE
                                     74 	.globl _g_KANJTABLE
                                     75 	.globl _g_STRSRC
                                     76 	.globl _g_SUBRID
                                     77 	.globl _g_CHAR_16
                                     78 	.globl _g_MSXMID
                                     79 	.globl _g_MSXVER
                                     80 	.globl _g_ROMVersion
                                     81 	.globl _g_BASRVN
                                     82 	.globl _g_VDP_DW
                                     83 	.globl _g_VDP_DR
                                     84 	.globl _g_CGTABL
                                     85 	.globl _g_SVFFFD
                                     86 	.globl _g_RG27SAV
                                     87 	.globl _g_RG26SAV
                                     88 	.globl _g_RG25SAV
                                     89 	.globl _g_SVFFF8
                                     90 	.globl _g_MINROM
                                     91 	.globl _g_RG23SAV
                                     92 	.globl _g_RG22SAV
                                     93 	.globl _g_RG21SAV
                                     94 	.globl _g_RG20SAV
                                     95 	.globl _g_RG19SAV
                                     96 	.globl _g_RG18SAV
                                     97 	.globl _g_RG17SAV
                                     98 	.globl _g_RG16SAV
                                     99 	.globl _g_RG15SAV
                                    100 	.globl _g_RG14SAV
                                    101 	.globl _g_RG13SAV
                                    102 	.globl _g_RG12SAV
                                    103 	.globl _g_RG11SAV
                                    104 	.globl _g_RG10SAV
                                    105 	.globl _g_RG09SAV
                                    106 	.globl _g_RG08SAV
                                    107 	.globl _g_PROCNM
                                    108 	.globl _g_SLTWRK
                                    109 	.globl _g_SLTATR
                                    110 	.globl _g_SLTTBL
                                    111 	.globl _g_EXPTBL
                                    112 	.globl _g_MNROM
                                    113 	.globl _g_DRWANG
                                    114 	.globl _g_DRWSCL
                                    115 	.globl _g_DRWFLG
                                    116 	.globl _g_GYPOS
                                    117 	.globl _g_GXPOS
                                    118 	.globl _g_BRDATR
                                    119 	.globl _g_CASPRV
                                    120 	.globl _g_OLDSCR
                                    121 	.globl _g_SCRMOD
                                    122 	.globl _g_FLBMEM
                                    123 	.globl _g_KANAMD
                                    124 	.globl _g_KANAST
                                    125 	.globl _g_CAPST
                                    126 	.globl _g_CSTYLE
                                    127 	.globl _g_CSRSW
                                    128 	.globl _g_INSFLG
                                    129 	.globl _g_ESCCNT
                                    130 	.globl _g_GRPHED
                                    131 	.globl _g_WINWID
                                    132 	.globl _g_LOWLIM
                                    133 	.globl _g_INTCNT
                                    134 	.globl _g_INTVAL
                                    135 	.globl _g_JIFFY
                                    136 	.globl _g_PADX
                                    137 	.globl _g_PADY
                                    138 	.globl _g_INTFLG
                                    139 	.globl _g_RTYCNT
                                    140 	.globl _g_TRPTBL
                                    141 	.globl _g_HIMEM
                                    142 	.globl _g_BOTTOM
                                    143 	.globl _g_PATWRK
                                    144 	.globl _g_LINWRK
                                    145 	.globl _g_KEYBUF
                                    146 	.globl _g_NEWKEY
                                    147 	.globl _g_OLDKEY
                                    148 	.globl _g_CLIKFL
                                    149 	.globl _g_ONGSBF
                                    150 	.globl _g_FNKFLG
                                    151 	.globl _g_FNKSWI
                                    152 	.globl _g_CODSAV
                                    153 	.globl _g_FSTPOS
                                    154 	.globl _g_LINTTB
                                    155 	.globl _g_BASROM
                                    156 	.globl _g_ENSTOP
                                    157 	.globl _g_VCBC
                                    158 	.globl _g_VCBB
                                    159 	.globl _g_VCBA
                                    160 	.globl _g_PLYCNT
                                    161 	.globl _g_MUSICF
                                    162 	.globl _g_QUEUEN
                                    163 	.globl _g_MCLPTR
                                    164 	.globl _g_MCLLEN
                                    165 	.globl _g_SAVVOL
                                    166 	.globl _g_VOICEN
                                    167 	.globl _g_SAVSP
                                    168 	.globl _g_PRSCNT
                                    169 	.globl _g_LSTMOD
                                    170 	.globl _g_LSTCOM
                                    171 	.globl _g_COMMSK
                                    172 	.globl _g_ESTBLS
                                    173 	.globl _g_FLAGS
                                    174 	.globl _g_ERRORS
                                    175 	.globl _g_DATCNT
                                    176 	.globl _g_DEVNUM
                                    177 	.globl _g_OLDINT
                                    178 	.globl _g_OLDSTT
                                    179 	.globl _g_MEXBIh
                                    180 	.globl _g_RSIQLN
                                    181 	.globl _g_RSFCB
                                    182 	.globl _g_TOCNT
                                    183 	.globl _g_RSTMP
                                    184 	.globl _g_YSAVE
                                    185 	.globl _g_XSAVE
                                    186 	.globl _g_NORUSE
                                    187 	.globl _g_MODE
                                    188 	.globl _g_ROMA
                                    189 	.globl _g_CHRCNT
                                    190 	.globl _g_EXBRSA
                                    191 	.globl _g_AVCSAV
                                    192 	.globl _g_ACPAGE
                                    193 	.globl _g_DPPAGE
                                    194 	.globl _g_RS2IQ
                                    195 	.globl _g_VOICCQ
                                    196 	.globl _g_VOICBQ
                                    197 	.globl _g_VOICAQ
                                    198 	.globl _g_QUEBAK
                                    199 	.globl _g_QUETAB
                                    200 	.globl _g_ASPCT2
                                    201 	.globl _g_ASPCT1
                                    202 	.globl _g_HEADER
                                    203 	.globl _g_HIGH
                                    204 	.globl _g_LOW
                                    205 	.globl _g_CS240
                                    206 	.globl _g_CS120
                                    207 	.globl _g_GETPNT
                                    208 	.globl _g_PUTPNT
                                    209 	.globl _g_REPCNT
                                    210 	.globl _g_SCNCNT
                                    211 	.globl _g_FRCNEW
                                    212 	.globl _g_QUEUES
                                    213 	.globl _g_MINUPD
                                    214 	.globl _g_MAXUPD
                                    215 	.globl _g_TRGFLG
                                    216 	.globl _g_STATFL
                                    217 	.globl _g_RG7SAV
                                    218 	.globl _g_RG6SAV
                                    219 	.globl _g_RG5SAV
                                    220 	.globl _g_RG4SAV
                                    221 	.globl _g_RG3SAV
                                    222 	.globl _g_RG2SAV
                                    223 	.globl _g_RG1SAV
                                    224 	.globl _g_RG0SAV
                                    225 	.globl _g_CNSDFG
                                    226 	.globl _g_USRTAB
                                    227 	.globl _g_CLPRIM
                                    228 	.globl _g_WRPRIM
                                    229 	.globl _g_RDPRIM
                                    230 	.globl _V9990_InitPalette
                                    231 	.globl _V9990_InitMenuLayers
                                    232 	.globl _InitPonPonGirls
                                    233 	.globl _TickGoalCelebration
                                    234 	.globl _TickPonPonGirlsAnimation
                                    235 	.globl _PeopleMoving
                                    236 	.globl _PutPonPonGirlSprite
                                    237 ;--------------------------------------------------------
                                    238 ; special function registers
                                    239 ;--------------------------------------------------------
                         000000A8   240 _g_PortPrimarySlot	=	0x00a8
                         000000A9   241 _g_PortReadKeyboard	=	0x00a9
                         000000AA   242 _g_PortAccessKeyboard	=	0x00aa
                         000000AB   243 _g_PortControl	=	0x00ab
                         00000098   244 _g_VDP_DataPort	=	0x0098
                         00000099   245 _g_VDP_RegPort	=	0x0099
                         00000099   246 _g_VDP_AddrPort	=	0x0099
                         00000099   247 _g_VDP_StatPort	=	0x0099
                         000000A0   248 _g_PSG_RegPort	=	0x00a0
                         000000A1   249 _g_PSG_DataPort	=	0x00a1
                         000000A2   250 _g_PSG_StatPort	=	0x00a2
                         00000010   251 _g_PSG_Ext_RegPort	=	0x0010
                         00000011   252 _g_PSG_Ext_DataPort	=	0x0011
                         00000012   253 _g_PSG_Ext_StatPort	=	0x0012
                         0000007C   254 _g_MSXMusic_IndexPort	=	0x007c
                         0000007D   255 _g_MSXMusic_DataPort	=	0x007d
                         000000C0   256 _g_MSXAudio_IndexPort	=	0x00c0
                         000000C1   257 _g_MSXAudio_DataPort	=	0x00c1
                         000000C2   258 _g_MSXAudio_IndexPort2	=	0x00c2
                         000000C3   259 _g_MSXAudio_DataPort2	=	0x00c3
                         000000B4   260 _g_RTC_AddrPort	=	0x00b4
                         000000B5   261 _g_RTC_DataPort	=	0x00b5
                         00000060   262 _g_V9_VRAMPort	=	0x0060
                         00000061   263 _g_V9_PalettePort	=	0x0061
                         00000062   264 _g_V9_CmdDataPort	=	0x0062
                         00000063   265 _g_V9_RegDataPort	=	0x0063
                         00000064   266 _g_V9_RegSelectPort	=	0x0064
                         00000065   267 _g_V9_SatusPort	=	0x0065
                         00000066   268 _g_V9_IntFlagPort	=	0x0066
                         00000067   269 _g_V9_SysCtrlPort	=	0x0067
                         00000068   270 _g_V9_KanjiAddrLPort	=	0x0068
                         00000069   271 _g_V9_KanjiAddrHPort	=	0x0069
                         00000069   272 _g_V9_KanjiDataPort	=	0x0069
                         0000006A   273 _g_V9_Kanji2AddrLPort	=	0x006a
                         0000006B   274 _g_V9_Kanji2AddrHPort	=	0x006b
                         0000006B   275 _g_V9_Kanji2DataPort	=	0x006b
                         0000006F   276 _g_V9_OutputCtrPort	=	0x006f
                                    277 ;--------------------------------------------------------
                                    278 ; ram data
                                    279 ;--------------------------------------------------------
                                    280 	.area _DATA
                         0000F3AE   281 _g_LINL40	=	0xf3ae
                         0000F3AF   282 _g_LINL32	=	0xf3af
                         0000F3B0   283 _g_LINLEN	=	0xf3b0
                         0000F3B1   284 _g_CRTCNT	=	0xf3b1
                         0000F3B2   285 _g_CLMLST	=	0xf3b2
                         0000F3B3   286 _g_TXTNAM	=	0xf3b3
                         0000F3B5   287 _g_TXTCOL	=	0xf3b5
                         0000F3B7   288 _g_TXTCGP	=	0xf3b7
                         0000F3B9   289 _g_TXTATR	=	0xf3b9
                         0000F3BB   290 _g_TXTPAT	=	0xf3bb
                         0000F3BD   291 _g_T32NAM	=	0xf3bd
                         0000F3BF   292 _g_T32COL	=	0xf3bf
                         0000F3C1   293 _g_T32CGP	=	0xf3c1
                         0000F3C3   294 _g_T32ATR	=	0xf3c3
                         0000F3C5   295 _g_T32PAT	=	0xf3c5
                         0000F3C7   296 _g_GRPNAM	=	0xf3c7
                         0000F3C9   297 _g_GRPCOL	=	0xf3c9
                         0000F3CB   298 _g_GRPCGP	=	0xf3cb
                         0000F3CD   299 _g_GRPATR	=	0xf3cd
                         0000F3CF   300 _g_GRPPAT	=	0xf3cf
                         0000F3D1   301 _g_MLTNAM	=	0xf3d1
                         0000F3D3   302 _g_MLTCOL	=	0xf3d3
                         0000F3D5   303 _g_MLTCGP	=	0xf3d5
                         0000F3D7   304 _g_MLTATR	=	0xf3d7
                         0000F3D9   305 _g_MLTPAT	=	0xf3d9
                         0000F3DB   306 _g_CLIKSW	=	0xf3db
                         0000F3DC   307 _g_CSRY	=	0xf3dc
                         0000F3DD   308 _g_CSRX	=	0xf3dd
                         0000F3E9   309 _g_FORCLR	=	0xf3e9
                         0000F3EA   310 _g_BAKCLR	=	0xf3ea
                         0000F3EB   311 _g_BDRCLR	=	0xf3eb
                         0000F3F2   312 _g_ATRBYT	=	0xf3f2
                         0000F87F   313 _g_FNKSTR	=	0xf87f
                         0000F92A   314 _g_CLOC	=	0xf92a
                         0000F92C   315 _g_CMASK	=	0xf92c
                         0000FB02   316 _g_LOGOPR	=	0xfb02
                         0000FCB7   317 _g_GRPACX	=	0xfcb7
                         0000FCB9   318 _g_GRPACY	=	0xfcb9
                         0000FFFF   319 _g_SLTSL	=	0xffff
    00000000                        320 _PutBallSprite_s_StopCooldown_65538_1187:
    00000000                        321 	.ds 1
                                    322 ;--------------------------------------------------------
                                    323 ; ram data
                                    324 ;--------------------------------------------------------
                                    325 	.area _INITIALIZED
                                    326 ;--------------------------------------------------------
                                    327 ; absolute external ram data
                                    328 ;--------------------------------------------------------
                                    329 	.area _DABS (ABS)
                                    330 ;--------------------------------------------------------
                                    331 ; global & static initialisations
                                    332 ;--------------------------------------------------------
                                    333 	.area _HOME
                                    334 	.area _GSINIT
                                    335 	.area _GSFINAL
                                    336 	.area _GSINIT
                                    337 ;E:\Dropbox\FAUSTO\SVILUPPI\MSX\CODE\C\MSXgl\projects\soccerlg/soccerlg_s3_b1.c:223: static u8 s_StopCooldown = 0;
    00000000 FD 21r00r00      [14]  338 	ld	iy, #_PutBallSprite_s_StopCooldown_65538_1187
    00000004 FD 36 00 00      [19]  339 	ld	0 (iy), #0x00
                                    340 ;--------------------------------------------------------
                                    341 ; Home
                                    342 ;--------------------------------------------------------
                                    343 	.area _HOME
                                    344 	.area _HOME
                                    345 ;--------------------------------------------------------
                                    346 ; code
                                    347 ;--------------------------------------------------------
                                    348 	.area _SEG3
                                    349 ;E:\Dropbox\FAUSTO\SVILUPPI\MSX\CODE\C\MSXgl\projects\soccerlg/soccerlg_s3_b1.c:74: void V9990_InitPalette(){
                                    350 ;	---------------------------------
                                    351 ; Function V9990_InitPalette
                                    352 ; ---------------------------------
    00000000                        353 _V9990_InitPalette::
                                    354 ;E:\Dropbox\FAUSTO\SVILUPPI\MSX\CODE\C\MSXgl\projects\soccerlg/soccerlg_s3_b1.c:75: V9_SetPalette(0, 16, g_Data_Palette_LayerA_Standard);
    00000000 21r74r00         [10]  355 	ld	hl, #_g_Data_Palette_LayerA_Standard+0
                                    356 ;E:\Dropbox\FAUSTO\SVILUPPI\MSX\CODE\C\MSXgl\projects\soccerlg/soccerlg_s3_b1.c:1028: ERROR: no line number 1028 in file E:\Dropbox\FAUSTO\SVILUPPI\MSX\CODE\C\MSXgl\projects\soccerlg/soccerlg_s3_b1.c
    00000003 01 00 00         [10]  357 	ld	bc, #0x0
    00000006                        358 00107$:
    00000006 78               [ 4]  359 	ld	a, b
    00000007 D6 10            [ 7]  360 	sub	a, #0x10
    00000009 30 1F            [12]  361 	jr	NC, 00102$
    0000000B FD E5            [15]  362 	push	iy
    0000000D E3               [19]  363 	ex	(sp), hl
    0000000E 69               [ 4]  364 	ld	l, c
                                    365 ;	spillPairReg hl
                                    366 ;	spillPairReg hl
    0000000F E3               [19]  367 	ex	(sp), hl
    00000010 FD E1            [14]  368 	pop	iy
    00000012 0C               [ 4]  369 	inc	c
    00000013 E5               [11]  370 	push	hl
    00000014 C5               [11]  371 	push	bc
    00000015 5D               [ 4]  372 	ld	e, l
    00000016 54               [ 4]  373 	ld	d, h
    00000017 FD E5            [15]  374 	push	iy
    00000019 E3               [19]  375 	ex	(sp), hl
    0000001A 7D               [ 4]  376 	ld	a, l
    0000001B E3               [19]  377 	ex	(sp), hl
    0000001C FD E1            [14]  378 	pop	iy
    0000001E CDr00r00         [17]  379 	call	_V9_SetPaletteEntry
    00000021 C1               [10]  380 	pop	bc
    00000022 E1               [10]  381 	pop	hl
    00000023 23               [ 6]  382 	inc	hl
    00000024 23               [ 6]  383 	inc	hl
    00000025 23               [ 6]  384 	inc	hl
    00000026 04               [ 4]  385 	inc	b
    00000027 C3r06r00         [10]  386 	jp	00107$
                                    387 ;E:\Dropbox\FAUSTO\SVILUPPI\MSX\CODE\C\MSXgl\projects\soccerlg/soccerlg_s3_b1.c:75: V9_SetPalette(0, 16, g_Data_Palette_LayerA_Standard);
    0000002A                        388 00102$:
                                    389 ;E:\Dropbox\FAUSTO\SVILUPPI\MSX\CODE\C\MSXgl\projects\soccerlg/soccerlg_s3_b1.c:76: V9_SetPalette(16, 16, g_Data_Palette_LayerB_Standard);
    0000002A 21rA4r00         [10]  390 	ld	hl, #_g_Data_Palette_LayerB_Standard+0
                                    391 ;E:\Dropbox\FAUSTO\SVILUPPI\MSX\CODE\C\MSXgl\projects\soccerlg/soccerlg_s3_b1.c:1028: ERROR: no line number 1028 in file E:\Dropbox\FAUSTO\SVILUPPI\MSX\CODE\C\MSXgl\projects\soccerlg/soccerlg_s3_b1.c
    0000002D 01 10 00         [10]  392 	ld	bc, #0x10
    00000030                        393 00110$:
    00000030 78               [ 4]  394 	ld	a, b
    00000031 D6 10            [ 7]  395 	sub	a, #0x10
    00000033 30 1F            [12]  396 	jr	NC, 00104$
    00000035 FD E5            [15]  397 	push	iy
    00000037 E3               [19]  398 	ex	(sp), hl
    00000038 69               [ 4]  399 	ld	l, c
                                    400 ;	spillPairReg hl
                                    401 ;	spillPairReg hl
    00000039 E3               [19]  402 	ex	(sp), hl
    0000003A FD E1            [14]  403 	pop	iy
    0000003C 0C               [ 4]  404 	inc	c
    0000003D E5               [11]  405 	push	hl
    0000003E C5               [11]  406 	push	bc
    0000003F 5D               [ 4]  407 	ld	e, l
    00000040 54               [ 4]  408 	ld	d, h
    00000041 FD E5            [15]  409 	push	iy
    00000043 E3               [19]  410 	ex	(sp), hl
    00000044 7D               [ 4]  411 	ld	a, l
    00000045 E3               [19]  412 	ex	(sp), hl
    00000046 FD E1            [14]  413 	pop	iy
    00000048 CDr00r00         [17]  414 	call	_V9_SetPaletteEntry
    0000004B C1               [10]  415 	pop	bc
    0000004C E1               [10]  416 	pop	hl
    0000004D 23               [ 6]  417 	inc	hl
    0000004E 23               [ 6]  418 	inc	hl
    0000004F 23               [ 6]  419 	inc	hl
    00000050 04               [ 4]  420 	inc	b
    00000051 C3r30r00         [10]  421 	jp	00110$
                                    422 ;E:\Dropbox\FAUSTO\SVILUPPI\MSX\CODE\C\MSXgl\projects\soccerlg/soccerlg_s3_b1.c:76: V9_SetPalette(16, 16, g_Data_Palette_LayerB_Standard);
    00000054                        423 00104$:
                                    424 ;E:/Dropbox/FAUSTO/SVILUPPI/MSX/CODE/C/MSXgl/engine/src/v9990.h:1047: inline void V9_SelectPaletteP1(u8 a, u8 b) { V9_SetRegister(13, ((b & 0x3) << 2) + (a & 0x3)); }
    00000054 3E 01            [ 7]  425 	ld	a, #0x01
    00000056 E6 03            [ 7]  426 	and	a, #0x03
    00000058 87               [ 4]  427 	add	a, a
    00000059 87               [ 4]  428 	add	a, a
    0000005A 4F               [ 4]  429 	ld	c, a
    0000005B AF               [ 4]  430 	xor	a, a
    0000005C E6 03            [ 7]  431 	and	a, #0x03
    0000005E 81               [ 4]  432 	add	a, c
    0000005F 6F               [ 4]  433 	ld	l, a
                                    434 ;	spillPairReg hl
                                    435 ;	spillPairReg hl
    00000060 3E 0D            [ 7]  436 	ld	a, #0x0d
                                    437 ;E:\Dropbox\FAUSTO\SVILUPPI\MSX\CODE\C\MSXgl\projects\soccerlg/soccerlg_s3_b1.c:77: V9_SelectPaletteP1(0,1);
                                    438 ;E:\Dropbox\FAUSTO\SVILUPPI\MSX\CODE\C\MSXgl\projects\soccerlg/soccerlg_s3_b1.c:78: }
    00000062 C3r00r00         [10]  439 	jp	_V9_SetRegister
                         0000F380   440 _g_RDPRIM	=	0xf380
                         0000F385   441 _g_WRPRIM	=	0xf385
                         0000F38C   442 _g_CLPRIM	=	0xf38c
                         0000F39A   443 _g_USRTAB	=	0xf39a
                         0000F3DE   444 _g_CNSDFG	=	0xf3de
                         0000F3DF   445 _g_RG0SAV	=	0xf3df
                         0000F3E0   446 _g_RG1SAV	=	0xf3e0
                         0000F3E1   447 _g_RG2SAV	=	0xf3e1
                         0000F3E2   448 _g_RG3SAV	=	0xf3e2
                         0000F3E3   449 _g_RG4SAV	=	0xf3e3
                         0000F3E4   450 _g_RG5SAV	=	0xf3e4
                         0000F3E5   451 _g_RG6SAV	=	0xf3e5
                         0000F3E6   452 _g_RG7SAV	=	0xf3e6
                         0000F3E7   453 _g_STATFL	=	0xf3e7
                         0000F3E8   454 _g_TRGFLG	=	0xf3e8
                         0000F3EC   455 _g_MAXUPD	=	0xf3ec
                         0000F3EF   456 _g_MINUPD	=	0xf3ef
                         0000F3F3   457 _g_QUEUES	=	0xf3f3
                         0000F3F5   458 _g_FRCNEW	=	0xf3f5
                         0000F3F6   459 _g_SCNCNT	=	0xf3f6
                         0000F3F7   460 _g_REPCNT	=	0xf3f7
                         0000F3F8   461 _g_PUTPNT	=	0xf3f8
                         0000F3FA   462 _g_GETPNT	=	0xf3fa
                         0000F3FC   463 _g_CS120	=	0xf3fc
                         0000F401   464 _g_CS240	=	0xf401
                         0000F406   465 _g_LOW	=	0xf406
                         0000F408   466 _g_HIGH	=	0xf408
                         0000F40A   467 _g_HEADER	=	0xf40a
                         0000F40B   468 _g_ASPCT1	=	0xf40b
                         0000F40D   469 _g_ASPCT2	=	0xf40d
                         0000F959   470 _g_QUETAB	=	0xf959
                         0000F971   471 _g_QUEBAK	=	0xf971
                         0000F975   472 _g_VOICAQ	=	0xf975
                         0000F9F5   473 _g_VOICBQ	=	0xf9f5
                         0000FA75   474 _g_VOICCQ	=	0xfa75
                         0000FAF5   475 _g_RS2IQ	=	0xfaf5
                         0000FAF5   476 _g_DPPAGE	=	0xfaf5
                         0000FAF6   477 _g_ACPAGE	=	0xfaf6
                         0000FAF7   478 _g_AVCSAV	=	0xfaf7
                         0000FAF8   479 _g_EXBRSA	=	0xfaf8
                         0000FAF9   480 _g_CHRCNT	=	0xfaf9
                         0000FAFA   481 _g_ROMA	=	0xfafa
                         0000FAFC   482 _g_MODE	=	0xfafc
                         0000FAFD   483 _g_NORUSE	=	0xfafd
                         0000FAFE   484 _g_XSAVE	=	0xfafe
                         0000FB00   485 _g_YSAVE	=	0xfb00
                         0000FB03   486 _g_RSTMP	=	0xfb03
                         0000FB03   487 _g_TOCNT	=	0xfb03
                         0000FB04   488 _g_RSFCB	=	0xfb04
                         0000FB06   489 _g_RSIQLN	=	0xfb06
                         0000FB07   490 _g_MEXBIh	=	0xfb07
                         0000FB0C   491 _g_OLDSTT	=	0xfb0c
                         0000FB0C   492 _g_OLDINT	=	0xfb0c
                         0000FB16   493 _g_DEVNUM	=	0xfb16
                         0000FB17   494 _g_DATCNT	=	0xfb17
                         0000FB1A   495 _g_ERRORS	=	0xfb1a
                         0000FB1B   496 _g_FLAGS	=	0xfb1b
                         0000FB1C   497 _g_ESTBLS	=	0xfb1c
                         0000FB1D   498 _g_COMMSK	=	0xfb1d
                         0000FB1E   499 _g_LSTCOM	=	0xfb1e
                         0000FB1F   500 _g_LSTMOD	=	0xfb1f
                         0000FB35   501 _g_PRSCNT	=	0xfb35
                         0000FB36   502 _g_SAVSP	=	0xfb36
                         0000FB38   503 _g_VOICEN	=	0xfb38
                         0000FB39   504 _g_SAVVOL	=	0xfb39
                         0000FB3B   505 _g_MCLLEN	=	0xfb3b
                         0000FB3C   506 _g_MCLPTR	=	0xfb3c
                         0000FB3E   507 _g_QUEUEN	=	0xfb3e
                         0000FB3F   508 _g_MUSICF	=	0xfb3f
                         0000FB40   509 _g_PLYCNT	=	0xfb40
                         0000FB41   510 _g_VCBA	=	0xfb41
                         0000FB66   511 _g_VCBB	=	0xfb66
                         0000FB8B   512 _g_VCBC	=	0xfb8b
                         0000FBB0   513 _g_ENSTOP	=	0xfbb0
                         0000FBB1   514 _g_BASROM	=	0xfbb1
                         0000FBB2   515 _g_LINTTB	=	0xfbb2
                         0000FBCA   516 _g_FSTPOS	=	0xfbca
                         0000FBCC   517 _g_CODSAV	=	0xfbcc
                         0000FBCD   518 _g_FNKSWI	=	0xfbcd
                         0000FBCE   519 _g_FNKFLG	=	0xfbce
                         0000FBD8   520 _g_ONGSBF	=	0xfbd8
                         0000FBD9   521 _g_CLIKFL	=	0xfbd9
                         0000FBDA   522 _g_OLDKEY	=	0xfbda
                         0000FBE5   523 _g_NEWKEY	=	0xfbe5
                         0000FBF0   524 _g_KEYBUF	=	0xfbf0
                         0000FC18   525 _g_LINWRK	=	0xfc18
                         0000FC40   526 _g_PATWRK	=	0xfc40
                         0000FC48   527 _g_BOTTOM	=	0xfc48
                         0000FC4A   528 _g_HIMEM	=	0xfc4a
                         0000FC4C   529 _g_TRPTBL	=	0xfc4c
                         0000FC9A   530 _g_RTYCNT	=	0xfc9a
                         0000FC9B   531 _g_INTFLG	=	0xfc9b
                         0000FC9C   532 _g_PADY	=	0xfc9c
                         0000FC9D   533 _g_PADX	=	0xfc9d
                         0000FC9E   534 _g_JIFFY	=	0xfc9e
                         0000FCA0   535 _g_INTVAL	=	0xfca0
                         0000FCA2   536 _g_INTCNT	=	0xfca2
                         0000FCA4   537 _g_LOWLIM	=	0xfca4
                         0000FCA5   538 _g_WINWID	=	0xfca5
                         0000FCA6   539 _g_GRPHED	=	0xfca6
                         0000FCA7   540 _g_ESCCNT	=	0xfca7
                         0000FCA8   541 _g_INSFLG	=	0xfca8
                         0000FCA9   542 _g_CSRSW	=	0xfca9
                         0000FCAA   543 _g_CSTYLE	=	0xfcaa
                         0000FCAB   544 _g_CAPST	=	0xfcab
                         0000FCAC   545 _g_KANAST	=	0xfcac
                         0000FCAD   546 _g_KANAMD	=	0xfcad
                         0000FCAE   547 _g_FLBMEM	=	0xfcae
                         0000FCAF   548 _g_SCRMOD	=	0xfcaf
                         0000FCB0   549 _g_OLDSCR	=	0xfcb0
                         0000FCB1   550 _g_CASPRV	=	0xfcb1
                         0000FCB2   551 _g_BRDATR	=	0xfcb2
                         0000FCB3   552 _g_GXPOS	=	0xfcb3
                         0000FCB5   553 _g_GYPOS	=	0xfcb5
                         0000FCBB   554 _g_DRWFLG	=	0xfcbb
                         0000FCBC   555 _g_DRWSCL	=	0xfcbc
                         0000FCBD   556 _g_DRWANG	=	0xfcbd
                         0000FCC1   557 _g_MNROM	=	0xfcc1
                         0000FCC1   558 _g_EXPTBL	=	0xfcc1
                         0000FCC5   559 _g_SLTTBL	=	0xfcc5
                         0000FCC9   560 _g_SLTATR	=	0xfcc9
                         0000FD09   561 _g_SLTWRK	=	0xfd09
                         0000FD89   562 _g_PROCNM	=	0xfd89
                         0000FFE7   563 _g_RG08SAV	=	0xffe7
                         0000FFE8   564 _g_RG09SAV	=	0xffe8
                         0000FFE9   565 _g_RG10SAV	=	0xffe9
                         0000FFEA   566 _g_RG11SAV	=	0xffea
                         0000FFEB   567 _g_RG12SAV	=	0xffeb
                         0000FFEC   568 _g_RG13SAV	=	0xffec
                         0000FFED   569 _g_RG14SAV	=	0xffed
                         0000FFEE   570 _g_RG15SAV	=	0xffee
                         0000FFEF   571 _g_RG16SAV	=	0xffef
                         0000FFF0   572 _g_RG17SAV	=	0xfff0
                         0000FFF1   573 _g_RG18SAV	=	0xfff1
                         0000FFF2   574 _g_RG19SAV	=	0xfff2
                         0000FFF3   575 _g_RG20SAV	=	0xfff3
                         0000FFF4   576 _g_RG21SAV	=	0xfff4
                         0000FFF5   577 _g_RG22SAV	=	0xfff5
                         0000FFF6   578 _g_RG23SAV	=	0xfff6
                         0000FFF7   579 _g_MINROM	=	0xfff7
                         0000FFF8   580 _g_SVFFF8	=	0xfff8
                         0000FFFA   581 _g_RG25SAV	=	0xfffa
                         0000FFFB   582 _g_RG26SAV	=	0xfffb
                         0000FFFC   583 _g_RG27SAV	=	0xfffc
                         0000FFFD   584 _g_SVFFFD	=	0xfffd
                         00000004   585 _g_CGTABL	=	0x0004
                         00000006   586 _g_VDP_DR	=	0x0006
                         00000007   587 _g_VDP_DW	=	0x0007
                         0000002B   588 _g_BASRVN	=	0x002b
                         0000002B   589 _g_ROMVersion	=	0x002b
                         0000002D   590 _g_MSXVER	=	0x002d
                         0000002E   591 _g_MSXMID	=	0x002e
                         00000034   592 _g_CHAR_16	=	0x0034
                         00000000   593 _g_SUBRID	=	0x0000
                         00000002   594 _g_STRSRC	=	0x0002
                         0000F30F   595 _g_KANJTABLE	=	0xf30f
                         0000F323   596 _g_DISKVE	=	0xf323
                         0000F325   597 _g_BREAKV	=	0xf325
                         0000F341   598 _g_RAMAD0	=	0xf341
                         0000F342   599 _g_RAMAD1	=	0xf342
                         0000F343   600 _g_RAMAD2	=	0xf343
                         0000F344   601 _g_RAMAD3	=	0xf344
                         0000F348   602 _g_MASTER	=	0xf348
                         0000F37D   603 _g_BDOS	=	0xf37d
    00000065                        604 _g_GirlPatterns:
    00000065 7A                     605 	.db #0x7a	; 122	'z'
    00000066 7B                     606 	.db #0x7b	; 123
    00000067 7C                     607 	.db #0x7c	; 124
    00000068 7D                     608 	.db #0x7d	; 125
    00000069 7E                     609 	.db #0x7e	; 126
    0000006A 7F                     610 	.db #0x7f	; 127
    0000006B F0                     611 	.db #0xf0	; 240
    0000006C F1                     612 	.db #0xf1	; 241
    0000006D F2                     613 	.db #0xf2	; 242
    0000006E                        614 _g_PonPonGirlsPos:
    0000006E 1E                     615 	.db #0x1e	; 30
    0000006F 32                     616 	.db #0x32	; 50	'2'
    00000070 46                     617 	.db #0x46	; 70	'F'
    00000071 AF                     618 	.db #0xaf	; 175
    00000072 C3                     619 	.db #0xc3	; 195
    00000073 D7                     620 	.db #0xd7	; 215
    00000074                        621 _g_Data_Palette_LayerA_Standard:
    00000074 00                     622 	.db #0x00	; 0
    00000075 00                     623 	.db #0x00	; 0
    00000076 00                     624 	.db #0x00	; 0
    00000077 01                     625 	.db #0x01	; 1
    00000078 01                     626 	.db #0x01	; 1
    00000079 01                     627 	.db #0x01	; 1
    0000007A 01                     628 	.db #0x01	; 1
    0000007B 01                     629 	.db #0x01	; 1
    0000007C 01                     630 	.db #0x01	; 1
    0000007D 01                     631 	.db #0x01	; 1
    0000007E 01                     632 	.db #0x01	; 1
    0000007F 01                     633 	.db #0x01	; 1
    00000080 FF                     634 	.db #0xff	; 255
    00000081 FF                     635 	.db #0xff	; 255
    00000082 FF                     636 	.db #0xff	; 255
    00000083 1E                     637 	.db #0x1e	; 30
    00000084 1A                     638 	.db #0x1a	; 26
    00000085 08                     639 	.db #0x08	; 8
    00000086 01                     640 	.db #0x01	; 1
    00000087 01                     641 	.db #0x01	; 1
    00000088 01                     642 	.db #0x01	; 1
    00000089 14                     643 	.db #0x14	; 20
    0000008A 09                     644 	.db #0x09	; 9
    0000008B 14                     645 	.db #0x14	; 20
    0000008C 1B                     646 	.db #0x1b	; 27
    0000008D 13                     647 	.db #0x13	; 19
    0000008E 09                     648 	.db #0x09	; 9
    0000008F 01                     649 	.db #0x01	; 1
    00000090 01                     650 	.db #0x01	; 1
    00000091 01                     651 	.db #0x01	; 1
    00000092 01                     652 	.db #0x01	; 1
    00000093 01                     653 	.db #0x01	; 1
    00000094 01                     654 	.db #0x01	; 1
    00000095 01                     655 	.db #0x01	; 1
    00000096 01                     656 	.db #0x01	; 1
    00000097 01                     657 	.db #0x01	; 1
    00000098 01                     658 	.db #0x01	; 1
    00000099 01                     659 	.db #0x01	; 1
    0000009A 01                     660 	.db #0x01	; 1
    0000009B 01                     661 	.db #0x01	; 1
    0000009C 01                     662 	.db #0x01	; 1
    0000009D 01                     663 	.db #0x01	; 1
    0000009E 01                     664 	.db #0x01	; 1
    0000009F 01                     665 	.db #0x01	; 1
    000000A0 01                     666 	.db #0x01	; 1
    000000A1 FF                     667 	.db #0xff	; 255
    000000A2 FF                     668 	.db #0xff	; 255
    000000A3 FF                     669 	.db #0xff	; 255
    000000A4                        670 _g_Data_Palette_LayerB_Standard:
    000000A4 00                     671 	.db #0x00	; 0
    000000A5 00                     672 	.db #0x00	; 0
    000000A6 00                     673 	.db #0x00	; 0
    000000A7 08                     674 	.db #0x08	; 8
    000000A8 17                     675 	.db #0x17	; 23
    000000A9 1B                     676 	.db #0x1b	; 27
    000000AA 01                     677 	.db #0x01	; 1
    000000AB 01                     678 	.db #0x01	; 1
    000000AC 01                     679 	.db #0x01	; 1
    000000AD 01                     680 	.db #0x01	; 1
    000000AE 01                     681 	.db #0x01	; 1
    000000AF 01                     682 	.db #0x01	; 1
    000000B0 01                     683 	.db #0x01	; 1
    000000B1 01                     684 	.db #0x01	; 1
    000000B2 01                     685 	.db #0x01	; 1
    000000B3 1E                     686 	.db #0x1e	; 30
    000000B4 1A                     687 	.db #0x1a	; 26
    000000B5 08                     688 	.db #0x08	; 8
    000000B6 01                     689 	.db #0x01	; 1
    000000B7 01                     690 	.db #0x01	; 1
    000000B8 01                     691 	.db #0x01	; 1
    000000B9 01                     692 	.db #0x01	; 1
    000000BA 01                     693 	.db #0x01	; 1
    000000BB 01                     694 	.db #0x01	; 1
    000000BC 01                     695 	.db #0x01	; 1
    000000BD 01                     696 	.db #0x01	; 1
    000000BE 01                     697 	.db #0x01	; 1
    000000BF 1F                     698 	.db #0x1f	; 31
    000000C0 00                     699 	.db #0x00	; 0
    000000C1 00                     700 	.db #0x00	; 0
    000000C2 1B                     701 	.db #0x1b	; 27
    000000C3 1B                     702 	.db #0x1b	; 27
    000000C4 1B                     703 	.db #0x1b	; 27
    000000C5 04                     704 	.db #0x04	; 4
    000000C6 04                     705 	.db #0x04	; 4
    000000C7 1B                     706 	.db #0x1b	; 27
    000000C8 00                     707 	.db #0x00	; 0
    000000C9 00                     708 	.db #0x00	; 0
    000000CA 00                     709 	.db #0x00	; 0
    000000CB 1B                     710 	.db #0x1b	; 27
    000000CC 1B                     711 	.db #0x1b	; 27
    000000CD 1B                     712 	.db #0x1b	; 27
    000000CE 00                     713 	.db #0x00	; 0
    000000CF 17                     714 	.db #0x17	; 23
    000000D0 00                     715 	.db #0x00	; 0
    000000D1 1B                     716 	.db #0x1b	; 27
    000000D2 13                     717 	.db #0x13	; 19
    000000D3 09                     718 	.db #0x09	; 9
                                    719 ;E:\Dropbox\FAUSTO\SVILUPPI\MSX\CODE\C\MSXgl\projects\soccerlg/soccerlg_s3_b1.c:80: void V9990_InitMenuLayers(){   
                                    720 ;	---------------------------------
                                    721 ; Function V9990_InitMenuLayers
                                    722 ; ---------------------------------
    000000D4                        723 _V9990_InitMenuLayers::
                                    724 ;E:\Dropbox\FAUSTO\SVILUPPI\MSX\CODE\C\MSXgl\projects\soccerlg/soccerlg_s3_b1.c:81: V9990_InitPalette();
    000000D4 CDr00r00         [17]  725 	call	_V9990_InitPalette
                                    726 ;E:\Dropbox\FAUSTO\SVILUPPI\MSX\CODE\C\MSXgl\projects\soccerlg/soccerlg_s3_b1.c:82: V9_SetScreenMode(V9_MODE_P1);
    000000D7 AF               [ 4]  727 	xor	a, a
    000000D8 CDr00r00         [17]  728 	call	_V9_SetScreenMode
                                    729 ;E:/Dropbox/FAUSTO/SVILUPPI/MSX/CODE/C/MSXgl/engine/src/v9990.h:480: inline void V9_SetBackgroundColor(u8 color) { V9_SetRegister(15, color); }
    000000DB 2E 01            [ 7]  730 	ld	l, #0x01
                                    731 ;	spillPairReg hl
                                    732 ;	spillPairReg hl
    000000DD 3E 0F            [ 7]  733 	ld	a, #0x0f
    000000DF CDr00r00         [17]  734 	call	_V9_SetRegister
                                    735 ;E:/Dropbox/FAUSTO/SVILUPPI/MSX/CODE/C/MSXgl/engine/src/v9990.h:258: inline void V9_SetFlag(u8 reg, u8 mask, u8 flag) { V9_SetRegister(reg, V9_GetRegister(reg) & (~mask) | flag); }
    000000E2 3E 08            [ 7]  736 	ld	a, #0x08
    000000E4 CDr00r00         [17]  737 	call	_V9_GetRegister
    000000E7 6F               [ 4]  738 	ld	l, a
                                    739 ;	spillPairReg hl
                                    740 ;	spillPairReg hl
    000000E8 CB BD            [ 8]  741 	res	7, l
    000000EA 3E 08            [ 7]  742 	ld	a, #0x08
    000000EC CDr00r00         [17]  743 	call	_V9_SetRegister
                                    744 ;E:\Dropbox\FAUSTO\SVILUPPI\MSX\CODE\C\MSXgl\projects\soccerlg/soccerlg_s3_b1.c:85: V9990_LoadP1LayerA();
                                    745 ;E:\Dropbox\FAUSTO\SVILUPPI\MSX\CODE\C\MSXgl\projects\soccerlg/soccerlg_s3_b1.c:86: }
    000000EF C3r00r00         [10]  746 	jp	_V9990_LoadP1LayerA
                                    747 ;E:\Dropbox\FAUSTO\SVILUPPI\MSX\CODE\C\MSXgl\projects\soccerlg/soccerlg_s3_b1.c:87: void InitPonPonGirls(){
                                    748 ;	---------------------------------
                                    749 ; Function InitPonPonGirls
                                    750 ; ---------------------------------
    000000F2                        751 _InitPonPonGirls::
    000000F2 DD E5            [15]  752 	push	ix
    000000F4 DD 21 00 00      [14]  753 	ld	ix,#0
    000000F8 DD 39            [15]  754 	add	ix,sp
    000000FA 3B               [ 6]  755 	dec	sp
                                    756 ;E:\Dropbox\FAUSTO\SVILUPPI\MSX\CODE\C\MSXgl\projects\soccerlg/soccerlg_s3_b1.c:88: g_ponPonPatternIndex=0;
    000000FB 21r00r00         [10]  757 	ld	hl, #_g_ponPonPatternIndex
    000000FE 36 00            [10]  758 	ld	(hl), #0x00
                                    759 ;E:\Dropbox\FAUSTO\SVILUPPI\MSX\CODE\C\MSXgl\projects\soccerlg/soccerlg_s3_b1.c:90: for(u8 i=0;i<6;i++){
    00000100 DD 36 FF 00      [19]  760 	ld	-1 (ix), #0x00
    00000104                        761 00103$:
    00000104 DD 7E FF         [19]  762 	ld	a, -1 (ix)
    00000107 D6 06            [ 7]  763 	sub	a, #0x06
    00000109 30 3D            [12]  764 	jr	NC, 00105$
                                    765 ;E:\Dropbox\FAUSTO\SVILUPPI\MSX\CODE\C\MSXgl\projects\soccerlg/soccerlg_s3_b1.c:91: g_PonPonGirls[i].X=g_PonPonGirlsPos[i];
    0000010B DD 4E FF         [19]  766 	ld	c, -1 (ix)
    0000010E 06 00            [ 7]  767 	ld	b, #0x00
    00000110 69               [ 4]  768 	ld	l, c
    00000111 60               [ 4]  769 	ld	h, b
    00000112 29               [11]  770 	add	hl, hl
    00000113 29               [11]  771 	add	hl, hl
    00000114 09               [11]  772 	add	hl, bc
    00000115 11r00r00         [10]  773 	ld	de, #_g_PonPonGirls
    00000118 19               [11]  774 	add	hl, de
                                    775 ;	spillPairReg hl
                                    776 ;	spillPairReg hl
    00000119 5D               [ 4]  777 	ld	e, l
    0000011A 54               [ 4]  778 	ld	d, h
                                    779 ;	spillPairReg hl
                                    780 ;	spillPairReg hl
    0000011B 23               [ 6]  781 	inc	hl
    0000011C 23               [ 6]  782 	inc	hl
    0000011D 3Er6E            [ 7]  783 	ld	a, #<(_g_PonPonGirlsPos)
    0000011F DD 86 FF         [19]  784 	add	a, -1 (ix)
    00000122 4F               [ 4]  785 	ld	c, a
    00000123 3Es00            [ 7]  786 	ld	a, #>(_g_PonPonGirlsPos)
    00000125 CE 00            [ 7]  787 	adc	a, #0x00
    00000127 47               [ 4]  788 	ld	b, a
    00000128 0A               [ 7]  789 	ld	a, (bc)
    00000129 4F               [ 4]  790 	ld	c, a
    0000012A 06 00            [ 7]  791 	ld	b, #0x00
    0000012C 71               [ 7]  792 	ld	(hl), c
    0000012D 23               [ 6]  793 	inc	hl
    0000012E 70               [ 7]  794 	ld	(hl), b
                                    795 ;E:\Dropbox\FAUSTO\SVILUPPI\MSX\CODE\C\MSXgl\projects\soccerlg/soccerlg_s3_b1.c:92: g_PonPonGirls[i].Y=42;
    0000012F 6B               [ 4]  796 	ld	l, e
    00000130 62               [ 4]  797 	ld	h, d
    00000131 36 2A            [10]  798 	ld	(hl), #0x2a
    00000133 23               [ 6]  799 	inc	hl
    00000134 36 00            [10]  800 	ld	(hl), #0x00
                                    801 ;E:\Dropbox\FAUSTO\SVILUPPI\MSX\CODE\C\MSXgl\projects\soccerlg/soccerlg_s3_b1.c:93: g_PonPonGirls[i].PatternId=SPRITE_GIRL_1;
    00000136 21 04 00         [10]  802 	ld	hl, #0x0004
    00000139 19               [11]  803 	add	hl, de
    0000013A 36 7A            [10]  804 	ld	(hl), #0x7a
                                    805 ;E:\Dropbox\FAUSTO\SVILUPPI\MSX\CODE\C\MSXgl\projects\soccerlg/soccerlg_s3_b1.c:94: PutPonPonGirlSprite(i);
    0000013C DD 7E FF         [19]  806 	ld	a, -1 (ix)
    0000013F CDr93r07         [17]  807 	call	_PutPonPonGirlSprite
                                    808 ;E:\Dropbox\FAUSTO\SVILUPPI\MSX\CODE\C\MSXgl\projects\soccerlg/soccerlg_s3_b1.c:90: for(u8 i=0;i<6;i++){
    00000142 DD 34 FF         [23]  809 	inc	-1 (ix)
    00000145 C3r04r01         [10]  810 	jp	00103$
    00000148                        811 00105$:
                                    812 ;E:\Dropbox\FAUSTO\SVILUPPI\MSX\CODE\C\MSXgl\projects\soccerlg/soccerlg_s3_b1.c:97: }
    00000148 33               [ 6]  813 	inc	sp
    00000149 DD E1            [14]  814 	pop	ix
    0000014B C9               [10]  815 	ret
                                    816 ;E:\Dropbox\FAUSTO\SVILUPPI\MSX\CODE\C\MSXgl\projects\soccerlg/soccerlg_s3_b1.c:99: void TickGoalCelebration(){
                                    817 ;	---------------------------------
                                    818 ; Function TickGoalCelebration
                                    819 ; ---------------------------------
    0000014C                        820 _TickGoalCelebration::
    0000014C DD E5            [15]  821 	push	ix
    0000014E DD 21 00 00      [14]  822 	ld	ix,#0
    00000152 DD 39            [15]  823 	add	ix,sp
    00000154 21 F3 FF         [10]  824 	ld	hl, #-13
    00000157 39               [11]  825 	add	hl, sp
    00000158 F9               [ 6]  826 	ld	sp, hl
                                    827 ;E:\Dropbox\FAUSTO\SVILUPPI\MSX\CODE\C\MSXgl\projects\soccerlg/soccerlg_s3_b1.c:100: if(g_MatchStatus!=MATCH_AFTER_IN_GOAL) return;
    00000159 3Ar00r00         [13]  828 	ld	a, (_g_MatchStatus+0)
    0000015C D6 06            [ 7]  829 	sub	a, #0x06
    0000015E C2r18r05         [10]  830 	jp	NZ,00158$
                                    831 ;E:\Dropbox\FAUSTO\SVILUPPI\MSX\CODE\C\MSXgl\projects\soccerlg/soccerlg_s3_b1.c:104: g_Timer++;
    00000161 21r00r00         [10]  832 	ld	hl, #_g_Timer
    00000164 34               [11]  833 	inc	(hl)
                                    834 ;E:\Dropbox\FAUSTO\SVILUPPI\MSX\CODE\C\MSXgl\projects\soccerlg/soccerlg_s3_b1.c:106: if((g_Timer % 10) < 5){
    00000165 3Ar00r00         [13]  835 	ld	a, (_g_Timer+0)
    00000168 6F               [ 4]  836 	ld	l, a
                                    837 ;	spillPairReg hl
                                    838 ;	spillPairReg hl
    00000169 26 00            [ 7]  839 	ld	h, #0x00
                                    840 ;	spillPairReg hl
                                    841 ;	spillPairReg hl
    0000016B 11 0A 00         [10]  842 	ld	de, #0x000a
    0000016E CDr00r00         [17]  843 	call	__modsint
    00000171 7B               [ 4]  844 	ld	a, e
    00000172 D6 05            [ 7]  845 	sub	a, #0x05
    00000174 7A               [ 4]  846 	ld	a, d
    00000175 17               [ 4]  847 	rla
    00000176 3F               [ 4]  848 	ccf
    00000177 1F               [ 4]  849 	rra
    00000178 DE 80            [ 7]  850 	sbc	a, #0x80
    0000017A 30 0A            [12]  851 	jr	NC, 00104$
                                    852 ;E:/Dropbox/FAUSTO/SVILUPPI/MSX/CODE/C/MSXgl/engine/src/v9990.h:480: inline void V9_SetBackgroundColor(u8 color) { V9_SetRegister(15, color); }
    0000017C 2E 08            [ 7]  853 	ld	l, #0x08
                                    854 ;	spillPairReg hl
                                    855 ;	spillPairReg hl
    0000017E 3E 0F            [ 7]  856 	ld	a, #0x0f
    00000180 CDr00r00         [17]  857 	call	_V9_SetRegister
                                    858 ;E:\Dropbox\FAUSTO\SVILUPPI\MSX\CODE\C\MSXgl\projects\soccerlg/soccerlg_s3_b1.c:107: V9_SetBackgroundColor(8); // Cyan/Flash
    00000183 C3r8Dr01         [10]  859 	jp	00105$
    00000186                        860 00104$:
                                    861 ;E:/Dropbox/FAUSTO/SVILUPPI/MSX/CODE/C/MSXgl/engine/src/v9990.h:480: inline void V9_SetBackgroundColor(u8 color) { V9_SetRegister(15, color); }
    00000186 2E 01            [ 7]  862 	ld	l, #0x01
                                    863 ;	spillPairReg hl
                                    864 ;	spillPairReg hl
    00000188 3E 0F            [ 7]  865 	ld	a, #0x0f
    0000018A CDr00r00         [17]  866 	call	_V9_SetRegister
                                    867 ;E:\Dropbox\FAUSTO\SVILUPPI\MSX\CODE\C\MSXgl\projects\soccerlg/soccerlg_s3_b1.c:109: V9_SetBackgroundColor(1); // Default Blue
    0000018D                        868 00105$:
                                    869 ;E:\Dropbox\FAUSTO\SVILUPPI\MSX\CODE\C\MSXgl\projects\soccerlg/soccerlg_s3_b1.c:115: if (g_Timer < 120) {
    0000018D 3Ar00r00         [13]  870 	ld	a, (_g_Timer+0)
    00000190 D6 78            [ 7]  871 	sub	a, #0x78
    00000192 D2rF1r03         [10]  872 	jp	NC, 00136$
                                    873 ;E:\Dropbox\FAUSTO\SVILUPPI\MSX\CODE\C\MSXgl\projects\soccerlg/soccerlg_s3_b1.c:116: u8 scoringTeamId = (g_RestartKickTeamId == TEAM_1) ? TEAM_2 : TEAM_1;
    00000195 3Ar00r00         [13]  874 	ld	a, (_g_RestartKickTeamId+0)
    00000198 3D               [ 4]  875 	dec	a
    00000199 20 06            [12]  876 	jr	NZ, 00160$
    0000019B 01 02 00         [10]  877 	ld	bc, #0x0002
    0000019E C3rA4r01         [10]  878 	jp	00161$
    000001A1                        879 00160$:
    000001A1 01 01 00         [10]  880 	ld	bc, #0x0001
    000001A4                        881 00161$:
    000001A4 DD 71 F5         [19]  882 	ld	-11 (ix), c
                                    883 ;E:\Dropbox\FAUSTO\SVILUPPI\MSX\CODE\C\MSXgl\projects\soccerlg/soccerlg_s3_b1.c:119: u16 limitY_Top = FIELD_BOUND_Y_TOP;
    000001A7 DD 36 F6 32      [19]  884 	ld	-10 (ix), #0x32
    000001AB AF               [ 4]  885 	xor	a, a
    000001AC DD 77 F7         [19]  886 	ld	-9 (ix), a
                                    887 ;E:\Dropbox\FAUSTO\SVILUPPI\MSX\CODE\C\MSXgl\projects\soccerlg/soccerlg_s3_b1.c:120: u16 limitY_Bottom = FIELD_BOUND_Y_BOTTOM;
    000001AF DD 36 F8 AE      [19]  888 	ld	-8 (ix), #0xae
    000001B3 DD 36 F9 01      [19]  889 	ld	-7 (ix), #0x01
                                    890 ;E:\Dropbox\FAUSTO\SVILUPPI\MSX\CODE\C\MSXgl\projects\soccerlg/soccerlg_s3_b1.c:122: if (g_Ball.Y < FIELD_CENTRAL_Y) { // Top Goal
    000001B7 21r00r00         [10]  891 	ld	hl, #_g_Ball
    000001BA 7E               [ 7]  892 	ld	a, (hl)
    000001BB DD 77 FE         [19]  893 	ld	-2 (ix), a
    000001BE 23               [ 6]  894 	inc	hl
    000001BF 7E               [ 7]  895 	ld	a, (hl)
    000001C0 DD 77 FF         [19]  896 	ld	-1 (ix), a
    000001C3 DD 7E FE         [19]  897 	ld	a, -2 (ix)
    000001C6 D6 8C            [ 7]  898 	sub	a, #0x8c
    000001C8 DD 7E FF         [19]  899 	ld	a, -1 (ix)
    000001CB DE 00            [ 7]  900 	sbc	a, #0x00
    000001CD 30 0B            [12]  901 	jr	NC, 00107$
                                    902 ;E:\Dropbox\FAUSTO\SVILUPPI\MSX\CODE\C\MSXgl\projects\soccerlg/soccerlg_s3_b1.c:123: limitY_Bottom = FIELD_BOUND_Y_TOP + 160; 
    000001CF DD 36 F8 D2      [19]  903 	ld	-8 (ix), #0xd2
    000001D3 DD 36 F9 00      [19]  904 	ld	-7 (ix), #0
    000001D7 C3rE2r01         [10]  905 	jp	00200$
    000001DA                        906 00107$:
                                    907 ;E:\Dropbox\FAUSTO\SVILUPPI\MSX\CODE\C\MSXgl\projects\soccerlg/soccerlg_s3_b1.c:125: limitY_Top = FIELD_BOUND_Y_BOTTOM - 160;
    000001DA DD 36 F6 0E      [19]  908 	ld	-10 (ix), #0x0e
    000001DE DD 36 F7 01      [19]  909 	ld	-9 (ix), #0x01
                                    910 ;E:\Dropbox\FAUSTO\SVILUPPI\MSX\CODE\C\MSXgl\projects\soccerlg/soccerlg_s3_b1.c:133: for(u8 i=0; i<15; i++){
    000001E2                        911 00200$:
    000001E2 DD 36 FF 00      [19]  912 	ld	-1 (ix), #0x00
    000001E6                        913 00154$:
    000001E6 DD 7E FF         [19]  914 	ld	a, -1 (ix)
    000001E9 D6 0F            [ 7]  915 	sub	a, #0x0f
    000001EB D2rF1r03         [10]  916 	jp	NC, 00136$
                                    917 ;E:\Dropbox\FAUSTO\SVILUPPI\MSX\CODE\C\MSXgl\projects\soccerlg/soccerlg_s3_b1.c:134: if(i == REFEREE) continue;
    000001EE DD 7E FF         [19]  918 	ld	a, -1 (ix)
    000001F1 D6 0E            [ 7]  919 	sub	a, #0x0e
    000001F3 CArEBr03         [10]  920 	jp	Z,00133$
                                    921 ;E:\Dropbox\FAUSTO\SVILUPPI\MSX\CODE\C\MSXgl\projects\soccerlg/soccerlg_s3_b1.c:135: u8 dir = g_Players[i].Direction;
    000001F6 DD 4E FF         [19]  922 	ld	c, -1 (ix)
    000001F9 06 00            [ 7]  923 	ld	b, #0x00
    000001FB 69               [ 4]  924 	ld	l, c
    000001FC 60               [ 4]  925 	ld	h, b
    000001FD 29               [11]  926 	add	hl, hl
    000001FE 29               [11]  927 	add	hl, hl
    000001FF 09               [11]  928 	add	hl, bc
    00000200 29               [11]  929 	add	hl, hl
    00000201 29               [11]  930 	add	hl, hl
    00000202 09               [11]  931 	add	hl, bc
    00000203 11r00r00         [10]  932 	ld	de, #_g_Players
    00000206 19               [11]  933 	add	hl, de
    00000207 E3               [19]  934 	ex	(sp), hl
    00000208 DD 7E F3         [19]  935 	ld	a, -13 (ix)
    0000020B C6 0A            [ 7]  936 	add	a, #0x0a
    0000020D 4F               [ 4]  937 	ld	c, a
    0000020E DD 7E F4         [19]  938 	ld	a, -12 (ix)
    00000211 CE 00            [ 7]  939 	adc	a, #0x00
    00000213 47               [ 4]  940 	ld	b, a
    00000214 0A               [ 7]  941 	ld	a, (bc)
    00000215 DD 77 FE         [19]  942 	ld	-2 (ix), a
                                    943 ;E:\Dropbox\FAUSTO\SVILUPPI\MSX\CODE\C\MSXgl\projects\soccerlg/soccerlg_s3_b1.c:138: if (g_Players[i].TeamId == scoringTeamId) {
    00000218 D1               [10]  944 	pop	de
    00000219 D5               [11]  945 	push	de
    0000021A 21 09 00         [10]  946 	ld	hl, #9
    0000021D 19               [11]  947 	add	hl, de
    0000021E 5E               [ 7]  948 	ld	e, (hl)
                                    949 ;E:\Dropbox\FAUSTO\SVILUPPI\MSX\CODE\C\MSXgl\projects\soccerlg/soccerlg_s3_b1.c:162: if (isBack) g_Players[i].PatternId = (animFrame1) ? PLAYER_POSE_CELEBRATION_BACK_1 : PLAYER_POSE_CELEBRATION_BACK_2;
    0000021F DD 7E F3         [19]  950 	ld	a, -13 (ix)
    00000222 C6 08            [ 7]  951 	add	a, #0x08
    00000224 DD 77 FA         [19]  952 	ld	-6 (ix), a
    00000227 DD 7E F4         [19]  953 	ld	a, -12 (ix)
    0000022A CE 00            [ 7]  954 	adc	a, #0x00
    0000022C DD 77 FB         [19]  955 	ld	-5 (ix), a
                                    956 ;E:\Dropbox\FAUSTO\SVILUPPI\MSX\CODE\C\MSXgl\projects\soccerlg/soccerlg_s3_b1.c:138: if (g_Players[i].TeamId == scoringTeamId) {
    0000022F DD 7E F5         [19]  957 	ld	a, -11 (ix)
    00000232 93               [ 4]  958 	sub	a, e
    00000233 C2rABr03         [10]  959 	jp	NZ,00131$
                                    960 ;E:\Dropbox\FAUSTO\SVILUPPI\MSX\CODE\C\MSXgl\projects\soccerlg/soccerlg_s3_b1.c:142: if ((g_Timer % 19) == 0) {
    00000236 3Ar00r00         [13]  961 	ld	a, (_g_Timer+0)
    00000239 6F               [ 4]  962 	ld	l, a
                                    963 ;	spillPairReg hl
                                    964 ;	spillPairReg hl
    0000023A 26 00            [ 7]  965 	ld	h, #0x00
                                    966 ;	spillPairReg hl
                                    967 ;	spillPairReg hl
    0000023C C5               [11]  968 	push	bc
    0000023D 11 13 00         [10]  969 	ld	de, #0x0013
    00000240 CDr00r00         [17]  970 	call	__modsint
    00000243 C1               [10]  971 	pop	bc
    00000244 7A               [ 4]  972 	ld	a, d
    00000245 B3               [ 4]  973 	or	a, e
    00000246 20 1C            [12]  974 	jr	NZ, 00112$
                                    975 ;E:\Dropbox\FAUSTO\SVILUPPI\MSX\CODE\C\MSXgl\projects\soccerlg/soccerlg_s3_b1.c:144: u8 rnd = (g_Timer * 3) + (i * 37); 
    00000248 3Ar00r00         [13]  976 	ld	a, (_g_Timer+0)
    0000024B 5F               [ 4]  977 	ld	e, a
    0000024C 87               [ 4]  978 	add	a, a
    0000024D 83               [ 4]  979 	add	a, e
    0000024E 5F               [ 4]  980 	ld	e, a
    0000024F DD 7E FF         [19]  981 	ld	a, -1 (ix)
    00000252 D5               [11]  982 	push	de
    00000253 5F               [ 4]  983 	ld	e, a
    00000254 87               [ 4]  984 	add	a, a
    00000255 87               [ 4]  985 	add	a, a
    00000256 87               [ 4]  986 	add	a, a
    00000257 83               [ 4]  987 	add	a, e
    00000258 87               [ 4]  988 	add	a, a
    00000259 87               [ 4]  989 	add	a, a
    0000025A 83               [ 4]  990 	add	a, e
    0000025B D1               [10]  991 	pop	de
    0000025C 83               [ 4]  992 	add	a, e
                                    993 ;E:\Dropbox\FAUSTO\SVILUPPI\MSX\CODE\C\MSXgl\projects\soccerlg/soccerlg_s3_b1.c:145: dir = (rnd % 8) + 1; 
    0000025D E6 07            [ 7]  994 	and	a, #0x07
    0000025F 3C               [ 4]  995 	inc	a
                                    996 ;E:\Dropbox\FAUSTO\SVILUPPI\MSX\CODE\C\MSXgl\projects\soccerlg/soccerlg_s3_b1.c:146: g_Players[i].Direction = dir;
    00000260 DD 77 FE         [19]  997 	ld	-2 (ix), a
    00000263 02               [ 7]  998 	ld	(bc), a
    00000264                        999 00112$:
                                   1000 ;E:\Dropbox\FAUSTO\SVILUPPI\MSX\CODE\C\MSXgl\projects\soccerlg/soccerlg_s3_b1.c:149: i8 dy = k_CelebDY[dir];
    00000264 3Er26            [ 7] 1001 	ld	a, #<(_TickGoalCelebration_k_CelebDY_131073_1162)
    00000266 DD 86 FE         [19] 1002 	add	a, -2 (ix)
    00000269 6F               [ 4] 1003 	ld	l, a
                                   1004 ;	spillPairReg hl
                                   1005 ;	spillPairReg hl
    0000026A 3Es05            [ 7] 1006 	ld	a, #>(_TickGoalCelebration_k_CelebDY_131073_1162)
    0000026C CE 00            [ 7] 1007 	adc	a, #0x00
    0000026E 67               [ 4] 1008 	ld	h, a
    0000026F 4E               [ 7] 1009 	ld	c, (hl)
                                   1010 ;E:\Dropbox\FAUSTO\SVILUPPI\MSX\CODE\C\MSXgl\projects\soccerlg/soccerlg_s3_b1.c:150: i8 dx = k_CelebDX[dir];
    00000270 3Er1D            [ 7] 1011 	ld	a, #<(_TickGoalCelebration_k_CelebDX_131073_1162)
    00000272 DD 86 FE         [19] 1012 	add	a, -2 (ix)
    00000275 6F               [ 4] 1013 	ld	l, a
                                   1014 ;	spillPairReg hl
                                   1015 ;	spillPairReg hl
    00000276 3Es05            [ 7] 1016 	ld	a, #>(_TickGoalCelebration_k_CelebDX_131073_1162)
    00000278 CE 00            [ 7] 1017 	adc	a, #0x00
    0000027A 67               [ 4] 1018 	ld	h, a
    0000027B 46               [ 7] 1019 	ld	b, (hl)
                                   1020 ;E:\Dropbox\FAUSTO\SVILUPPI\MSX\CODE\C\MSXgl\projects\soccerlg/soccerlg_s3_b1.c:152: if (dy < 0 && g_Players[i].Y > limitY_Top) g_Players[i].Y--;
    0000027C 79               [ 4] 1021 	ld	a, c
    0000027D 07               [ 4] 1022 	rlca
    0000027E E6 01            [ 7] 1023 	and	a,#0x01
    00000280 DD 77 FC         [19] 1024 	ld	-4 (ix), a
    00000283 B7               [ 4] 1025 	or	a, a
    00000284 28 18            [12] 1026 	jr	Z, 00117$
    00000286 E1               [10] 1027 	pop	hl
    00000287 E5               [11] 1028 	push	hl
    00000288 5E               [ 7] 1029 	ld	e, (hl)
    00000289 23               [ 6] 1030 	inc	hl
    0000028A 56               [ 7] 1031 	ld	d, (hl)
    0000028B DD 7E F6         [19] 1032 	ld	a, -10 (ix)
    0000028E 93               [ 4] 1033 	sub	a, e
    0000028F DD 7E F7         [19] 1034 	ld	a, -9 (ix)
    00000292 9A               [ 4] 1035 	sbc	a, d
    00000293 30 09            [12] 1036 	jr	NC, 00117$
    00000295 1B               [ 6] 1037 	dec	de
    00000296 E1               [10] 1038 	pop	hl
    00000297 E5               [11] 1039 	push	hl
    00000298 73               [ 7] 1040 	ld	(hl), e
    00000299 23               [ 6] 1041 	inc	hl
    0000029A 72               [ 7] 1042 	ld	(hl), d
    0000029B C3rBDr02         [10] 1043 	jp	00118$
    0000029E                       1044 00117$:
                                   1045 ;E:\Dropbox\FAUSTO\SVILUPPI\MSX\CODE\C\MSXgl\projects\soccerlg/soccerlg_s3_b1.c:153: else if (dy > 0 && g_Players[i].Y < limitY_Bottom) g_Players[i].Y++;
    0000029E AF               [ 4] 1046 	xor	a, a
    0000029F 91               [ 4] 1047 	sub	a, c
    000002A0 E2rA5r02         [10] 1048 	jp	PO, 00387$
    000002A3 EE 80            [ 7] 1049 	xor	a, #0x80
    000002A5                       1050 00387$:
    000002A5 F2rBDr02         [10] 1051 	jp	P, 00118$
    000002A8 E1               [10] 1052 	pop	hl
    000002A9 E5               [11] 1053 	push	hl
    000002AA 5E               [ 7] 1054 	ld	e, (hl)
    000002AB 23               [ 6] 1055 	inc	hl
    000002AC 56               [ 7] 1056 	ld	d, (hl)
    000002AD 7B               [ 4] 1057 	ld	a, e
    000002AE DD 96 F8         [19] 1058 	sub	a, -8 (ix)
    000002B1 7A               [ 4] 1059 	ld	a, d
    000002B2 DD 9E F9         [19] 1060 	sbc	a, -7 (ix)
    000002B5 30 06            [12] 1061 	jr	NC, 00118$
    000002B7 13               [ 6] 1062 	inc	de
    000002B8 E1               [10] 1063 	pop	hl
    000002B9 E5               [11] 1064 	push	hl
    000002BA 73               [ 7] 1065 	ld	(hl), e
    000002BB 23               [ 6] 1066 	inc	hl
    000002BC 72               [ 7] 1067 	ld	(hl), d
    000002BD                       1068 00118$:
                                   1069 ;E:\Dropbox\FAUSTO\SVILUPPI\MSX\CODE\C\MSXgl\projects\soccerlg/soccerlg_s3_b1.c:155: if (dx < 0 && g_Players[i].X > FIELD_BOUND_X_LEFT) g_Players[i].X--;
    000002BD CB 78            [ 8] 1070 	bit	7, b
    000002BF 28 21            [12] 1071 	jr	Z, 00124$
    000002C1 E1               [10] 1072 	pop	hl
    000002C2 E5               [11] 1073 	push	hl
    000002C3 23               [ 6] 1074 	inc	hl
    000002C4 23               [ 6] 1075 	inc	hl
    000002C5 5E               [ 7] 1076 	ld	e, (hl)
    000002C6 23               [ 6] 1077 	inc	hl
    000002C7 56               [ 7] 1078 	ld	d, (hl)
    000002C8 2B               [ 6] 1079 	dec	hl
    000002C9 DD 73 FD         [19] 1080 	ld	-3 (ix), e
    000002CC DD 72 FE         [19] 1081 	ld	-2 (ix), d
    000002CF 3E 0A            [ 7] 1082 	ld	a, #0x0a
    000002D1 DD BE FD         [19] 1083 	cp	a, -3 (ix)
    000002D4 3E 00            [ 7] 1084 	ld	a, #0x00
    000002D6 DD 9E FE         [19] 1085 	sbc	a, -2 (ix)
    000002D9 30 07            [12] 1086 	jr	NC, 00124$
    000002DB 1B               [ 6] 1087 	dec	de
    000002DC 73               [ 7] 1088 	ld	(hl), e
    000002DD 23               [ 6] 1089 	inc	hl
    000002DE 72               [ 7] 1090 	ld	(hl), d
    000002DF C3r02r03         [10] 1091 	jp	00125$
    000002E2                       1092 00124$:
                                   1093 ;E:\Dropbox\FAUSTO\SVILUPPI\MSX\CODE\C\MSXgl\projects\soccerlg/soccerlg_s3_b1.c:156: else if (dx > 0 && g_Players[i].X < FIELD_BOUND_X_RIGHT) g_Players[i].X++;
    000002E2 AF               [ 4] 1094 	xor	a, a
    000002E3 90               [ 4] 1095 	sub	a, b
    000002E4 E2rE9r02         [10] 1096 	jp	PO, 00388$
    000002E7 EE 80            [ 7] 1097 	xor	a, #0x80
    000002E9                       1098 00388$:
    000002E9 F2r02r03         [10] 1099 	jp	P, 00125$
    000002EC E1               [10] 1100 	pop	hl
    000002ED E5               [11] 1101 	push	hl
    000002EE 23               [ 6] 1102 	inc	hl
    000002EF 23               [ 6] 1103 	inc	hl
    000002F0 4E               [ 7] 1104 	ld	c, (hl)
    000002F1 23               [ 6] 1105 	inc	hl
    000002F2 46               [ 7] 1106 	ld	b, (hl)
    000002F3 2B               [ 6] 1107 	dec	hl
    000002F4 59               [ 4] 1108 	ld	e, c
    000002F5 50               [ 4] 1109 	ld	d, b
    000002F6 7B               [ 4] 1110 	ld	a, e
    000002F7 D6 EC            [ 7] 1111 	sub	a, #0xec
    000002F9 7A               [ 4] 1112 	ld	a, d
    000002FA DE 00            [ 7] 1113 	sbc	a, #0x00
    000002FC 30 04            [12] 1114 	jr	NC, 00125$
    000002FE 03               [ 6] 1115 	inc	bc
    000002FF 71               [ 7] 1116 	ld	(hl), c
    00000300 23               [ 6] 1117 	inc	hl
    00000301 70               [ 7] 1118 	ld	(hl), b
    00000302                       1119 00125$:
                                   1120 ;E:\Dropbox\FAUSTO\SVILUPPI\MSX\CODE\C\MSXgl\projects\soccerlg/soccerlg_s3_b1.c:159: bool animFrame1 = ((g_Timer / 8) % 2) == 0;
    00000302 3Ar00r00         [13] 1121 	ld	a, (_g_Timer+0)
    00000305 5F               [ 4] 1122 	ld	e, a
    00000306 16 00            [ 7] 1123 	ld	d, #0x00
    00000308 4B               [ 4] 1124 	ld	c, e
    00000309 42               [ 4] 1125 	ld	b, d
    0000030A CB 7A            [ 8] 1126 	bit	7, d
    0000030C 28 06            [12] 1127 	jr	Z, 00162$
    0000030E 21 07 00         [10] 1128 	ld	hl, #0x0007
    00000311 19               [11] 1129 	add	hl, de
    00000312 4D               [ 4] 1130 	ld	c, l
    00000313 44               [ 4] 1131 	ld	b, h
    00000314                       1132 00162$:
    00000314 DD 71 FD         [19] 1133 	ld	-3 (ix), c
    00000317 DD 70 FE         [19] 1134 	ld	-2 (ix), b
    0000031A DD CB FE 2E      [23] 1135 	sra	-2 (ix)
    0000031E DD CB FD 1E      [23] 1136 	rr	-3 (ix)
    00000322 DD CB FE 2E      [23] 1137 	sra	-2 (ix)
    00000326 DD CB FD 1E      [23] 1138 	rr	-3 (ix)
    0000032A DD CB FE 2E      [23] 1139 	sra	-2 (ix)
    0000032E DD CB FD 1E      [23] 1140 	rr	-3 (ix)
    00000332 11 02 00         [10] 1141 	ld	de, #0x0002
    00000335 DD 6E FD         [19] 1142 	ld	l, -3 (ix)
                                   1143 ;	spillPairReg hl
                                   1144 ;	spillPairReg hl
    00000338 DD 66 FE         [19] 1145 	ld	h, -2 (ix)
                                   1146 ;	spillPairReg hl
                                   1147 ;	spillPairReg hl
    0000033B CDr00r00         [17] 1148 	call	__modsint
    0000033E DD 73 FD         [19] 1149 	ld	-3 (ix), e
    00000341 DD 72 FE         [19] 1150 	ld	-2 (ix), d
    00000344 DD 7E FD         [19] 1151 	ld	a, -3 (ix)
    00000347 B7               [ 4] 1152 	or	a, a
    00000348 DD B6 FE         [19] 1153 	or	a, -2 (ix)
    0000034B 3E 01            [ 7] 1154 	ld	a, #0x01
    0000034D 28 01            [12] 1155 	jr	Z, 00390$
    0000034F AF               [ 4] 1156 	xor	a, a
    00000350                       1157 00390$:
    00000350 DD 77 FE         [19] 1158 	ld	-2 (ix), a
                                   1159 ;E:\Dropbox\FAUSTO\SVILUPPI\MSX\CODE\C\MSXgl\projects\soccerlg/soccerlg_s3_b1.c:162: if (isBack) g_Players[i].PatternId = (animFrame1) ? PLAYER_POSE_CELEBRATION_BACK_1 : PLAYER_POSE_CELEBRATION_BACK_2;
    00000353 DD 7E FC         [19] 1160 	ld	a, -4 (ix)
    00000356 B7               [ 4] 1161 	or	a, a
    00000357 28 2C            [12] 1162 	jr	Z, 00128$
    00000359 DD 7E FE         [19] 1163 	ld	a, -2 (ix)
    0000035C B7               [ 4] 1164 	or	a, a
    0000035D 28 0B            [12] 1165 	jr	Z, 00163$
    0000035F DD 36 FD 32      [19] 1166 	ld	-3 (ix), #0x32
    00000363 DD 36 FE 00      [19] 1167 	ld	-2 (ix), #0
    00000367 C3r72r03         [10] 1168 	jp	00164$
    0000036A                       1169 00163$:
    0000036A DD 36 FD 33      [19] 1170 	ld	-3 (ix), #0x33
    0000036E DD 36 FE 00      [19] 1171 	ld	-2 (ix), #0
    00000372                       1172 00164$:
    00000372 DD 7E FD         [19] 1173 	ld	a, -3 (ix)
    00000375 DD 77 FE         [19] 1174 	ld	-2 (ix), a
    00000378 DD 6E FA         [19] 1175 	ld	l, -6 (ix)
    0000037B DD 66 FB         [19] 1176 	ld	h, -5 (ix)
    0000037E DD 7E FE         [19] 1177 	ld	a, -2 (ix)
    00000381 77               [ 7] 1178 	ld	(hl), a
    00000382 C3rEBr03         [10] 1179 	jp	00133$
    00000385                       1180 00128$:
                                   1181 ;E:\Dropbox\FAUSTO\SVILUPPI\MSX\CODE\C\MSXgl\projects\soccerlg/soccerlg_s3_b1.c:163: else g_Players[i].PatternId = (animFrame1) ? PLAYER_POSE_CELEBRATION_FRONT_1 : PLAYER_POSE_CELEBRATION_FRONT_2;
    00000385 DD 7E FE         [19] 1182 	ld	a, -2 (ix)
    00000388 B7               [ 4] 1183 	or	a, a
    00000389 28 0B            [12] 1184 	jr	Z, 00165$
    0000038B DD 36 FD 30      [19] 1185 	ld	-3 (ix), #0x30
    0000038F DD 36 FE 00      [19] 1186 	ld	-2 (ix), #0
    00000393 C3r9Er03         [10] 1187 	jp	00166$
    00000396                       1188 00165$:
    00000396 DD 36 FD 31      [19] 1189 	ld	-3 (ix), #0x31
    0000039A DD 36 FE 00      [19] 1190 	ld	-2 (ix), #0
    0000039E                       1191 00166$:
    0000039E DD 7E FD         [19] 1192 	ld	a, -3 (ix)
    000003A1 DD 6E FA         [19] 1193 	ld	l, -6 (ix)
    000003A4 DD 66 FB         [19] 1194 	ld	h, -5 (ix)
    000003A7 77               [ 7] 1195 	ld	(hl), a
    000003A8 C3rEBr03         [10] 1196 	jp	00133$
    000003AB                       1197 00131$:
                                   1198 ;E:\Dropbox\FAUSTO\SVILUPPI\MSX\CODE\C\MSXgl\projects\soccerlg/soccerlg_s3_b1.c:167: bool isUp = (dir == DIRECTION_UP || dir == DIRECTION_UP_LEFT || dir == DIRECTION_UP_RIGHT);
    000003AB DD 7E FE         [19] 1199 	ld	a, -2 (ix)
    000003AE 3D               [ 4] 1200 	dec	a
    000003AF 28 12            [12] 1201 	jr	Z, 00168$
    000003B1 DD 7E FE         [19] 1202 	ld	a, -2 (ix)
    000003B4 D6 08            [ 7] 1203 	sub	a, #0x08
    000003B6 28 0B            [12] 1204 	jr	Z, 00168$
    000003B8 DD 7E FE         [19] 1205 	ld	a, -2 (ix)
    000003BB D6 02            [ 7] 1206 	sub	a, #0x02
    000003BD 28 04            [12] 1207 	jr	Z, 00168$
    000003BF AF               [ 4] 1208 	xor	a, a
    000003C0 C3rC5r03         [10] 1209 	jp	00169$
    000003C3                       1210 00168$:
    000003C3 3E 01            [ 7] 1211 	ld	a, #0x01
    000003C5                       1212 00169$:
                                   1213 ;E:\Dropbox\FAUSTO\SVILUPPI\MSX\CODE\C\MSXgl\projects\soccerlg/soccerlg_s3_b1.c:168: g_Players[i].PatternId = isUp ? PLAYER_POSE_BACK : PLAYER_POSE_FRONT;
    000003C5 B7               [ 4] 1214 	or	a, a
    000003C6 28 0B            [12] 1215 	jr	Z, 00173$
    000003C8 DD 36 FD 11      [19] 1216 	ld	-3 (ix), #0x11
    000003CC DD 36 FE 00      [19] 1217 	ld	-2 (ix), #0
    000003D0 C3rDBr03         [10] 1218 	jp	00174$
    000003D3                       1219 00173$:
    000003D3 DD 36 FD 10      [19] 1220 	ld	-3 (ix), #0x10
    000003D7 DD 36 FE 00      [19] 1221 	ld	-2 (ix), #0
    000003DB                       1222 00174$:
    000003DB DD 7E FD         [19] 1223 	ld	a, -3 (ix)
    000003DE DD 77 FE         [19] 1224 	ld	-2 (ix), a
    000003E1 DD 6E FA         [19] 1225 	ld	l, -6 (ix)
    000003E4 DD 66 FB         [19] 1226 	ld	h, -5 (ix)
    000003E7 DD 7E FE         [19] 1227 	ld	a, -2 (ix)
    000003EA 77               [ 7] 1228 	ld	(hl), a
    000003EB                       1229 00133$:
                                   1230 ;E:\Dropbox\FAUSTO\SVILUPPI\MSX\CODE\C\MSXgl\projects\soccerlg/soccerlg_s3_b1.c:133: for(u8 i=0; i<15; i++){
    000003EB DD 34 FF         [23] 1231 	inc	-1 (ix)
    000003EE C3rE6r01         [10] 1232 	jp	00154$
    000003F1                       1233 00136$:
                                   1234 ;E:\Dropbox\FAUSTO\SVILUPPI\MSX\CODE\C\MSXgl\projects\soccerlg/soccerlg_s3_b1.c:173: if(g_Timer > 150){
    000003F1 3E 96            [ 7] 1235 	ld	a, #0x96
    000003F3 21r00r00         [10] 1236 	ld	hl, #_g_Timer
    000003F6 96               [ 7] 1237 	sub	a, (hl)
    000003F7 D2r18r05         [10] 1238 	jp	NC, 00158$
                                   1239 ;E:/Dropbox/FAUSTO/SVILUPPI/MSX/CODE/C/MSXgl/engine/src/v9990.h:480: inline void V9_SetBackgroundColor(u8 color) { V9_SetRegister(15, color); }
    000003FA 2E 01            [ 7] 1240 	ld	l, #0x01
                                   1241 ;	spillPairReg hl
                                   1242 ;	spillPairReg hl
    000003FC 3E 0F            [ 7] 1243 	ld	a, #0x0f
    000003FE CDr00r00         [17] 1244 	call	_V9_SetRegister
                                   1245 ;E:\Dropbox\FAUSTO\SVILUPPI\MSX\CODE\C\MSXgl\projects\soccerlg/soccerlg_s3_b1.c:175: V9990_ClearTextFromLayerA(12, 18, 8); // "IN  GOAL"
    00000401 3E 08            [ 7] 1246 	ld	a, #0x08
    00000403 F5               [11] 1247 	push	af
    00000404 33               [ 6] 1248 	inc	sp
    00000405 2E 12            [ 7] 1249 	ld	l, #0x12
                                   1250 ;	spillPairReg hl
                                   1251 ;	spillPairReg hl
    00000407 3E 0C            [ 7] 1252 	ld	a, #0x0c
    00000409 CDr00r00         [17] 1253 	call	_V9990_ClearTextFromLayerA
                                   1254 ;E:\Dropbox\FAUSTO\SVILUPPI\MSX\CODE\C\MSXgl\projects\soccerlg/soccerlg_s3_b1.c:177: g_MatchStatus = MATCH_BEFORE_KICK_OFF;
    0000040C 21r00r00         [10] 1255 	ld	hl, #_g_MatchStatus
    0000040F 36 01            [10] 1256 	ld	(hl), #0x01
                                   1257 ;E:\Dropbox\FAUSTO\SVILUPPI\MSX\CODE\C\MSXgl\projects\soccerlg/soccerlg_s3_b1.c:178: g_Ball.PossessionPlayerId = NO_VALUE;
    00000411 21r06r00         [10] 1258 	ld	hl, #(_g_Ball + 6)
    00000414 36 FF            [10] 1259 	ld	(hl), #0xff
                                   1260 ;E:\Dropbox\FAUSTO\SVILUPPI\MSX\CODE\C\MSXgl\projects\soccerlg/soccerlg_s3_b1.c:179: g_Ball.KickMoveState = 0;
    00000416 21r0Dr00         [10] 1261 	ld	hl, #(_g_Ball + 13)
    00000419 36 00            [10] 1262 	ld	(hl), #0x00
                                   1263 ;E:\Dropbox\FAUSTO\SVILUPPI\MSX\CODE\C\MSXgl\projects\soccerlg/soccerlg_s3_b1.c:180: g_Ball.ShotActive = 0;
    0000041B 21r1Br00         [10] 1264 	ld	hl, #(_g_Ball + 27)
    0000041E 36 00            [10] 1265 	ld	(hl), #0x00
                                   1266 ;E:\Dropbox\FAUSTO\SVILUPPI\MSX\CODE\C\MSXgl\projects\soccerlg/soccerlg_s3_b1.c:181: if(g_Team1ActivePlayer!=NO_VALUE) g_Players[g_Team1ActivePlayer].Status=PLAYER_STATUS_NONE;
    00000420 3Ar00r00         [13] 1267 	ld	a, (_g_Team1ActivePlayer+0)
    00000423 3C               [ 4] 1268 	inc	a
    00000424 28 1A            [12] 1269 	jr	Z, 00138$
    00000426 01r00r00         [10] 1270 	ld	bc, #_g_Players+0
    00000429 ED 5Br00r00      [20] 1271 	ld	de, (_g_Team1ActivePlayer)
    0000042D 16 00            [ 7] 1272 	ld	d, #0x00
    0000042F 6B               [ 4] 1273 	ld	l, e
    00000430 62               [ 4] 1274 	ld	h, d
    00000431 29               [11] 1275 	add	hl, hl
    00000432 29               [11] 1276 	add	hl, hl
    00000433 19               [11] 1277 	add	hl, de
    00000434 29               [11] 1278 	add	hl, hl
    00000435 29               [11] 1279 	add	hl, hl
    00000436 19               [11] 1280 	add	hl, de
    00000437 09               [11] 1281 	add	hl, bc
    00000438 01 12 00         [10] 1282 	ld	bc, #0x0012
    0000043B 09               [11] 1283 	add	hl, bc
    0000043C AF               [ 4] 1284 	xor	a, a
    0000043D 77               [ 7] 1285 	ld	(hl), a
    0000043E 23               [ 6] 1286 	inc	hl
    0000043F 77               [ 7] 1287 	ld	(hl), a
    00000440                       1288 00138$:
                                   1289 ;E:\Dropbox\FAUSTO\SVILUPPI\MSX\CODE\C\MSXgl\projects\soccerlg/soccerlg_s3_b1.c:182: if(g_Team2ActivePlayer!=NO_VALUE) g_Players[g_Team2ActivePlayer].Status=PLAYER_STATUS_NONE;
    00000440 3Ar00r00         [13] 1290 	ld	a, (_g_Team2ActivePlayer+0)
    00000443 3C               [ 4] 1291 	inc	a
    00000444 28 1A            [12] 1292 	jr	Z, 00140$
    00000446 01r00r00         [10] 1293 	ld	bc, #_g_Players+0
    00000449 ED 5Br00r00      [20] 1294 	ld	de, (_g_Team2ActivePlayer)
    0000044D 16 00            [ 7] 1295 	ld	d, #0x00
    0000044F 6B               [ 4] 1296 	ld	l, e
    00000450 62               [ 4] 1297 	ld	h, d
    00000451 29               [11] 1298 	add	hl, hl
    00000452 29               [11] 1299 	add	hl, hl
    00000453 19               [11] 1300 	add	hl, de
    00000454 29               [11] 1301 	add	hl, hl
    00000455 29               [11] 1302 	add	hl, hl
    00000456 19               [11] 1303 	add	hl, de
    00000457 09               [11] 1304 	add	hl, bc
    00000458 01 12 00         [10] 1305 	ld	bc, #0x0012
    0000045B 09               [11] 1306 	add	hl, bc
    0000045C AF               [ 4] 1307 	xor	a, a
    0000045D 77               [ 7] 1308 	ld	(hl), a
    0000045E 23               [ 6] 1309 	inc	hl
    0000045F 77               [ 7] 1310 	ld	(hl), a
    00000460                       1311 00140$:
                                   1312 ;E:\Dropbox\FAUSTO\SVILUPPI\MSX\CODE\C\MSXgl\projects\soccerlg/soccerlg_s3_b1.c:183: g_Team1ActivePlayer=NO_VALUE;
    00000460 21r00r00         [10] 1313 	ld	hl, #_g_Team1ActivePlayer
    00000463 36 FF            [10] 1314 	ld	(hl), #0xff
                                   1315 ;E:\Dropbox\FAUSTO\SVILUPPI\MSX\CODE\C\MSXgl\projects\soccerlg/soccerlg_s3_b1.c:184: g_Team2ActivePlayer=NO_VALUE;
    00000465 21r00r00         [10] 1316 	ld	hl, #_g_Team2ActivePlayer
    00000468 36 FF            [10] 1317 	ld	(hl), #0xff
                                   1318 ;E:\Dropbox\FAUSTO\SVILUPPI\MSX\CODE\C\MSXgl\projects\soccerlg/soccerlg_s3_b1.c:186: g_Ball.X = FIELD_POS_X_CENTER;
    0000046A 21 78 00         [10] 1319 	ld	hl, #0x0078
    0000046D 22r02r00         [16] 1320 	ld	((_g_Ball + 2)), hl
                                   1321 ;E:\Dropbox\FAUSTO\SVILUPPI\MSX\CODE\C\MSXgl\projects\soccerlg/soccerlg_s3_b1.c:187: g_Ball.Y = FIELD_POS_Y_CENTER;
    00000470 2E F3            [ 7] 1322 	ld	l, #0xf3
    00000472 22r00r00         [16] 1323 	ld	(_g_Ball), hl
                                   1324 ;E:\Dropbox\FAUSTO\SVILUPPI\MSX\CODE\C\MSXgl\projects\soccerlg/soccerlg_s3_b1.c:188: g_Ball.PreviousY = g_Ball.Y;
    00000475 ED 4Br00r00      [20] 1325 	ld	bc, (#_g_Ball + 0)
    00000479 ED 43r07r00      [20] 1326 	ld	((_g_Ball + 7)), bc
                                   1327 ;E:\Dropbox\FAUSTO\SVILUPPI\MSX\CODE\C\MSXgl\projects\soccerlg/soccerlg_s3_b1.c:189: PutBallSprite();
    0000047D CDr2Fr05         [17] 1328 	call	_PutBallSprite
                                   1329 ;E:\Dropbox\FAUSTO\SVILUPPI\MSX\CODE\C\MSXgl\projects\soccerlg/soccerlg_s3_b1.c:191: for(u8 i=0; i<15; i++){
    00000480 11r00r00         [10] 1330 	ld	de, #_g_Players
    00000483 DD 36 FF 00      [19] 1331 	ld	-1 (ix), #0x00
    00000487                       1332 00156$:
    00000487 DD 7E FF         [19] 1333 	ld	a, -1 (ix)
    0000048A D6 0F            [ 7] 1334 	sub	a, #0x0f
    0000048C D2r13r05         [10] 1335 	jp	NC, 00147$
                                   1336 ;E:\Dropbox\FAUSTO\SVILUPPI\MSX\CODE\C\MSXgl\projects\soccerlg/soccerlg_s3_b1.c:192: if(i==REFEREE || g_Players[i].TeamId==TEAM_1 || g_Players[i].TeamId==TEAM_2){
    0000048F DD 7E FF         [19] 1337 	ld	a, -1 (ix)
    00000492 D6 0E            [ 7] 1338 	sub	a, #0x0e
    00000494 3E 01            [ 7] 1339 	ld	a, #0x01
    00000496 28 01            [12] 1340 	jr	Z, 00397$
    00000498 AF               [ 4] 1341 	xor	a, a
    00000499                       1342 00397$:
    00000499 4F               [ 4] 1343 	ld	c, a
    0000049A B7               [ 4] 1344 	or	a, a
    0000049B 20 24            [12] 1345 	jr	NZ, 00143$
    0000049D D5               [11] 1346 	push	de
    0000049E DD 5E FF         [19] 1347 	ld	e, -1 (ix)
    000004A1 16 00            [ 7] 1348 	ld	d, #0x00
    000004A3 6B               [ 4] 1349 	ld	l, e
    000004A4 62               [ 4] 1350 	ld	h, d
    000004A5 29               [11] 1351 	add	hl, hl
    000004A6 29               [11] 1352 	add	hl, hl
    000004A7 19               [11] 1353 	add	hl, de
    000004A8 29               [11] 1354 	add	hl, hl
    000004A9 29               [11] 1355 	add	hl, hl
    000004AA 19               [11] 1356 	add	hl, de
    000004AB D1               [10] 1357 	pop	de
    000004AC FD 21r00r00      [14] 1358 	ld	iy, #_g_Players
    000004B0 C5               [11] 1359 	push	bc
    000004B1 4D               [ 4] 1360 	ld	c, l
    000004B2 44               [ 4] 1361 	ld	b, h
    000004B3 FD 09            [15] 1362 	add	iy, bc
    000004B5 C1               [10] 1363 	pop	bc
    000004B6 FD 7E 09         [19] 1364 	ld	a, 9 (iy)
    000004B9 FE 01            [ 7] 1365 	cp	a, #0x01
    000004BB 28 04            [12] 1366 	jr	Z, 00143$
    000004BD D6 02            [ 7] 1367 	sub	a, #0x02
    000004BF 20 4C            [12] 1368 	jr	NZ, 00157$
    000004C1                       1369 00143$:
                                   1370 ;E:\Dropbox\FAUSTO\SVILUPPI\MSX\CODE\C\MSXgl\projects\soccerlg/soccerlg_s3_b1.c:194: if (i==REFEREE) {
    000004C1 79               [ 4] 1371 	ld	a, c
    000004C2 B7               [ 4] 1372 	or	a, a
    000004C3 28 39            [12] 1373 	jr	Z, 00142$
                                   1374 ;E:\Dropbox\FAUSTO\SVILUPPI\MSX\CODE\C\MSXgl\projects\soccerlg/soccerlg_s3_b1.c:195: g_Players[i].Direction=DIRECTION_RIGHT;
    000004C5 DD 4E FF         [19] 1375 	ld	c, -1 (ix)
    000004C8 06 00            [ 7] 1376 	ld	b, #0x00
    000004CA 69               [ 4] 1377 	ld	l, c
    000004CB 60               [ 4] 1378 	ld	h, b
    000004CC 29               [11] 1379 	add	hl, hl
    000004CD 29               [11] 1380 	add	hl, hl
    000004CE 09               [11] 1381 	add	hl, bc
    000004CF 29               [11] 1382 	add	hl, hl
    000004D0 29               [11] 1383 	add	hl, hl
    000004D1 09               [11] 1384 	add	hl, bc
    000004D2 DD 75 FB         [19] 1385 	ld	-5 (ix), l
    000004D5 DD 74 FC         [19] 1386 	ld	-4 (ix), h
    000004D8 7B               [ 4] 1387 	ld	a, e
    000004D9 DD 86 FB         [19] 1388 	add	a, -5 (ix)
    000004DC DD 77 FD         [19] 1389 	ld	-3 (ix), a
    000004DF 7A               [ 4] 1390 	ld	a, d
    000004E0 DD 8E FC         [19] 1391 	adc	a, -4 (ix)
    000004E3 DD 77 FE         [19] 1392 	ld	-2 (ix), a
    000004E6 DD 6E FD         [19] 1393 	ld	l, -3 (ix)
    000004E9 DD 66 FE         [19] 1394 	ld	h, -2 (ix)
    000004EC 01 0A 00         [10] 1395 	ld	bc, #0x000a
    000004EF 09               [11] 1396 	add	hl, bc
    000004F0 36 03            [10] 1397 	ld	(hl), #0x03
                                   1398 ;E:\Dropbox\FAUSTO\SVILUPPI\MSX\CODE\C\MSXgl\projects\soccerlg/soccerlg_s3_b1.c:196: g_Players[i].LastPose=0;
    000004F2 DD 6E FD         [19] 1399 	ld	l, -3 (ix)
    000004F5 DD 66 FE         [19] 1400 	ld	h, -2 (ix)
    000004F8 01 0C 00         [10] 1401 	ld	bc, #0x000c
    000004FB 09               [11] 1402 	add	hl, bc
    000004FC 36 00            [10] 1403 	ld	(hl), #0x00
    000004FE                       1404 00142$:
                                   1405 ;E:\Dropbox\FAUSTO\SVILUPPI\MSX\CODE\C\MSXgl\projects\soccerlg/soccerlg_s3_b1.c:198: Trampoline_VOID_P1(4,SetPlayerTarget,i);
    000004FE D5               [11] 1406 	push	de
    000004FF DD 7E FF         [19] 1407 	ld	a, -1 (ix)
    00000502 F5               [11] 1408 	push	af
    00000503 33               [ 6] 1409 	inc	sp
    00000504 11r00r00         [10] 1410 	ld	de, #_SetPlayerTarget
    00000507 3E 04            [ 7] 1411 	ld	a, #0x04
    00000509 CDr00r00         [17] 1412 	call	_Trampoline_VOID_P1
    0000050C D1               [10] 1413 	pop	de
    0000050D                       1414 00157$:
                                   1415 ;E:\Dropbox\FAUSTO\SVILUPPI\MSX\CODE\C\MSXgl\projects\soccerlg/soccerlg_s3_b1.c:191: for(u8 i=0; i<15; i++){
    0000050D DD 34 FF         [23] 1416 	inc	-1 (ix)
    00000510 C3r87r04         [10] 1417 	jp	00156$
    00000513                       1418 00147$:
                                   1419 ;E:\Dropbox\FAUSTO\SVILUPPI\MSX\CODE\C\MSXgl\projects\soccerlg/soccerlg_s3_b1.c:203: g_FieldScrollingActionInProgress=FIELD_CENTRAL_ZONE;
    00000513 21r00r00         [10] 1420 	ld	hl, #_g_FieldScrollingActionInProgress
    00000516 36 01            [10] 1421 	ld	(hl), #0x01
    00000518                       1422 00158$:
                                   1423 ;E:\Dropbox\FAUSTO\SVILUPPI\MSX\CODE\C\MSXgl\projects\soccerlg/soccerlg_s3_b1.c:205: }
    00000518 DD F9            [10] 1424 	ld	sp, ix
    0000051A DD E1            [14] 1425 	pop	ix
    0000051C C9               [10] 1426 	ret
    0000051D                       1427 _TickGoalCelebration_k_CelebDX_131073_1162:
    0000051D 00                    1428 	.db #0x00	;  0
    0000051E 00                    1429 	.db #0x00	;  0
    0000051F 01                    1430 	.db #0x01	;  1
    00000520 01                    1431 	.db #0x01	;  1
    00000521 01                    1432 	.db #0x01	;  1
    00000522 00                    1433 	.db #0x00	;  0
    00000523 FF                    1434 	.db #0xff	; -1
    00000524 FF                    1435 	.db #0xff	; -1
    00000525 FF                    1436 	.db #0xff	; -1
    00000526                       1437 _TickGoalCelebration_k_CelebDY_131073_1162:
    00000526 00                    1438 	.db #0x00	;  0
    00000527 FF                    1439 	.db #0xff	; -1
    00000528 FF                    1440 	.db #0xff	; -1
    00000529 00                    1441 	.db #0x00	;  0
    0000052A 01                    1442 	.db #0x01	;  1
    0000052B 01                    1443 	.db #0x01	;  1
    0000052C 01                    1444 	.db #0x01	;  1
    0000052D 00                    1445 	.db #0x00	;  0
    0000052E FF                    1446 	.db #0xff	; -1
                                   1447 ;E:\Dropbox\FAUSTO\SVILUPPI\MSX\CODE\C\MSXgl\projects\soccerlg/soccerlg_s3_b1.c:207: void PutBallSprite(){
                                   1448 ;	---------------------------------
                                   1449 ; Function PutBallSprite
                                   1450 ; ---------------------------------
    0000052F                       1451 _PutBallSprite::
    0000052F DD E5            [15] 1452 	push	ix
    00000531 DD 21 00 00      [14] 1453 	ld	ix,#0
    00000535 DD 39            [15] 1454 	add	ix,sp
    00000537 21 F8 FF         [10] 1455 	ld	hl, #-8
    0000053A 39               [11] 1456 	add	hl, sp
    0000053B F9               [ 6] 1457 	ld	sp, hl
                                   1458 ;E:\Dropbox\FAUSTO\SVILUPPI\MSX\CODE\C\MSXgl\projects\soccerlg/soccerlg_s3_b1.c:209: attr.D=0;
    0000053C 21 00 00         [10] 1459 	ld	hl, #0
    0000053F 39               [11] 1460 	add	hl, sp
    00000540 4D               [ 4] 1461 	ld	c, l
    00000541 44               [ 4] 1462 	ld	b, h
    00000542 21 03 00         [10] 1463 	ld	hl, #3
    00000545 39               [11] 1464 	add	hl, sp
    00000546 CB A6            [15] 1465 	res	4, (hl)
                                   1466 ;E:\Dropbox\FAUSTO\SVILUPPI\MSX\CODE\C\MSXgl\projects\soccerlg/soccerlg_s3_b1.c:210: attr.SC=0;
    00000548 21 03 00         [10] 1467 	ld	hl, #3
    0000054B 39               [11] 1468 	add	hl, sp
    0000054C 7E               [ 7] 1469 	ld	a, (hl)
    0000054D E6 3F            [ 7] 1470 	and	a, #0x3f
    0000054F 77               [ 7] 1471 	ld	(hl), a
                                   1472 ;E:\Dropbox\FAUSTO\SVILUPPI\MSX\CODE\C\MSXgl\projects\soccerlg/soccerlg_s3_b1.c:211: attr.Y = g_Ball.Y-g_FieldCurrentYPosition;
    00000550 21r00r00         [10] 1473 	ld	hl, #_g_Ball+0
    00000553 56               [ 7] 1474 	ld	d, (hl)
    00000554 3Ar00r00         [13] 1475 	ld	a, (_g_FieldCurrentYPosition+0)
    00000557 5F               [ 4] 1476 	ld	e, a
    00000558 7A               [ 4] 1477 	ld	a, d
    00000559 93               [ 4] 1478 	sub	a, e
    0000055A 02               [ 7] 1479 	ld	(bc), a
                                   1480 ;E:\Dropbox\FAUSTO\SVILUPPI\MSX\CODE\C\MSXgl\projects\soccerlg/soccerlg_s3_b1.c:214: u8 logicalSize = g_Ball.Size;
    0000055B 21r04r00         [10] 1481 	ld	hl, #_g_Ball + 4
    0000055E 5E               [ 7] 1482 	ld	e, (hl)
                                   1483 ;E:\Dropbox\FAUSTO\SVILUPPI\MSX\CODE\C\MSXgl\projects\soccerlg/soccerlg_s3_b1.c:216: if (g_Ball.PossessionPlayerId != NO_VALUE) logicalSize = 1;
    0000055F 3Ar06r00         [13] 1484 	ld	a, (#_g_Ball + 6)
    00000562 3C               [ 4] 1485 	inc	a
    00000563 28 02            [12] 1486 	jr	Z, 00102$
    00000565 1E 01            [ 7] 1487 	ld	e, #0x01
    00000567                       1488 00102$:
                                   1489 ;E:\Dropbox\FAUSTO\SVILUPPI\MSX\CODE\C\MSXgl\projects\soccerlg/soccerlg_s3_b1.c:218: if (logicalSize == 0) logicalSize = 1;
    00000567 7B               [ 4] 1490 	ld	a, e
    00000568 B7               [ 4] 1491 	or	a, a
    00000569 20 02            [12] 1492 	jr	NZ, 00104$
    0000056B 1E 01            [ 7] 1493 	ld	e, #0x01
    0000056D                       1494 00104$:
                                   1495 ;E:\Dropbox\FAUSTO\SVILUPPI\MSX\CODE\C\MSXgl\projects\soccerlg/soccerlg_s3_b1.c:219: if (logicalSize > 4) logicalSize = 4;
    0000056D 3E 04            [ 7] 1496 	ld	a, #0x04
    0000056F 93               [ 4] 1497 	sub	a, e
    00000570 30 02            [12] 1498 	jr	NC, 00106$
    00000572 1E 04            [ 7] 1499 	ld	e, #0x04
    00000574                       1500 00106$:
                                   1501 ;E:\Dropbox\FAUSTO\SVILUPPI\MSX\CODE\C\MSXgl\projects\soccerlg/soccerlg_s3_b1.c:224: bool rawMovement = (g_Ball.OldX != g_Ball.X || g_Ball.OldY != g_Ball.Y);
    00000574 21r09r00         [10] 1502 	ld	hl, #(_g_Ball + 9)
    00000577 7E               [ 7] 1503 	ld	a, (hl)
    00000578 DD 77 FE         [19] 1504 	ld	-2 (ix), a
    0000057B 23               [ 6] 1505 	inc	hl
    0000057C 7E               [ 7] 1506 	ld	a, (hl)
    0000057D DD 77 FF         [19] 1507 	ld	-1 (ix), a
    00000580 21r02r00         [10] 1508 	ld	hl, #(_g_Ball + 2)
    00000583 7E               [ 7] 1509 	ld	a, (hl)
    00000584 DD 77 FC         [19] 1510 	ld	-4 (ix), a
    00000587 23               [ 6] 1511 	inc	hl
    00000588 7E               [ 7] 1512 	ld	a, (hl)
    00000589 DD 77 FD         [19] 1513 	ld	-3 (ix), a
    0000058C DD 7E FE         [19] 1514 	ld	a, -2 (ix)
    0000058F DD 96 FC         [19] 1515 	sub	a, -4 (ix)
    00000592 20 28            [12] 1516 	jr	NZ, 00117$
    00000594 DD 7E FF         [19] 1517 	ld	a, -1 (ix)
    00000597 DD 96 FD         [19] 1518 	sub	a, -3 (ix)
    0000059A 20 20            [12] 1519 	jr	NZ, 00117$
    0000059C 21r0Br00         [10] 1520 	ld	hl, #(_g_Ball + 11)
    0000059F 7E               [ 7] 1521 	ld	a, (hl)
    000005A0 DD 77 FE         [19] 1522 	ld	-2 (ix), a
    000005A3 23               [ 6] 1523 	inc	hl
    000005A4 7E               [ 7] 1524 	ld	a, (hl)
    000005A5 DD 77 FF         [19] 1525 	ld	-1 (ix), a
    000005A8 2Ar00r00         [16] 1526 	ld	hl, (#_g_Ball + 0)
    000005AB 7D               [ 4] 1527 	ld	a, l
    000005AC DD 96 FE         [19] 1528 	sub	a, -2 (ix)
    000005AF 20 0B            [12] 1529 	jr	NZ, 00117$
    000005B1 7C               [ 4] 1530 	ld	a, h
    000005B2 DD 96 FF         [19] 1531 	sub	a, -1 (ix)
    000005B5 20 05            [12] 1532 	jr	NZ, 00117$
    000005B7 16 00            [ 7] 1533 	ld	d, #0x00
    000005B9 C3rBEr05         [10] 1534 	jp	00118$
    000005BC                       1535 00117$:
    000005BC 16 01            [ 7] 1536 	ld	d, #0x01
    000005BE                       1537 00118$:
                                   1538 ;E:\Dropbox\FAUSTO\SVILUPPI\MSX\CODE\C\MSXgl\projects\soccerlg/soccerlg_s3_b1.c:227: g_Ball.OldX = g_Ball.X;
    000005BE 21r09r00         [10] 1539 	ld	hl, #(_g_Ball + 9)
    000005C1 DD 7E FC         [19] 1540 	ld	a, -4 (ix)
    000005C4 77               [ 7] 1541 	ld	(hl), a
    000005C5 23               [ 6] 1542 	inc	hl
    000005C6 DD 7E FD         [19] 1543 	ld	a, -3 (ix)
    000005C9 77               [ 7] 1544 	ld	(hl), a
                                   1545 ;E:\Dropbox\FAUSTO\SVILUPPI\MSX\CODE\C\MSXgl\projects\soccerlg/soccerlg_s3_b1.c:228: g_Ball.OldY = g_Ball.Y;
    000005CA 21r00r00         [10] 1546 	ld	hl, #_g_Ball
    000005CD 7E               [ 7] 1547 	ld	a, (hl)
    000005CE DD 77 FE         [19] 1548 	ld	-2 (ix), a
    000005D1 23               [ 6] 1549 	inc	hl
    000005D2 7E               [ 7] 1550 	ld	a, (hl)
    000005D3 DD 77 FF         [19] 1551 	ld	-1 (ix), a
    000005D6 21r0Br00         [10] 1552 	ld	hl, #(_g_Ball + 11)
    000005D9 DD 7E FE         [19] 1553 	ld	a, -2 (ix)
    000005DC 77               [ 7] 1554 	ld	(hl), a
    000005DD 23               [ 6] 1555 	inc	hl
    000005DE DD 7E FF         [19] 1556 	ld	a, -1 (ix)
    000005E1 77               [ 7] 1557 	ld	(hl), a
                                   1558 ;E:\Dropbox\FAUSTO\SVILUPPI\MSX\CODE\C\MSXgl\projects\soccerlg/soccerlg_s3_b1.c:230: if (rawMovement) {
    000005E2 7A               [ 4] 1559 	ld	a, d
    000005E3 B7               [ 4] 1560 	or	a, a
    000005E4 28 08            [12] 1561 	jr	Z, 00110$
                                   1562 ;E:\Dropbox\FAUSTO\SVILUPPI\MSX\CODE\C\MSXgl\projects\soccerlg/soccerlg_s3_b1.c:231: s_StopCooldown = 15; // Keep animation active for ~1/4 sec after last move
    000005E6 3E 0F            [ 7] 1563 	ld	a, #0x0f
    000005E8 32r00r00         [13] 1564 	ld	(#_PutBallSprite_s_StopCooldown_65538_1187), a
    000005EB C3rFBr05         [10] 1565 	jp	00111$
    000005EE                       1566 00110$:
                                   1567 ;E:\Dropbox\FAUSTO\SVILUPPI\MSX\CODE\C\MSXgl\projects\soccerlg/soccerlg_s3_b1.c:233: if (s_StopCooldown > 0) s_StopCooldown--;
    000005EE 3Ar00r00         [13] 1568 	ld	a, (_PutBallSprite_s_StopCooldown_65538_1187+0)
    000005F1 B7               [ 4] 1569 	or	a, a
    000005F2 28 07            [12] 1570 	jr	Z, 00111$
    000005F4 FD 21r00r00      [14] 1571 	ld	iy, #_PutBallSprite_s_StopCooldown_65538_1187
    000005F8 FD 35 00         [23] 1572 	dec	0 (iy)
    000005FB                       1573 00111$:
                                   1574 ;E:\Dropbox\FAUSTO\SVILUPPI\MSX\CODE\C\MSXgl\projects\soccerlg/soccerlg_s3_b1.c:236: bool isAnimating = (s_StopCooldown > 0);
    000005FB 3Ar00r00         [13] 1575 	ld	a, (_PutBallSprite_s_StopCooldown_65538_1187+0)
    000005FE B7               [ 4] 1576 	or	a, a
    000005FF 3E 01            [ 7] 1577 	ld	a, #0x01
    00000601 20 01            [12] 1578 	jr	NZ, 00120$
    00000603 AF               [ 4] 1579 	xor	a, a
    00000604                       1580 00120$:
                                   1581 ;E:\Dropbox\FAUSTO\SVILUPPI\MSX\CODE\C\MSXgl\projects\soccerlg/soccerlg_s3_b1.c:240: bool useAlt = isAnimating && ((g_FrameCounter & 8) != 0);
    00000604 B7               [ 4] 1582 	or	a, a
    00000605 28 07            [12] 1583 	jr	Z, 00121$
    00000607 3Ar00r00         [13] 1584 	ld	a, (_g_FrameCounter+0)
    0000060A CB 5F            [ 8] 1585 	bit	3, a
    0000060C 20 04            [12] 1586 	jr	NZ, 00122$
    0000060E                       1587 00121$:
    0000060E AF               [ 4] 1588 	xor	a, a
    0000060F C3r14r06         [10] 1589 	jp	00123$
    00000612                       1590 00122$:
    00000612 3E 01            [ 7] 1591 	ld	a, #0x01
    00000614                       1592 00123$:
                                   1593 ;E:\Dropbox\FAUSTO\SVILUPPI\MSX\CODE\C\MSXgl\projects\soccerlg/soccerlg_s3_b1.c:247: u8 idx = (logicalSize - 1) * 2 + (useAlt ? 1 : 0);
    00000614 6B               [ 4] 1594 	ld	l, e
                                   1595 ;	spillPairReg hl
                                   1596 ;	spillPairReg hl
    00000615 2D               [ 4] 1597 	dec	l
    00000616 CB 25            [ 8] 1598 	sla	l
    00000618 B7               [ 4] 1599 	or	a, a
    00000619 28 06            [12] 1600 	jr	Z, 00124$
    0000061B 11 01 00         [10] 1601 	ld	de, #0x0001
    0000061E C3r24r06         [10] 1602 	jp	00125$
    00000621                       1603 00124$:
    00000621 11 00 00         [10] 1604 	ld	de, #0x0000
    00000624                       1605 00125$:
    00000624 19               [11] 1606 	add	hl, de
                                   1607 ;E:\Dropbox\FAUSTO\SVILUPPI\MSX\CODE\C\MSXgl\projects\soccerlg/soccerlg_s3_b1.c:248: attr.Pattern = k_BallPatterns[idx & 7];
    00000625 11r7Ar06         [10] 1608 	ld	de, #_PutBallSprite_k_BallPatterns_65539_1190+0
    00000628 7D               [ 4] 1609 	ld	a, l
                                   1610 ;	spillPairReg hl
                                   1611 ;	spillPairReg hl
    00000629 E6 07            [ 7] 1612 	and	a, #0x07
    0000062B 26 00            [ 7] 1613 	ld	h, #0x00
                                   1614 ;	spillPairReg hl
                                   1615 ;	spillPairReg hl
    0000062D 6F               [ 4] 1616 	ld	l, a
    0000062E 19               [11] 1617 	add	hl, de
    0000062F 7E               [ 7] 1618 	ld	a, (hl)
    00000630 DD 77 F9         [19] 1619 	ld	-7 (ix), a
                                   1620 ;E:\Dropbox\FAUSTO\SVILUPPI\MSX\CODE\C\MSXgl\projects\soccerlg/soccerlg_s3_b1.c:250: attr.X = g_Ball.X;
    00000633 ED 5Br02r00      [20] 1621 	ld	de, (#(_g_Ball + 2) + 0)
    00000637 21 02 00         [10] 1622 	ld	hl, #2
    0000063A 39               [11] 1623 	add	hl, sp
    0000063B 73               [ 7] 1624 	ld	(hl), e
    0000063C 23               [ 6] 1625 	inc	hl
    0000063D 7A               [ 4] 1626 	ld	a, d
    0000063E E6 03            [ 7] 1627 	and	a, #0x03
    00000640 C5               [11] 1628 	push	bc
    00000641 4F               [ 4] 1629 	ld	c,a
    00000642 7E               [ 7] 1630 	ld	a, (hl)
    00000643 E6 FC            [ 7] 1631 	and	a, #0xfc
    00000645 B1               [ 4] 1632 	or	a, c
    00000646 C1               [10] 1633 	pop	bc
    00000647 77               [ 7] 1634 	ld	(hl), a
                                   1635 ;E:\Dropbox\FAUSTO\SVILUPPI\MSX\CODE\C\MSXgl\projects\soccerlg/soccerlg_s3_b1.c:251: attr.P = attr.D;
    00000648 21 03 00         [10] 1636 	ld	hl, #3
    0000064B 39               [11] 1637 	add	hl, sp
    0000064C 7E               [ 7] 1638 	ld	a, (hl)
    0000064D 07               [ 4] 1639 	rlca
    0000064E 07               [ 4] 1640 	rlca
    0000064F 07               [ 4] 1641 	rlca
    00000650 07               [ 4] 1642 	rlca
    00000651 E6 01            [ 7] 1643 	and	a, #0x01
    00000653 21 03 00         [10] 1644 	ld	hl, #3
    00000656 39               [11] 1645 	add	hl, sp
    00000657 0F               [ 4] 1646 	rrca
    00000658 0F               [ 4] 1647 	rrca
    00000659 0F               [ 4] 1648 	rrca
    0000065A E6 20            [ 7] 1649 	and	a, #0x20
    0000065C 5F               [ 4] 1650 	ld	e, a
    0000065D 7E               [ 7] 1651 	ld	a, (hl)
    0000065E E6 DF            [ 7] 1652 	and	a, #0xdf
    00000660 B3               [ 4] 1653 	or	a, e
    00000661 77               [ 7] 1654 	ld	(hl), a
                                   1655 ;E:\Dropbox\FAUSTO\SVILUPPI\MSX\CODE\C\MSXgl\projects\soccerlg/soccerlg_s3_b1.c:252: V9_SetSpriteP1(15, &attr);
                                   1656 ;E:/Dropbox/FAUSTO/SVILUPPI/MSX/CODE/C/MSXgl/engine/src/v9990.h:781: inline void V9_SetSpriteP1(u8 id, const V9_Sprite* attr) { V9_WriteVRAM(V9_P1_SPAT + (id * 4), (const u8*)attr, 4); }
                                   1657 ;E:/Dropbox/FAUSTO/SVILUPPI/MSX/CODE/C/MSXgl/engine/src/v9990.h:371: inline void V9_WriteVRAM(u32 addr, const u8* src, u16 count) { V9_SetWriteAddress(addr); V9_WriteVRAM_CurrentAddr(src, count); }
    00000662 11 3C FE         [10] 1658 	ld	de, #0xfe3c
    00000665 21 03 00         [10] 1659 	ld	hl, #0x0003
    00000668 CDr00r00         [17] 1660 	call	_V9_SetWriteAddress
    0000066B 11 04 00         [10] 1661 	ld	de, #0x0004
    0000066E 21 00 00         [10] 1662 	ld	hl, #0
    00000671 39               [11] 1663 	add	hl, sp
    00000672 CDr00r00         [17] 1664 	call	_V9_WriteVRAM_CurrentAddr
                                   1665 ;E:\Dropbox\FAUSTO\SVILUPPI\MSX\CODE\C\MSXgl\projects\soccerlg/soccerlg_s3_b1.c:252: V9_SetSpriteP1(15, &attr);
                                   1666 ;E:\Dropbox\FAUSTO\SVILUPPI\MSX\CODE\C\MSXgl\projects\soccerlg/soccerlg_s3_b1.c:253: }
    00000675 DD F9            [10] 1667 	ld	sp, ix
    00000677 DD E1            [14] 1668 	pop	ix
    00000679 C9               [10] 1669 	ret
    0000067A                       1670 _PutBallSprite_k_BallPatterns_65539_1190:
    0000067A 39                    1671 	.db #0x39	; 57	'9'
    0000067B 3A                    1672 	.db #0x3a	; 58
    0000067C 3B                    1673 	.db #0x3b	; 59
    0000067D 3C                    1674 	.db #0x3c	; 60
    0000067E 3D                    1675 	.db #0x3d	; 61
    0000067F 3E                    1676 	.db #0x3e	; 62
    00000680 3F                    1677 	.db #0x3f	; 63
    00000681 74                    1678 	.db #0x74	; 116	't'
                                   1679 ;E:\Dropbox\FAUSTO\SVILUPPI\MSX\CODE\C\MSXgl\projects\soccerlg/soccerlg_s3_b1.c:256: void TickPonPonGirlsAnimation(){
                                   1680 ;	---------------------------------
                                   1681 ; Function TickPonPonGirlsAnimation
                                   1682 ; ---------------------------------
    00000682                       1683 _TickPonPonGirlsAnimation::
                                   1684 ;E:\Dropbox\FAUSTO\SVILUPPI\MSX\CODE\C\MSXgl\projects\soccerlg/soccerlg_s3_b1.c:257: if(g_MatchStatus!=MATCH_AFTER_IN_GOAL){
    00000682 3Ar00r00         [13] 1685 	ld	a, (_g_MatchStatus+0)
    00000685 D6 06            [ 7] 1686 	sub	a, #0x06
    00000687 28 0E            [12] 1687 	jr	Z, 00104$
                                   1688 ;E:\Dropbox\FAUSTO\SVILUPPI\MSX\CODE\C\MSXgl\projects\soccerlg/soccerlg_s3_b1.c:258: if(!g_ponPonGirlsInitailized){
    00000689 3Ar00r00         [13] 1689 	ld	a, (_g_ponPonGirlsInitailized+0)
    0000068C B7               [ 4] 1690 	or	a, a
    0000068D C0               [11] 1691 	ret	NZ
                                   1692 ;E:\Dropbox\FAUSTO\SVILUPPI\MSX\CODE\C\MSXgl\projects\soccerlg/soccerlg_s3_b1.c:259: InitPonPonGirls();
    0000068E CDrF2r00         [17] 1693 	call	_InitPonPonGirls
                                   1694 ;E:\Dropbox\FAUSTO\SVILUPPI\MSX\CODE\C\MSXgl\projects\soccerlg/soccerlg_s3_b1.c:260: g_ponPonGirlsInitailized=true;
    00000691 21r00r00         [10] 1695 	ld	hl, #_g_ponPonGirlsInitailized
    00000694 36 01            [10] 1696 	ld	(hl), #0x01
                                   1697 ;E:\Dropbox\FAUSTO\SVILUPPI\MSX\CODE\C\MSXgl\projects\soccerlg/soccerlg_s3_b1.c:263: return;
    00000696 C9               [10] 1698 	ret
    00000697                       1699 00104$:
                                   1700 ;E:\Dropbox\FAUSTO\SVILUPPI\MSX\CODE\C\MSXgl\projects\soccerlg/soccerlg_s3_b1.c:265: g_ponPonGirlsInitailized=false;
    00000697 21r00r00         [10] 1701 	ld	hl, #_g_ponPonGirlsInitailized
    0000069A 36 00            [10] 1702 	ld	(hl), #0x00
                                   1703 ;E:\Dropbox\FAUSTO\SVILUPPI\MSX\CODE\C\MSXgl\projects\soccerlg/soccerlg_s3_b1.c:266: if(g_PonPonGrilsPoseCounter==PON_PON_GIRLS_POSE_SPEED){
    0000069C 3Ar00r00         [13] 1704 	ld	a, (_g_PonPonGrilsPoseCounter+0)
    0000069F D6 03            [ 7] 1705 	sub	a, #0x03
    000006A1 20 08            [12] 1706 	jr	NZ, 00106$
                                   1707 ;E:\Dropbox\FAUSTO\SVILUPPI\MSX\CODE\C\MSXgl\projects\soccerlg/soccerlg_s3_b1.c:267: g_PonPonGrilsPoseCounter=0;
    000006A3 21r00r00         [10] 1708 	ld	hl, #_g_PonPonGrilsPoseCounter
    000006A6 36 00            [10] 1709 	ld	(hl), #0x00
    000006A8 C3rB0r06         [10] 1710 	jp	00107$
    000006AB                       1711 00106$:
                                   1712 ;E:\Dropbox\FAUSTO\SVILUPPI\MSX\CODE\C\MSXgl\projects\soccerlg/soccerlg_s3_b1.c:270: g_PonPonGrilsPoseCounter++;
    000006AB 21r00r00         [10] 1713 	ld	hl, #_g_PonPonGrilsPoseCounter
    000006AE 34               [11] 1714 	inc	(hl)
                                   1715 ;E:\Dropbox\FAUSTO\SVILUPPI\MSX\CODE\C\MSXgl\projects\soccerlg/soccerlg_s3_b1.c:271: return;
    000006AF C9               [10] 1716 	ret
    000006B0                       1717 00107$:
                                   1718 ;E:\Dropbox\FAUSTO\SVILUPPI\MSX\CODE\C\MSXgl\projects\soccerlg/soccerlg_s3_b1.c:276: g_ponPonPatternIndex++;
    000006B0 FD 21r00r00      [14] 1719 	ld	iy, #_g_ponPonPatternIndex
    000006B4 FD 34 00         [23] 1720 	inc	0 (iy)
                                   1721 ;E:\Dropbox\FAUSTO\SVILUPPI\MSX\CODE\C\MSXgl\projects\soccerlg/soccerlg_s3_b1.c:277: if(g_ponPonPatternIndex >= 9) g_ponPonPatternIndex = 0;
    000006B7 3Ar00r00         [13] 1722 	ld	a, (_g_ponPonPatternIndex+0)
    000006BA D6 09            [ 7] 1723 	sub	a, #0x09
    000006BC 38 04            [12] 1724 	jr	C, 00109$
    000006BE FD 36 00 00      [19] 1725 	ld	0 (iy), #0x00
    000006C2                       1726 00109$:
                                   1727 ;E:\Dropbox\FAUSTO\SVILUPPI\MSX\CODE\C\MSXgl\projects\soccerlg/soccerlg_s3_b1.c:279: u8 pat = g_GirlPatterns[g_ponPonPatternIndex];
    000006C2 01r65r00         [10] 1728 	ld	bc, #_g_GirlPatterns+0
    000006C5 2Ar00r00         [16] 1729 	ld	hl, (_g_ponPonPatternIndex)
    000006C8 26 00            [ 7] 1730 	ld	h, #0x00
    000006CA 09               [11] 1731 	add	hl, bc
    000006CB 4E               [ 7] 1732 	ld	c, (hl)
                                   1733 ;E:\Dropbox\FAUSTO\SVILUPPI\MSX\CODE\C\MSXgl\projects\soccerlg/soccerlg_s3_b1.c:281: for(u8 i=0; i<6; i++){
    000006CC 06 00            [ 7] 1734 	ld	b, #0x00
    000006CE                       1735 00112$:
    000006CE 78               [ 4] 1736 	ld	a, b
    000006CF D6 06            [ 7] 1737 	sub	a, #0x06
    000006D1 30 1B            [12] 1738 	jr	NC, 00110$
                                   1739 ;E:\Dropbox\FAUSTO\SVILUPPI\MSX\CODE\C\MSXgl\projects\soccerlg/soccerlg_s3_b1.c:282: g_PonPonGirls[i].PatternId = pat;
    000006D3 58               [ 4] 1740 	ld	e, b
    000006D4 16 00            [ 7] 1741 	ld	d, #0x00
    000006D6 6B               [ 4] 1742 	ld	l, e
    000006D7 62               [ 4] 1743 	ld	h, d
    000006D8 29               [11] 1744 	add	hl, hl
    000006D9 29               [11] 1745 	add	hl, hl
    000006DA 19               [11] 1746 	add	hl, de
    000006DB 11r00r00         [10] 1747 	ld	de, #_g_PonPonGirls
    000006DE 19               [11] 1748 	add	hl, de
    000006DF 11 04 00         [10] 1749 	ld	de, #0x0004
    000006E2 19               [11] 1750 	add	hl, de
    000006E3 71               [ 7] 1751 	ld	(hl), c
                                   1752 ;E:\Dropbox\FAUSTO\SVILUPPI\MSX\CODE\C\MSXgl\projects\soccerlg/soccerlg_s3_b1.c:283: PutPonPonGirlSprite(i);
    000006E4 C5               [11] 1753 	push	bc
    000006E5 78               [ 4] 1754 	ld	a, b
    000006E6 CDr93r07         [17] 1755 	call	_PutPonPonGirlSprite
    000006E9 C1               [10] 1756 	pop	bc
                                   1757 ;E:\Dropbox\FAUSTO\SVILUPPI\MSX\CODE\C\MSXgl\projects\soccerlg/soccerlg_s3_b1.c:281: for(u8 i=0; i<6; i++){
    000006EA 04               [ 4] 1758 	inc	b
    000006EB C3rCEr06         [10] 1759 	jp	00112$
    000006EE                       1760 00110$:
                                   1761 ;E:\Dropbox\FAUSTO\SVILUPPI\MSX\CODE\C\MSXgl\projects\soccerlg/soccerlg_s3_b1.c:285: g_peopleState=!g_peopleState;
    000006EE 3Ar00r00         [13] 1762 	ld	a, (_g_peopleState+0)
    000006F1 D6 01            [ 7] 1763 	sub	a,#0x01
    000006F3 3E 00            [ 7] 1764 	ld	a, #0x00
    000006F5 17               [ 4] 1765 	rla
                                   1766 ;E:\Dropbox\FAUSTO\SVILUPPI\MSX\CODE\C\MSXgl\projects\soccerlg/soccerlg_s3_b1.c:286: PeopleMoving(g_peopleState);
    000006F6 32r00r00         [13] 1767 	ld	(_g_peopleState+0), a
                                   1768 ;E:\Dropbox\FAUSTO\SVILUPPI\MSX\CODE\C\MSXgl\projects\soccerlg/soccerlg_s3_b1.c:287: }
    000006F9 C3rFCr06         [10] 1769 	jp	_PeopleMoving
                                   1770 ;E:\Dropbox\FAUSTO\SVILUPPI\MSX\CODE\C\MSXgl\projects\soccerlg/soccerlg_s3_b1.c:289: void PeopleMoving(bool isBasicMoving){
                                   1771 ;	---------------------------------
                                   1772 ; Function PeopleMoving
                                   1773 ; ---------------------------------
    000006FC                       1774 _PeopleMoving::
    000006FC DD E5            [15] 1775 	push	ix
    000006FE DD 21 00 00      [14] 1776 	ld	ix,#0
    00000702 DD 39            [15] 1777 	add	ix,sp
    00000704 21 FB FF         [10] 1778 	ld	hl, #-5
    00000707 39               [11] 1779 	add	hl, sp
    00000708 F9               [ 6] 1780 	ld	sp, hl
    00000709 5F               [ 4] 1781 	ld	e, a
                                   1782 ;E:\Dropbox\FAUSTO\SVILUPPI\MSX\CODE\C\MSXgl\projects\soccerlg/soccerlg_s3_b1.c:290: u16 tileId=PUBLIC_TILE_1;
    0000070A 01 00 00         [10] 1783 	ld	bc, #0x0000
                                   1784 ;E:\Dropbox\FAUSTO\SVILUPPI\MSX\CODE\C\MSXgl\projects\soccerlg/soccerlg_s3_b1.c:291: u8  yPosition=0;
    0000070D DD 36 FB 00      [19] 1785 	ld	-5 (ix), #0x00
                                   1786 ;E:\Dropbox\FAUSTO\SVILUPPI\MSX\CODE\C\MSXgl\projects\soccerlg/soccerlg_s3_b1.c:292: if(!g_ActiveFieldZone==FIELD_NORTH_ZONE){
    00000711 3Ar00r00         [13] 1787 	ld	a, (_g_ActiveFieldZone+0)
    00000714 B7               [ 4] 1788 	or	a, a
    00000715 28 04            [12] 1789 	jr	Z, 00102$
                                   1790 ;E:\Dropbox\FAUSTO\SVILUPPI\MSX\CODE\C\MSXgl\projects\soccerlg/soccerlg_s3_b1.c:293: yPosition=62;
    00000717 DD 36 FB 3E      [19] 1791 	ld	-5 (ix), #0x3e
    0000071B                       1792 00102$:
                                   1793 ;E:\Dropbox\FAUSTO\SVILUPPI\MSX\CODE\C\MSXgl\projects\soccerlg/soccerlg_s3_b1.c:297: if(!isBasicMoving){
    0000071B 7B               [ 4] 1794 	ld	a, e
    0000071C B7               [ 4] 1795 	or	a, a
    0000071D 20 03            [12] 1796 	jr	NZ, 00122$
                                   1797 ;E:\Dropbox\FAUSTO\SVILUPPI\MSX\CODE\C\MSXgl\projects\soccerlg/soccerlg_s3_b1.c:298: tileId=PUBLIC_TILE_2;
    0000071F 01 01 08         [10] 1798 	ld	bc, #0x0801
                                   1799 ;E:\Dropbox\FAUSTO\SVILUPPI\MSX\CODE\C\MSXgl\projects\soccerlg/soccerlg_s3_b1.c:300: for (u8 y=yPosition;y<yPosition+2;y++){
    00000722                       1800 00122$:
    00000722 DD 7E FB         [19] 1801 	ld	a, -5 (ix)
    00000725 DD 77 FE         [19] 1802 	ld	-2 (ix), a
    00000728                       1803 00113$:
    00000728 DD 5E FB         [19] 1804 	ld	e, -5 (ix)
    0000072B 16 00            [ 7] 1805 	ld	d, #0x00
    0000072D 13               [ 6] 1806 	inc	de
    0000072E 13               [ 6] 1807 	inc	de
    0000072F DD 7E FE         [19] 1808 	ld	a, -2 (ix)
    00000732 DD 77 FC         [19] 1809 	ld	-4 (ix), a
    00000735 DD 36 FD 00      [19] 1810 	ld	-3 (ix), #0x00
    00000739 DD 7E FC         [19] 1811 	ld	a, -4 (ix)
    0000073C 93               [ 4] 1812 	sub	a, e
    0000073D DD 7E FD         [19] 1813 	ld	a, -3 (ix)
    00000740 9A               [ 4] 1814 	sbc	a, d
    00000741 E2r46r07         [10] 1815 	jp	PO, 00149$
    00000744 EE 80            [ 7] 1816 	xor	a, #0x80
    00000746                       1817 00149$:
    00000746 F2r8Er07         [10] 1818 	jp	P, 00115$
                                   1819 ;E:\Dropbox\FAUSTO\SVILUPPI\MSX\CODE\C\MSXgl\projects\soccerlg/soccerlg_s3_b1.c:301: for (u8 x=0;x<32;x++){
    00000749 DD 36 FF 00      [19] 1820 	ld	-1 (ix), #0x00
    0000074D                       1821 00110$:
    0000074D DD 7E FF         [19] 1822 	ld	a, -1 (ix)
    00000750 D6 20            [ 7] 1823 	sub	a, #0x20
    00000752 30 34            [12] 1824 	jr	NC, 00114$
                                   1825 ;E:/Dropbox/FAUSTO/SVILUPPI/MSX/CODE/C/MSXgl/engine/src/v9990.h:1426: inline u32 V9_CellAddrP1A(u8 x, u8 y) { return V9_P1_PNT_A + (((64 * y) + x) * 2); }
    00000754 DD 6E FC         [19] 1826 	ld	l, -4 (ix)
    00000757 DD 66 FD         [19] 1827 	ld	h, -3 (ix)
    0000075A 29               [11] 1828 	add	hl, hl
    0000075B 29               [11] 1829 	add	hl, hl
    0000075C 29               [11] 1830 	add	hl, hl
    0000075D 29               [11] 1831 	add	hl, hl
    0000075E 29               [11] 1832 	add	hl, hl
    0000075F 29               [11] 1833 	add	hl, hl
    00000760 DD 5E FF         [19] 1834 	ld	e, -1 (ix)
    00000763 16 00            [ 7] 1835 	ld	d, #0x00
    00000765 19               [11] 1836 	add	hl, de
    00000766 29               [11] 1837 	add	hl, hl
    00000767 7C               [ 4] 1838 	ld	a, h
    00000768 07               [ 4] 1839 	rlca
    00000769 9F               [ 4] 1840 	sbc	a, a
    0000076A 5F               [ 4] 1841 	ld	e, a
    0000076B 57               [ 4] 1842 	ld	d, a
    0000076C 7C               [ 4] 1843 	ld	a, h
    0000076D C6 C0            [ 7] 1844 	add	a, #0xc0
    0000076F 67               [ 4] 1845 	ld	h, a
                                   1846 ;	spillPairReg hl
                                   1847 ;	spillPairReg hl
    00000770 7B               [ 4] 1848 	ld	a, e
    00000771 CE 07            [ 7] 1849 	adc	a, #0x07
    00000773 5F               [ 4] 1850 	ld	e, a
    00000774 30 01            [12] 1851 	jr	NC, 00150$
    00000776 14               [ 4] 1852 	inc	d
    00000777                       1853 00150$:
                                   1854 ;E:/Dropbox/FAUSTO/SVILUPPI/MSX/CODE/C/MSXgl/engine/src/v9990.h:396: inline void V9_Poke16(u32 addr, u16 val) { V9_SetWriteAddress(addr); V9_Poke16_CurrentAddr(val); }
    00000777 C5               [11] 1855 	push	bc
    00000778 EB               [ 4] 1856 	ex	de, hl
    00000779 CDr00r00         [17] 1857 	call	_V9_SetWriteAddress
    0000077C C1               [10] 1858 	pop	bc
    0000077D 69               [ 4] 1859 	ld	l, c
                                   1860 ;	spillPairReg hl
                                   1861 ;	spillPairReg hl
    0000077E 60               [ 4] 1862 	ld	h, b
                                   1863 ;	spillPairReg hl
                                   1864 ;	spillPairReg hl
    0000077F CDr00r00         [17] 1865 	call	_V9_Poke16_CurrentAddr
                                   1866 ;E:\Dropbox\FAUSTO\SVILUPPI\MSX\CODE\C\MSXgl\projects\soccerlg/soccerlg_s3_b1.c:301: for (u8 x=0;x<32;x++){
    00000782 DD 34 FF         [23] 1867 	inc	-1 (ix)
    00000785 C3r4Dr07         [10] 1868 	jp	00110$
    00000788                       1869 00114$:
                                   1870 ;E:\Dropbox\FAUSTO\SVILUPPI\MSX\CODE\C\MSXgl\projects\soccerlg/soccerlg_s3_b1.c:300: for (u8 y=yPosition;y<yPosition+2;y++){
    00000788 DD 34 FE         [23] 1871 	inc	-2 (ix)
    0000078B C3r28r07         [10] 1872 	jp	00113$
    0000078E                       1873 00115$:
                                   1874 ;E:\Dropbox\FAUSTO\SVILUPPI\MSX\CODE\C\MSXgl\projects\soccerlg/soccerlg_s3_b1.c:305: }
    0000078E DD F9            [10] 1875 	ld	sp, ix
    00000790 DD E1            [14] 1876 	pop	ix
    00000792 C9               [10] 1877 	ret
                                   1878 ;E:\Dropbox\FAUSTO\SVILUPPI\MSX\CODE\C\MSXgl\projects\soccerlg/soccerlg_s3_b1.c:307: void PutPonPonGirlSprite(u8 ponPonGirlId){
                                   1879 ;	---------------------------------
                                   1880 ; Function PutPonPonGirlSprite
                                   1881 ; ---------------------------------
    00000793                       1882 _PutPonPonGirlSprite::
    00000793 DD E5            [15] 1883 	push	ix
    00000795 DD 21 00 00      [14] 1884 	ld	ix,#0
    00000799 DD 39            [15] 1885 	add	ix,sp
    0000079B 21 FB FF         [10] 1886 	ld	hl, #-5
    0000079E 39               [11] 1887 	add	hl, sp
    0000079F F9               [ 6] 1888 	ld	sp, hl
    000007A0 DD 77 FF         [19] 1889 	ld	-1 (ix), a
                                   1890 ;E:\Dropbox\FAUSTO\SVILUPPI\MSX\CODE\C\MSXgl\projects\soccerlg/soccerlg_s3_b1.c:309: attr.D=0;
    000007A3 21 03 00         [10] 1891 	ld	hl, #3
    000007A6 39               [11] 1892 	add	hl, sp
    000007A7 CB A6            [15] 1893 	res	4, (hl)
                                   1894 ;E:\Dropbox\FAUSTO\SVILUPPI\MSX\CODE\C\MSXgl\projects\soccerlg/soccerlg_s3_b1.c:311: attr.SC=0;
    000007A9 21 03 00         [10] 1895 	ld	hl, #3
    000007AC 39               [11] 1896 	add	hl, sp
    000007AD 7E               [ 7] 1897 	ld	a, (hl)
    000007AE E6 3F            [ 7] 1898 	and	a, #0x3f
    000007B0 77               [ 7] 1899 	ld	(hl), a
                                   1900 ;E:\Dropbox\FAUSTO\SVILUPPI\MSX\CODE\C\MSXgl\projects\soccerlg/soccerlg_s3_b1.c:312: attr.Y=g_PonPonGirls[ponPonGirlId].Y-g_FieldCurrentYPosition;
    000007B1 01r00r00         [10] 1901 	ld	bc, #_g_PonPonGirls+0
    000007B4 DD 5E FF         [19] 1902 	ld	e, -1 (ix)
    000007B7 16 00            [ 7] 1903 	ld	d, #0x00
    000007B9 6B               [ 4] 1904 	ld	l, e
    000007BA 62               [ 4] 1905 	ld	h, d
    000007BB 29               [11] 1906 	add	hl, hl
    000007BC 29               [11] 1907 	add	hl, hl
    000007BD 19               [11] 1908 	add	hl, de
    000007BE 09               [11] 1909 	add	hl, bc
    000007BF EB               [ 4] 1910 	ex	de, hl
    000007C0 1A               [ 7] 1911 	ld	a, (de)
    000007C1 6F               [ 4] 1912 	ld	l, a
                                   1913 ;	spillPairReg hl
                                   1914 ;	spillPairReg hl
    000007C2 3Ar00r00         [13] 1915 	ld	a, (_g_FieldCurrentYPosition+0)
    000007C5 4F               [ 4] 1916 	ld	c, a
    000007C6 7D               [ 4] 1917 	ld	a, l
    000007C7 91               [ 4] 1918 	sub	a, c
    000007C8 DD 77 FB         [19] 1919 	ld	-5 (ix), a
                                   1920 ;E:\Dropbox\FAUSTO\SVILUPPI\MSX\CODE\C\MSXgl\projects\soccerlg/soccerlg_s3_b1.c:313: attr.X=g_PonPonGirls[ponPonGirlId].X;
    000007CB 6B               [ 4] 1921 	ld	l, e
                                   1922 ;	spillPairReg hl
                                   1923 ;	spillPairReg hl
    000007CC 62               [ 4] 1924 	ld	h, d
                                   1925 ;	spillPairReg hl
                                   1926 ;	spillPairReg hl
    000007CD 23               [ 6] 1927 	inc	hl
    000007CE 23               [ 6] 1928 	inc	hl
    000007CF 4E               [ 7] 1929 	ld	c, (hl)
    000007D0 23               [ 6] 1930 	inc	hl
    000007D1 46               [ 7] 1931 	ld	b, (hl)
    000007D2 21 02 00         [10] 1932 	ld	hl, #2
    000007D5 39               [11] 1933 	add	hl, sp
    000007D6 71               [ 7] 1934 	ld	(hl), c
    000007D7 23               [ 6] 1935 	inc	hl
    000007D8 78               [ 4] 1936 	ld	a, b
    000007D9 E6 03            [ 7] 1937 	and	a, #0x03
    000007DB 4F               [ 4] 1938 	ld	c,a
    000007DC 7E               [ 7] 1939 	ld	a, (hl)
    000007DD E6 FC            [ 7] 1940 	and	a, #0xfc
    000007DF B1               [ 4] 1941 	or	a, c
    000007E0 77               [ 7] 1942 	ld	(hl), a
                                   1943 ;E:\Dropbox\FAUSTO\SVILUPPI\MSX\CODE\C\MSXgl\projects\soccerlg/soccerlg_s3_b1.c:314: if(g_ActiveFieldZone!=FIELD_NORTH_ZONE||attr.Y>100){
    000007E1 3Ar00r00         [13] 1944 	ld	a, (_g_ActiveFieldZone+0)
    000007E4 B7               [ 4] 1945 	or	a, a
    000007E5 20 08            [12] 1946 	jr	NZ, 00101$
    000007E7 DD 4E FB         [19] 1947 	ld	c, -5 (ix)
    000007EA 3E 64            [ 7] 1948 	ld	a, #0x64
    000007EC 91               [ 4] 1949 	sub	a, c
    000007ED 30 06            [12] 1950 	jr	NC, 00102$
    000007EF                       1951 00101$:
                                   1952 ;E:\Dropbox\FAUSTO\SVILUPPI\MSX\CODE\C\MSXgl\projects\soccerlg/soccerlg_s3_b1.c:315: attr.D=1;
    000007EF 21 03 00         [10] 1953 	ld	hl, #3
    000007F2 39               [11] 1954 	add	hl, sp
    000007F3 CB E6            [15] 1955 	set	4, (hl)
    000007F5                       1956 00102$:
                                   1957 ;E:\Dropbox\FAUSTO\SVILUPPI\MSX\CODE\C\MSXgl\projects\soccerlg/soccerlg_s3_b1.c:317: attr.Pattern = g_PonPonGirls[ponPonGirlId].PatternId;
    000007F5 21 04 00         [10] 1958 	ld	hl, #4
    000007F8 19               [11] 1959 	add	hl, de
    000007F9 7E               [ 7] 1960 	ld	a, (hl)
    000007FA DD 77 FC         [19] 1961 	ld	-4 (ix), a
                                   1962 ;E:\Dropbox\FAUSTO\SVILUPPI\MSX\CODE\C\MSXgl\projects\soccerlg/soccerlg_s3_b1.c:318: attr.P = 1;
    000007FD 21 03 00         [10] 1963 	ld	hl, #3
    00000800 39               [11] 1964 	add	hl, sp
    00000801 CB EE            [15] 1965 	set	5, (hl)
                                   1966 ;E:\Dropbox\FAUSTO\SVILUPPI\MSX\CODE\C\MSXgl\projects\soccerlg/soccerlg_s3_b1.c:319: V9_SetSpriteP1(ponPonGirlId+20, &attr);
    00000803 DD 7E FF         [19] 1967 	ld	a, -1 (ix)
    00000806 C6 14            [ 7] 1968 	add	a, #0x14
                                   1969 ;E:/Dropbox/FAUSTO/SVILUPPI/MSX/CODE/C/MSXgl/engine/src/v9990.h:781: inline void V9_SetSpriteP1(u8 id, const V9_Sprite* attr) { V9_WriteVRAM(V9_P1_SPAT + (id * 4), (const u8*)attr, 4); }
    00000808 6F               [ 4] 1970 	ld	l, a
                                   1971 ;	spillPairReg hl
                                   1972 ;	spillPairReg hl
    00000809 26 00            [ 7] 1973 	ld	h, #0x00
                                   1974 ;	spillPairReg hl
                                   1975 ;	spillPairReg hl
    0000080B 29               [11] 1976 	add	hl, hl
    0000080C 29               [11] 1977 	add	hl, hl
    0000080D 7C               [ 4] 1978 	ld	a, h
    0000080E 07               [ 4] 1979 	rlca
    0000080F 9F               [ 4] 1980 	sbc	a, a
    00000810 5F               [ 4] 1981 	ld	e, a
    00000811 57               [ 4] 1982 	ld	d, a
    00000812 7C               [ 4] 1983 	ld	a, h
    00000813 C6 FE            [ 7] 1984 	add	a, #0xfe
    00000815 67               [ 4] 1985 	ld	h, a
                                   1986 ;	spillPairReg hl
                                   1987 ;	spillPairReg hl
    00000816 7B               [ 4] 1988 	ld	a, e
    00000817 CE 03            [ 7] 1989 	adc	a, #0x03
    00000819 5F               [ 4] 1990 	ld	e, a
    0000081A 30 01            [12] 1991 	jr	NC, 00113$
    0000081C 14               [ 4] 1992 	inc	d
    0000081D                       1993 00113$:
                                   1994 ;E:/Dropbox/FAUSTO/SVILUPPI/MSX/CODE/C/MSXgl/engine/src/v9990.h:371: inline void V9_WriteVRAM(u32 addr, const u8* src, u16 count) { V9_SetWriteAddress(addr); V9_WriteVRAM_CurrentAddr(src, count); }
    0000081D EB               [ 4] 1995 	ex	de, hl
    0000081E CDr00r00         [17] 1996 	call	_V9_SetWriteAddress
    00000821 11 04 00         [10] 1997 	ld	de, #0x0004
    00000824 21 00 00         [10] 1998 	ld	hl, #0
    00000827 39               [11] 1999 	add	hl, sp
    00000828 CDr00r00         [17] 2000 	call	_V9_WriteVRAM_CurrentAddr
                                   2001 ;E:\Dropbox\FAUSTO\SVILUPPI\MSX\CODE\C\MSXgl\projects\soccerlg/soccerlg_s3_b1.c:319: V9_SetSpriteP1(ponPonGirlId+20, &attr);
                                   2002 ;E:\Dropbox\FAUSTO\SVILUPPI\MSX\CODE\C\MSXgl\projects\soccerlg/soccerlg_s3_b1.c:320: }
    0000082B DD F9            [10] 2003 	ld	sp, ix
    0000082D DD E1            [14] 2004 	pop	ix
    0000082F C9               [10] 2005 	ret
                                   2006 	.area _SEG3
                                   2007 	.area _INITIALIZER
                                   2008 	.area _CABS (ABS)
