                                      1 ;--------------------------------------------------------
                                      2 ; File Created by SDCC : free open source ANSI-C Compiler
                                      3 ; Version 4.2.0 #13081 (MINGW64)
                                      4 ;--------------------------------------------------------
                                      5 	.module soccerlg_s2_b1
                                      6 	.optsdcc -mz80
                                      7 	
                                      8 ;--------------------------------------------------------
                                      9 ; Public variables in this module
                                     10 ;--------------------------------------------------------
                                     11 	.globl _VGM_Stop
                                     12 	.globl _DEBUG_INIT
                                     13 	.globl _ShowMenu
                                     14 	.globl _V9990_InitMenuLayers
                                     15 	.globl _PutPonPonGirlSprite
                                     16 	.globl _PlayVGM
                                     17 	.globl _Trampoline_VOID_P1
                                     18 	.globl _Trampoline_VOID
                                     19 	.globl _V9990_LoadImagePresentationData
                                     20 	.globl _LoadMsxVdpFonts
                                     21 	.globl _V9_Detect
                                     22 	.globl _V9_SetPaletteEntry
                                     23 	.globl _V9_SetScrollingBY
                                     24 	.globl _V9_SetColorMode
                                     25 	.globl _V9_SetScreenMode
                                     26 	.globl _V9_GetRegister
                                     27 	.globl _V9_SetRegister16
                                     28 	.globl _V9_SetRegister
                                     29 	.globl _V9_SetPort
                                     30 	.globl _Print_SetColor
                                     31 	.globl _Print_DrawText
                                     32 	.globl _VDP_RegWriteBakMask
                                     33 	.globl _VDP_SetMode
                                     34 	.globl _VDP_ClearVRAM
                                     35 	.globl _Keyboard_IsKeyPressed
                                     36 	.globl _Joystick_Read
                                     37 	.globl _g_SLTSL
                                     38 	.globl _g_GRPACY
                                     39 	.globl _g_GRPACX
                                     40 	.globl _g_LOGOPR
                                     41 	.globl _g_CMASK
                                     42 	.globl _g_CLOC
                                     43 	.globl _g_FNKSTR
                                     44 	.globl _g_ATRBYT
                                     45 	.globl _g_BDRCLR
                                     46 	.globl _g_BAKCLR
                                     47 	.globl _g_FORCLR
                                     48 	.globl _g_CSRX
                                     49 	.globl _g_CSRY
                                     50 	.globl _g_CLIKSW
                                     51 	.globl _g_MLTPAT
                                     52 	.globl _g_MLTATR
                                     53 	.globl _g_MLTCGP
                                     54 	.globl _g_MLTCOL
                                     55 	.globl _g_MLTNAM
                                     56 	.globl _g_GRPPAT
                                     57 	.globl _g_GRPATR
                                     58 	.globl _g_GRPCGP
                                     59 	.globl _g_GRPCOL
                                     60 	.globl _g_GRPNAM
                                     61 	.globl _g_T32PAT
                                     62 	.globl _g_T32ATR
                                     63 	.globl _g_T32CGP
                                     64 	.globl _g_T32COL
                                     65 	.globl _g_T32NAM
                                     66 	.globl _g_TXTPAT
                                     67 	.globl _g_TXTATR
                                     68 	.globl _g_TXTCGP
                                     69 	.globl _g_TXTCOL
                                     70 	.globl _g_TXTNAM
                                     71 	.globl _g_CLMLST
                                     72 	.globl _g_CRTCNT
                                     73 	.globl _g_LINLEN
                                     74 	.globl _g_LINL32
                                     75 	.globl _g_LINL40
                                     76 	.globl _g_BDOS
                                     77 	.globl _g_MASTER
                                     78 	.globl _g_RAMAD3
                                     79 	.globl _g_RAMAD2
                                     80 	.globl _g_RAMAD1
                                     81 	.globl _g_RAMAD0
                                     82 	.globl _g_BREAKV
                                     83 	.globl _g_DISKVE
                                     84 	.globl _g_KANJTABLE
                                     85 	.globl _g_STRSRC
                                     86 	.globl _g_SUBRID
                                     87 	.globl _g_CHAR_16
                                     88 	.globl _g_MSXMID
                                     89 	.globl _g_MSXVER
                                     90 	.globl _g_ROMVersion
                                     91 	.globl _g_BASRVN
                                     92 	.globl _g_VDP_DW
                                     93 	.globl _g_VDP_DR
                                     94 	.globl _g_CGTABL
                                     95 	.globl _g_SVFFFD
                                     96 	.globl _g_RG27SAV
                                     97 	.globl _g_RG26SAV
                                     98 	.globl _g_RG25SAV
                                     99 	.globl _g_SVFFF8
                                    100 	.globl _g_MINROM
                                    101 	.globl _g_RG23SAV
                                    102 	.globl _g_RG22SAV
                                    103 	.globl _g_RG21SAV
                                    104 	.globl _g_RG20SAV
                                    105 	.globl _g_RG19SAV
                                    106 	.globl _g_RG18SAV
                                    107 	.globl _g_RG17SAV
                                    108 	.globl _g_RG16SAV
                                    109 	.globl _g_RG15SAV
                                    110 	.globl _g_RG14SAV
                                    111 	.globl _g_RG13SAV
                                    112 	.globl _g_RG12SAV
                                    113 	.globl _g_RG11SAV
                                    114 	.globl _g_RG10SAV
                                    115 	.globl _g_RG09SAV
                                    116 	.globl _g_RG08SAV
                                    117 	.globl _g_PROCNM
                                    118 	.globl _g_SLTWRK
                                    119 	.globl _g_SLTATR
                                    120 	.globl _g_SLTTBL
                                    121 	.globl _g_EXPTBL
                                    122 	.globl _g_MNROM
                                    123 	.globl _g_DRWANG
                                    124 	.globl _g_DRWSCL
                                    125 	.globl _g_DRWFLG
                                    126 	.globl _g_GYPOS
                                    127 	.globl _g_GXPOS
                                    128 	.globl _g_BRDATR
                                    129 	.globl _g_CASPRV
                                    130 	.globl _g_OLDSCR
                                    131 	.globl _g_SCRMOD
                                    132 	.globl _g_FLBMEM
                                    133 	.globl _g_KANAMD
                                    134 	.globl _g_KANAST
                                    135 	.globl _g_CAPST
                                    136 	.globl _g_CSTYLE
                                    137 	.globl _g_CSRSW
                                    138 	.globl _g_INSFLG
                                    139 	.globl _g_ESCCNT
                                    140 	.globl _g_GRPHED
                                    141 	.globl _g_WINWID
                                    142 	.globl _g_LOWLIM
                                    143 	.globl _g_INTCNT
                                    144 	.globl _g_INTVAL
                                    145 	.globl _g_JIFFY
                                    146 	.globl _g_PADX
                                    147 	.globl _g_PADY
                                    148 	.globl _g_INTFLG
                                    149 	.globl _g_RTYCNT
                                    150 	.globl _g_TRPTBL
                                    151 	.globl _g_HIMEM
                                    152 	.globl _g_BOTTOM
                                    153 	.globl _g_PATWRK
                                    154 	.globl _g_LINWRK
                                    155 	.globl _g_KEYBUF
                                    156 	.globl _g_NEWKEY
                                    157 	.globl _g_OLDKEY
                                    158 	.globl _g_CLIKFL
                                    159 	.globl _g_ONGSBF
                                    160 	.globl _g_FNKFLG
                                    161 	.globl _g_FNKSWI
                                    162 	.globl _g_CODSAV
                                    163 	.globl _g_FSTPOS
                                    164 	.globl _g_LINTTB
                                    165 	.globl _g_BASROM
                                    166 	.globl _g_ENSTOP
                                    167 	.globl _g_VCBC
                                    168 	.globl _g_VCBB
                                    169 	.globl _g_VCBA
                                    170 	.globl _g_PLYCNT
                                    171 	.globl _g_MUSICF
                                    172 	.globl _g_QUEUEN
                                    173 	.globl _g_MCLPTR
                                    174 	.globl _g_MCLLEN
                                    175 	.globl _g_SAVVOL
                                    176 	.globl _g_VOICEN
                                    177 	.globl _g_SAVSP
                                    178 	.globl _g_PRSCNT
                                    179 	.globl _g_LSTMOD
                                    180 	.globl _g_LSTCOM
                                    181 	.globl _g_COMMSK
                                    182 	.globl _g_ESTBLS
                                    183 	.globl _g_FLAGS
                                    184 	.globl _g_ERRORS
                                    185 	.globl _g_DATCNT
                                    186 	.globl _g_DEVNUM
                                    187 	.globl _g_OLDINT
                                    188 	.globl _g_OLDSTT
                                    189 	.globl _g_MEXBIh
                                    190 	.globl _g_RSIQLN
                                    191 	.globl _g_RSFCB
                                    192 	.globl _g_TOCNT
                                    193 	.globl _g_RSTMP
                                    194 	.globl _g_YSAVE
                                    195 	.globl _g_XSAVE
                                    196 	.globl _g_NORUSE
                                    197 	.globl _g_MODE
                                    198 	.globl _g_ROMA
                                    199 	.globl _g_CHRCNT
                                    200 	.globl _g_EXBRSA
                                    201 	.globl _g_AVCSAV
                                    202 	.globl _g_ACPAGE
                                    203 	.globl _g_DPPAGE
                                    204 	.globl _g_RS2IQ
                                    205 	.globl _g_VOICCQ
                                    206 	.globl _g_VOICBQ
                                    207 	.globl _g_VOICAQ
                                    208 	.globl _g_QUEBAK
                                    209 	.globl _g_QUETAB
                                    210 	.globl _g_ASPCT2
                                    211 	.globl _g_ASPCT1
                                    212 	.globl _g_HEADER
                                    213 	.globl _g_HIGH
                                    214 	.globl _g_LOW
                                    215 	.globl _g_CS240
                                    216 	.globl _g_CS120
                                    217 	.globl _g_GETPNT
                                    218 	.globl _g_PUTPNT
                                    219 	.globl _g_REPCNT
                                    220 	.globl _g_SCNCNT
                                    221 	.globl _g_FRCNEW
                                    222 	.globl _g_QUEUES
                                    223 	.globl _g_MINUPD
                                    224 	.globl _g_MAXUPD
                                    225 	.globl _g_TRGFLG
                                    226 	.globl _g_STATFL
                                    227 	.globl _g_RG7SAV
                                    228 	.globl _g_RG6SAV
                                    229 	.globl _g_RG5SAV
                                    230 	.globl _g_RG4SAV
                                    231 	.globl _g_RG3SAV
                                    232 	.globl _g_RG2SAV
                                    233 	.globl _g_RG1SAV
                                    234 	.globl _g_RG0SAV
                                    235 	.globl _g_CNSDFG
                                    236 	.globl _g_USRTAB
                                    237 	.globl _g_CLPRIM
                                    238 	.globl _g_WRPRIM
                                    239 	.globl _g_RDPRIM
                                    240 	.globl _IsTeamJoystickTriggerPressed
                                    241 	.globl _GetJoystickDirection
                                    242 	.globl _InitVariables
                                    243 	.globl _LoadPresentation
                                    244 	.globl _TickGameFieldScrolling
                                    245 	.globl _MainSub
                                    246 ;--------------------------------------------------------
                                    247 ; special function registers
                                    248 ;--------------------------------------------------------
                         000000A8   249 _g_PortPrimarySlot	=	0x00a8
                         000000A9   250 _g_PortReadKeyboard	=	0x00a9
                         000000AA   251 _g_PortAccessKeyboard	=	0x00aa
                         000000AB   252 _g_PortControl	=	0x00ab
                         00000098   253 _g_VDP_DataPort	=	0x0098
                         00000099   254 _g_VDP_RegPort	=	0x0099
                         00000099   255 _g_VDP_AddrPort	=	0x0099
                         00000099   256 _g_VDP_StatPort	=	0x0099
                         000000A0   257 _g_PSG_RegPort	=	0x00a0
                         000000A1   258 _g_PSG_DataPort	=	0x00a1
                         000000A2   259 _g_PSG_StatPort	=	0x00a2
                         00000010   260 _g_PSG_Ext_RegPort	=	0x0010
                         00000011   261 _g_PSG_Ext_DataPort	=	0x0011
                         00000012   262 _g_PSG_Ext_StatPort	=	0x0012
                         0000007C   263 _g_MSXMusic_IndexPort	=	0x007c
                         0000007D   264 _g_MSXMusic_DataPort	=	0x007d
                         000000C0   265 _g_MSXAudio_IndexPort	=	0x00c0
                         000000C1   266 _g_MSXAudio_DataPort	=	0x00c1
                         000000C2   267 _g_MSXAudio_IndexPort2	=	0x00c2
                         000000C3   268 _g_MSXAudio_DataPort2	=	0x00c3
                         000000B4   269 _g_RTC_AddrPort	=	0x00b4
                         000000B5   270 _g_RTC_DataPort	=	0x00b5
                         00000060   271 _g_V9_VRAMPort	=	0x0060
                         00000061   272 _g_V9_PalettePort	=	0x0061
                         00000062   273 _g_V9_CmdDataPort	=	0x0062
                         00000063   274 _g_V9_RegDataPort	=	0x0063
                         00000064   275 _g_V9_RegSelectPort	=	0x0064
                         00000065   276 _g_V9_SatusPort	=	0x0065
                         00000066   277 _g_V9_IntFlagPort	=	0x0066
                         00000067   278 _g_V9_SysCtrlPort	=	0x0067
                         00000068   279 _g_V9_KanjiAddrLPort	=	0x0068
                         00000069   280 _g_V9_KanjiAddrHPort	=	0x0069
                         00000069   281 _g_V9_KanjiDataPort	=	0x0069
                         0000006A   282 _g_V9_Kanji2AddrLPort	=	0x006a
                         0000006B   283 _g_V9_Kanji2AddrHPort	=	0x006b
                         0000006B   284 _g_V9_Kanji2DataPort	=	0x006b
                         0000006F   285 _g_V9_OutputCtrPort	=	0x006f
                                    286 ;--------------------------------------------------------
                                    287 ; ram data
                                    288 ;--------------------------------------------------------
                                    289 	.area _DATA
                         0000F3AE   290 _g_LINL40	=	0xf3ae
                         0000F3AF   291 _g_LINL32	=	0xf3af
                         0000F3B0   292 _g_LINLEN	=	0xf3b0
                         0000F3B1   293 _g_CRTCNT	=	0xf3b1
                         0000F3B2   294 _g_CLMLST	=	0xf3b2
                         0000F3B3   295 _g_TXTNAM	=	0xf3b3
                         0000F3B5   296 _g_TXTCOL	=	0xf3b5
                         0000F3B7   297 _g_TXTCGP	=	0xf3b7
                         0000F3B9   298 _g_TXTATR	=	0xf3b9
                         0000F3BB   299 _g_TXTPAT	=	0xf3bb
                         0000F3BD   300 _g_T32NAM	=	0xf3bd
                         0000F3BF   301 _g_T32COL	=	0xf3bf
                         0000F3C1   302 _g_T32CGP	=	0xf3c1
                         0000F3C3   303 _g_T32ATR	=	0xf3c3
                         0000F3C5   304 _g_T32PAT	=	0xf3c5
                         0000F3C7   305 _g_GRPNAM	=	0xf3c7
                         0000F3C9   306 _g_GRPCOL	=	0xf3c9
                         0000F3CB   307 _g_GRPCGP	=	0xf3cb
                         0000F3CD   308 _g_GRPATR	=	0xf3cd
                         0000F3CF   309 _g_GRPPAT	=	0xf3cf
                         0000F3D1   310 _g_MLTNAM	=	0xf3d1
                         0000F3D3   311 _g_MLTCOL	=	0xf3d3
                         0000F3D5   312 _g_MLTCGP	=	0xf3d5
                         0000F3D7   313 _g_MLTATR	=	0xf3d7
                         0000F3D9   314 _g_MLTPAT	=	0xf3d9
                         0000F3DB   315 _g_CLIKSW	=	0xf3db
                         0000F3DC   316 _g_CSRY	=	0xf3dc
                         0000F3DD   317 _g_CSRX	=	0xf3dd
                         0000F3E9   318 _g_FORCLR	=	0xf3e9
                         0000F3EA   319 _g_BAKCLR	=	0xf3ea
                         0000F3EB   320 _g_BDRCLR	=	0xf3eb
                         0000F3F2   321 _g_ATRBYT	=	0xf3f2
                         0000F87F   322 _g_FNKSTR	=	0xf87f
                         0000F92A   323 _g_CLOC	=	0xf92a
                         0000F92C   324 _g_CMASK	=	0xf92c
                         0000FB02   325 _g_LOGOPR	=	0xfb02
                         0000FCB7   326 _g_GRPACX	=	0xfcb7
                         0000FCB9   327 _g_GRPACY	=	0xfcb9
                         0000FFFF   328 _g_SLTSL	=	0xffff
                                    329 ;--------------------------------------------------------
                                    330 ; ram data
                                    331 ;--------------------------------------------------------
                                    332 	.area _INITIALIZED
                                    333 ;--------------------------------------------------------
                                    334 ; absolute external ram data
                                    335 ;--------------------------------------------------------
                                    336 	.area _DABS (ABS)
                                    337 ;--------------------------------------------------------
                                    338 ; global & static initialisations
                                    339 ;--------------------------------------------------------
                                    340 	.area _HOME
                                    341 	.area _GSINIT
                                    342 	.area _GSFINAL
                                    343 	.area _GSINIT
                                    344 ;--------------------------------------------------------
                                    345 ; Home
                                    346 ;--------------------------------------------------------
                                    347 	.area _HOME
                                    348 	.area _HOME
                                    349 ;--------------------------------------------------------
                                    350 ; code
                                    351 ;--------------------------------------------------------
                                    352 	.area _SEG2
                                    353 ;E:\Dropbox\FAUSTO\SVILUPPI\MSX\CODE\C\MSXgl\projects\soccerlg/soccerlg_s2_b1.c:25: bool IsTeamJoystickTriggerPressed(){		
                                    354 ;	---------------------------------
                                    355 ; Function IsTeamJoystickTriggerPressed
                                    356 ; ---------------------------------
    00000000                        357 _IsTeamJoystickTriggerPressed::
                                    358 ;E:\Dropbox\FAUSTO\SVILUPPI\MSX\CODE\C\MSXgl\projects\soccerlg/soccerlg_s2_b1.c:26: u8 joyStat = Joystick_Read(JOY_PORT_1);
    00000000 2E 0F            [ 7]  359 	ld	l, #0x0f
                                    360 ;	spillPairReg hl
                                    361 ;	spillPairReg hl
    00000002 CDr00r00         [17]  362 	call	_Joystick_Read
                                    363 ;E:\Dropbox\FAUSTO\SVILUPPI\MSX\CODE\C\MSXgl\projects\soccerlg/soccerlg_s2_b1.c:27: if (IS_JOY_PRESSED(joyStat, JOY_INPUT_TRIGGER_A))
    00000005 CB 65            [ 8]  364 	bit	4, l
    00000007 20 03            [12]  365 	jr	NZ, 00102$
                                    366 ;E:\Dropbox\FAUSTO\SVILUPPI\MSX\CODE\C\MSXgl\projects\soccerlg/soccerlg_s2_b1.c:29: return true;
    00000009 3E 01            [ 7]  367 	ld	a, #0x01
    0000000B C9               [10]  368 	ret
    0000000C                        369 00102$:
                                    370 ;E:\Dropbox\FAUSTO\SVILUPPI\MSX\CODE\C\MSXgl\projects\soccerlg/soccerlg_s2_b1.c:31: if(Keyboard_IsKeyPressed(KEY_SPACE))
    0000000C 3E 08            [ 7]  371 	ld	a, #0x08
    0000000E CDr00r00         [17]  372 	call	_Keyboard_IsKeyPressed
    00000011 B7               [ 4]  373 	or	a, a
                                    374 ;E:\Dropbox\FAUSTO\SVILUPPI\MSX\CODE\C\MSXgl\projects\soccerlg/soccerlg_s2_b1.c:33: return true;
                                    375 ;E:\Dropbox\FAUSTO\SVILUPPI\MSX\CODE\C\MSXgl\projects\soccerlg/soccerlg_s2_b1.c:35: return FALSE;
    00000012 3E 01            [ 7]  376 	ld	a, #0x01
    00000014 C0               [11]  377 	ret	NZ
    00000015 AF               [ 4]  378 	xor	a, a
                                    379 ;E:\Dropbox\FAUSTO\SVILUPPI\MSX\CODE\C\MSXgl\projects\soccerlg/soccerlg_s2_b1.c:36: }
    00000016 C9               [10]  380 	ret
                         0000F380   381 _g_RDPRIM	=	0xf380
                         0000F385   382 _g_WRPRIM	=	0xf385
                         0000F38C   383 _g_CLPRIM	=	0xf38c
                         0000F39A   384 _g_USRTAB	=	0xf39a
                         0000F3DE   385 _g_CNSDFG	=	0xf3de
                         0000F3DF   386 _g_RG0SAV	=	0xf3df
                         0000F3E0   387 _g_RG1SAV	=	0xf3e0
                         0000F3E1   388 _g_RG2SAV	=	0xf3e1
                         0000F3E2   389 _g_RG3SAV	=	0xf3e2
                         0000F3E3   390 _g_RG4SAV	=	0xf3e3
                         0000F3E4   391 _g_RG5SAV	=	0xf3e4
                         0000F3E5   392 _g_RG6SAV	=	0xf3e5
                         0000F3E6   393 _g_RG7SAV	=	0xf3e6
                         0000F3E7   394 _g_STATFL	=	0xf3e7
                         0000F3E8   395 _g_TRGFLG	=	0xf3e8
                         0000F3EC   396 _g_MAXUPD	=	0xf3ec
                         0000F3EF   397 _g_MINUPD	=	0xf3ef
                         0000F3F3   398 _g_QUEUES	=	0xf3f3
                         0000F3F5   399 _g_FRCNEW	=	0xf3f5
                         0000F3F6   400 _g_SCNCNT	=	0xf3f6
                         0000F3F7   401 _g_REPCNT	=	0xf3f7
                         0000F3F8   402 _g_PUTPNT	=	0xf3f8
                         0000F3FA   403 _g_GETPNT	=	0xf3fa
                         0000F3FC   404 _g_CS120	=	0xf3fc
                         0000F401   405 _g_CS240	=	0xf401
                         0000F406   406 _g_LOW	=	0xf406
                         0000F408   407 _g_HIGH	=	0xf408
                         0000F40A   408 _g_HEADER	=	0xf40a
                         0000F40B   409 _g_ASPCT1	=	0xf40b
                         0000F40D   410 _g_ASPCT2	=	0xf40d
                         0000F959   411 _g_QUETAB	=	0xf959
                         0000F971   412 _g_QUEBAK	=	0xf971
                         0000F975   413 _g_VOICAQ	=	0xf975
                         0000F9F5   414 _g_VOICBQ	=	0xf9f5
                         0000FA75   415 _g_VOICCQ	=	0xfa75
                         0000FAF5   416 _g_RS2IQ	=	0xfaf5
                         0000FAF5   417 _g_DPPAGE	=	0xfaf5
                         0000FAF6   418 _g_ACPAGE	=	0xfaf6
                         0000FAF7   419 _g_AVCSAV	=	0xfaf7
                         0000FAF8   420 _g_EXBRSA	=	0xfaf8
                         0000FAF9   421 _g_CHRCNT	=	0xfaf9
                         0000FAFA   422 _g_ROMA	=	0xfafa
                         0000FAFC   423 _g_MODE	=	0xfafc
                         0000FAFD   424 _g_NORUSE	=	0xfafd
                         0000FAFE   425 _g_XSAVE	=	0xfafe
                         0000FB00   426 _g_YSAVE	=	0xfb00
                         0000FB03   427 _g_RSTMP	=	0xfb03
                         0000FB03   428 _g_TOCNT	=	0xfb03
                         0000FB04   429 _g_RSFCB	=	0xfb04
                         0000FB06   430 _g_RSIQLN	=	0xfb06
                         0000FB07   431 _g_MEXBIh	=	0xfb07
                         0000FB0C   432 _g_OLDSTT	=	0xfb0c
                         0000FB0C   433 _g_OLDINT	=	0xfb0c
                         0000FB16   434 _g_DEVNUM	=	0xfb16
                         0000FB17   435 _g_DATCNT	=	0xfb17
                         0000FB1A   436 _g_ERRORS	=	0xfb1a
                         0000FB1B   437 _g_FLAGS	=	0xfb1b
                         0000FB1C   438 _g_ESTBLS	=	0xfb1c
                         0000FB1D   439 _g_COMMSK	=	0xfb1d
                         0000FB1E   440 _g_LSTCOM	=	0xfb1e
                         0000FB1F   441 _g_LSTMOD	=	0xfb1f
                         0000FB35   442 _g_PRSCNT	=	0xfb35
                         0000FB36   443 _g_SAVSP	=	0xfb36
                         0000FB38   444 _g_VOICEN	=	0xfb38
                         0000FB39   445 _g_SAVVOL	=	0xfb39
                         0000FB3B   446 _g_MCLLEN	=	0xfb3b
                         0000FB3C   447 _g_MCLPTR	=	0xfb3c
                         0000FB3E   448 _g_QUEUEN	=	0xfb3e
                         0000FB3F   449 _g_MUSICF	=	0xfb3f
                         0000FB40   450 _g_PLYCNT	=	0xfb40
                         0000FB41   451 _g_VCBA	=	0xfb41
                         0000FB66   452 _g_VCBB	=	0xfb66
                         0000FB8B   453 _g_VCBC	=	0xfb8b
                         0000FBB0   454 _g_ENSTOP	=	0xfbb0
                         0000FBB1   455 _g_BASROM	=	0xfbb1
                         0000FBB2   456 _g_LINTTB	=	0xfbb2
                         0000FBCA   457 _g_FSTPOS	=	0xfbca
                         0000FBCC   458 _g_CODSAV	=	0xfbcc
                         0000FBCD   459 _g_FNKSWI	=	0xfbcd
                         0000FBCE   460 _g_FNKFLG	=	0xfbce
                         0000FBD8   461 _g_ONGSBF	=	0xfbd8
                         0000FBD9   462 _g_CLIKFL	=	0xfbd9
                         0000FBDA   463 _g_OLDKEY	=	0xfbda
                         0000FBE5   464 _g_NEWKEY	=	0xfbe5
                         0000FBF0   465 _g_KEYBUF	=	0xfbf0
                         0000FC18   466 _g_LINWRK	=	0xfc18
                         0000FC40   467 _g_PATWRK	=	0xfc40
                         0000FC48   468 _g_BOTTOM	=	0xfc48
                         0000FC4A   469 _g_HIMEM	=	0xfc4a
                         0000FC4C   470 _g_TRPTBL	=	0xfc4c
                         0000FC9A   471 _g_RTYCNT	=	0xfc9a
                         0000FC9B   472 _g_INTFLG	=	0xfc9b
                         0000FC9C   473 _g_PADY	=	0xfc9c
                         0000FC9D   474 _g_PADX	=	0xfc9d
                         0000FC9E   475 _g_JIFFY	=	0xfc9e
                         0000FCA0   476 _g_INTVAL	=	0xfca0
                         0000FCA2   477 _g_INTCNT	=	0xfca2
                         0000FCA4   478 _g_LOWLIM	=	0xfca4
                         0000FCA5   479 _g_WINWID	=	0xfca5
                         0000FCA6   480 _g_GRPHED	=	0xfca6
                         0000FCA7   481 _g_ESCCNT	=	0xfca7
                         0000FCA8   482 _g_INSFLG	=	0xfca8
                         0000FCA9   483 _g_CSRSW	=	0xfca9
                         0000FCAA   484 _g_CSTYLE	=	0xfcaa
                         0000FCAB   485 _g_CAPST	=	0xfcab
                         0000FCAC   486 _g_KANAST	=	0xfcac
                         0000FCAD   487 _g_KANAMD	=	0xfcad
                         0000FCAE   488 _g_FLBMEM	=	0xfcae
                         0000FCAF   489 _g_SCRMOD	=	0xfcaf
                         0000FCB0   490 _g_OLDSCR	=	0xfcb0
                         0000FCB1   491 _g_CASPRV	=	0xfcb1
                         0000FCB2   492 _g_BRDATR	=	0xfcb2
                         0000FCB3   493 _g_GXPOS	=	0xfcb3
                         0000FCB5   494 _g_GYPOS	=	0xfcb5
                         0000FCBB   495 _g_DRWFLG	=	0xfcbb
                         0000FCBC   496 _g_DRWSCL	=	0xfcbc
                         0000FCBD   497 _g_DRWANG	=	0xfcbd
                         0000FCC1   498 _g_MNROM	=	0xfcc1
                         0000FCC1   499 _g_EXPTBL	=	0xfcc1
                         0000FCC5   500 _g_SLTTBL	=	0xfcc5
                         0000FCC9   501 _g_SLTATR	=	0xfcc9
                         0000FD09   502 _g_SLTWRK	=	0xfd09
                         0000FD89   503 _g_PROCNM	=	0xfd89
                         0000FFE7   504 _g_RG08SAV	=	0xffe7
                         0000FFE8   505 _g_RG09SAV	=	0xffe8
                         0000FFE9   506 _g_RG10SAV	=	0xffe9
                         0000FFEA   507 _g_RG11SAV	=	0xffea
                         0000FFEB   508 _g_RG12SAV	=	0xffeb
                         0000FFEC   509 _g_RG13SAV	=	0xffec
                         0000FFED   510 _g_RG14SAV	=	0xffed
                         0000FFEE   511 _g_RG15SAV	=	0xffee
                         0000FFEF   512 _g_RG16SAV	=	0xffef
                         0000FFF0   513 _g_RG17SAV	=	0xfff0
                         0000FFF1   514 _g_RG18SAV	=	0xfff1
                         0000FFF2   515 _g_RG19SAV	=	0xfff2
                         0000FFF3   516 _g_RG20SAV	=	0xfff3
                         0000FFF4   517 _g_RG21SAV	=	0xfff4
                         0000FFF5   518 _g_RG22SAV	=	0xfff5
                         0000FFF6   519 _g_RG23SAV	=	0xfff6
                         0000FFF7   520 _g_MINROM	=	0xfff7
                         0000FFF8   521 _g_SVFFF8	=	0xfff8
                         0000FFFA   522 _g_RG25SAV	=	0xfffa
                         0000FFFB   523 _g_RG26SAV	=	0xfffb
                         0000FFFC   524 _g_RG27SAV	=	0xfffc
                         0000FFFD   525 _g_SVFFFD	=	0xfffd
                         00000004   526 _g_CGTABL	=	0x0004
                         00000006   527 _g_VDP_DR	=	0x0006
                         00000007   528 _g_VDP_DW	=	0x0007
                         0000002B   529 _g_BASRVN	=	0x002b
                         0000002B   530 _g_ROMVersion	=	0x002b
                         0000002D   531 _g_MSXVER	=	0x002d
                         0000002E   532 _g_MSXMID	=	0x002e
                         00000034   533 _g_CHAR_16	=	0x0034
                         00000000   534 _g_SUBRID	=	0x0000
                         00000002   535 _g_STRSRC	=	0x0002
                         0000F30F   536 _g_KANJTABLE	=	0xf30f
                         0000F323   537 _g_DISKVE	=	0xf323
                         0000F325   538 _g_BREAKV	=	0xf325
                         0000F341   539 _g_RAMAD0	=	0xf341
                         0000F342   540 _g_RAMAD1	=	0xf342
                         0000F343   541 _g_RAMAD2	=	0xf343
                         0000F344   542 _g_RAMAD3	=	0xf344
                         0000F348   543 _g_MASTER	=	0xf348
                         0000F37D   544 _g_BDOS	=	0xf37d
                                    545 ;E:\Dropbox\FAUSTO\SVILUPPI\MSX\CODE\C\MSXgl\projects\soccerlg/soccerlg_s2_b1.c:39: u8 GetJoystickDirection(){
                                    546 ;	---------------------------------
                                    547 ; Function GetJoystickDirection
                                    548 ; ---------------------------------
    00000017                        549 _GetJoystickDirection::
                                    550 ;E:/Dropbox/FAUSTO/SVILUPPI/MSX/CODE/C/MSXgl/engine/src/input.h:182: u8 in = ~Joystick_Read(port);
    00000017 2E 0F            [ 7]  551 	ld	l, #0x0f
                                    552 ;	spillPairReg hl
                                    553 ;	spillPairReg hl
    00000019 CDr00r00         [17]  554 	call	_Joystick_Read
    0000001C 7D               [ 4]  555 	ld	a, l
    0000001D 2F               [ 4]  556 	cpl
                                    557 ;E:\Dropbox\FAUSTO\SVILUPPI\MSX\CODE\C\MSXgl\projects\soccerlg/soccerlg_s2_b1.c:40: u8 dir = Joystick_GetDirection(JOY_PORT_1);
    0000001E E6 0F            [ 7]  558 	and	a, #0x0f
    00000020 47               [ 4]  559 	ld	b, a
    00000021 58               [ 4]  560 	ld	e, b
                                    561 ;E:\Dropbox\FAUSTO\SVILUPPI\MSX\CODE\C\MSXgl\projects\soccerlg/soccerlg_s2_b1.c:41: u8 retValue=DIRECTION_NONE;
    00000022 0E 00            [ 7]  562 	ld	c, #0x00
                                    563 ;E:\Dropbox\FAUSTO\SVILUPPI\MSX\CODE\C\MSXgl\projects\soccerlg/soccerlg_s2_b1.c:42: switch (dir){
    00000024 3E 0A            [ 7]  564 	ld	a, #0x0a
    00000026 90               [ 4]  565 	sub	a, b
    00000027 38 4F            [12]  566 	jr	C, 00109$
    00000029 16 00            [ 7]  567 	ld	d, #0x00
    0000002B 21r32r00         [10]  568 	ld	hl, #00229$
    0000002E 19               [11]  569 	add	hl, de
    0000002F 19               [11]  570 	add	hl, de
    00000030 19               [11]  571 	add	hl, de
    00000031 E9               [ 4]  572 	jp	(hl)
    00000032                        573 00229$:
    00000032 C3r78r00         [10]  574 	jp	00109$
    00000035 C3r53r00         [10]  575 	jp	00101$
    00000038 C3r58r00         [10]  576 	jp	00102$
    0000003B C3r78r00         [10]  577 	jp	00109$
    0000003E C3r5Dr00         [10]  578 	jp	00103$
    00000041 C3r6Cr00         [10]  579 	jp	00106$
    00000044 C3r76r00         [10]  580 	jp	00108$
    00000047 C3r78r00         [10]  581 	jp	00109$
    0000004A C3r62r00         [10]  582 	jp	00104$
    0000004D C3r67r00         [10]  583 	jp	00105$
    00000050 C3r71r00         [10]  584 	jp	00107$
                                    585 ;E:\Dropbox\FAUSTO\SVILUPPI\MSX\CODE\C\MSXgl\projects\soccerlg/soccerlg_s2_b1.c:43: case JOY_INPUT_DIR_UP:
    00000053                        586 00101$:
                                    587 ;E:\Dropbox\FAUSTO\SVILUPPI\MSX\CODE\C\MSXgl\projects\soccerlg/soccerlg_s2_b1.c:44: retValue=DIRECTION_UP;
    00000053 0E 01            [ 7]  588 	ld	c, #0x01
                                    589 ;E:\Dropbox\FAUSTO\SVILUPPI\MSX\CODE\C\MSXgl\projects\soccerlg/soccerlg_s2_b1.c:45: break;
    00000055 C3r78r00         [10]  590 	jp	00109$
                                    591 ;E:\Dropbox\FAUSTO\SVILUPPI\MSX\CODE\C\MSXgl\projects\soccerlg/soccerlg_s2_b1.c:46: case JOY_INPUT_DIR_DOWN:
    00000058                        592 00102$:
                                    593 ;E:\Dropbox\FAUSTO\SVILUPPI\MSX\CODE\C\MSXgl\projects\soccerlg/soccerlg_s2_b1.c:47: retValue=DIRECTION_DOWN;
    00000058 0E 05            [ 7]  594 	ld	c, #0x05
                                    595 ;E:\Dropbox\FAUSTO\SVILUPPI\MSX\CODE\C\MSXgl\projects\soccerlg/soccerlg_s2_b1.c:48: break;
    0000005A C3r78r00         [10]  596 	jp	00109$
                                    597 ;E:\Dropbox\FAUSTO\SVILUPPI\MSX\CODE\C\MSXgl\projects\soccerlg/soccerlg_s2_b1.c:49: case JOY_INPUT_DIR_LEFT:
    0000005D                        598 00103$:
                                    599 ;E:\Dropbox\FAUSTO\SVILUPPI\MSX\CODE\C\MSXgl\projects\soccerlg/soccerlg_s2_b1.c:50: retValue=DIRECTION_LEFT;
    0000005D 0E 07            [ 7]  600 	ld	c, #0x07
                                    601 ;E:\Dropbox\FAUSTO\SVILUPPI\MSX\CODE\C\MSXgl\projects\soccerlg/soccerlg_s2_b1.c:51: break;
    0000005F C3r78r00         [10]  602 	jp	00109$
                                    603 ;E:\Dropbox\FAUSTO\SVILUPPI\MSX\CODE\C\MSXgl\projects\soccerlg/soccerlg_s2_b1.c:52: case JOY_INPUT_DIR_RIGHT:
    00000062                        604 00104$:
                                    605 ;E:\Dropbox\FAUSTO\SVILUPPI\MSX\CODE\C\MSXgl\projects\soccerlg/soccerlg_s2_b1.c:53: retValue=DIRECTION_RIGHT;
    00000062 0E 03            [ 7]  606 	ld	c, #0x03
                                    607 ;E:\Dropbox\FAUSTO\SVILUPPI\MSX\CODE\C\MSXgl\projects\soccerlg/soccerlg_s2_b1.c:54: break;
    00000064 C3r78r00         [10]  608 	jp	00109$
                                    609 ;E:\Dropbox\FAUSTO\SVILUPPI\MSX\CODE\C\MSXgl\projects\soccerlg/soccerlg_s2_b1.c:55: case JOY_INPUT_DIR_UP_RIGHT:
    00000067                        610 00105$:
                                    611 ;E:\Dropbox\FAUSTO\SVILUPPI\MSX\CODE\C\MSXgl\projects\soccerlg/soccerlg_s2_b1.c:56: retValue=DIRECTION_UP_RIGHT;
    00000067 0E 02            [ 7]  612 	ld	c, #0x02
                                    613 ;E:\Dropbox\FAUSTO\SVILUPPI\MSX\CODE\C\MSXgl\projects\soccerlg/soccerlg_s2_b1.c:57: break;
    00000069 C3r78r00         [10]  614 	jp	00109$
                                    615 ;E:\Dropbox\FAUSTO\SVILUPPI\MSX\CODE\C\MSXgl\projects\soccerlg/soccerlg_s2_b1.c:58: case JOY_INPUT_DIR_UP_LEFT:
    0000006C                        616 00106$:
                                    617 ;E:\Dropbox\FAUSTO\SVILUPPI\MSX\CODE\C\MSXgl\projects\soccerlg/soccerlg_s2_b1.c:59: retValue=DIRECTION_UP_LEFT;
    0000006C 0E 08            [ 7]  618 	ld	c, #0x08
                                    619 ;E:\Dropbox\FAUSTO\SVILUPPI\MSX\CODE\C\MSXgl\projects\soccerlg/soccerlg_s2_b1.c:60: break;
    0000006E C3r78r00         [10]  620 	jp	00109$
                                    621 ;E:\Dropbox\FAUSTO\SVILUPPI\MSX\CODE\C\MSXgl\projects\soccerlg/soccerlg_s2_b1.c:61: case JOY_INPUT_DIR_DOWN_RIGHT:
    00000071                        622 00107$:
                                    623 ;E:\Dropbox\FAUSTO\SVILUPPI\MSX\CODE\C\MSXgl\projects\soccerlg/soccerlg_s2_b1.c:62: retValue=DIRECTION_DOWN_RIGHT;
    00000071 0E 04            [ 7]  624 	ld	c, #0x04
                                    625 ;E:\Dropbox\FAUSTO\SVILUPPI\MSX\CODE\C\MSXgl\projects\soccerlg/soccerlg_s2_b1.c:63: break;
    00000073 C3r78r00         [10]  626 	jp	00109$
                                    627 ;E:\Dropbox\FAUSTO\SVILUPPI\MSX\CODE\C\MSXgl\projects\soccerlg/soccerlg_s2_b1.c:64: case JOY_INPUT_DIR_DOWN_LEFT:
    00000076                        628 00108$:
                                    629 ;E:\Dropbox\FAUSTO\SVILUPPI\MSX\CODE\C\MSXgl\projects\soccerlg/soccerlg_s2_b1.c:65: retValue=DIRECTION_DOWN_LEFT;
    00000076 0E 06            [ 7]  630 	ld	c, #0x06
                                    631 ;E:\Dropbox\FAUSTO\SVILUPPI\MSX\CODE\C\MSXgl\projects\soccerlg/soccerlg_s2_b1.c:67: }
    00000078                        632 00109$:
                                    633 ;E:\Dropbox\FAUSTO\SVILUPPI\MSX\CODE\C\MSXgl\projects\soccerlg/soccerlg_s2_b1.c:68: if(retValue==DIRECTION_NONE){
    00000078 79               [ 4]  634 	ld	a, c
    00000079 B7               [ 4]  635 	or	a, a
    0000007A C2r15r01         [10]  636 	jp	NZ, 00135$
                                    637 ;E:\Dropbox\FAUSTO\SVILUPPI\MSX\CODE\C\MSXgl\projects\soccerlg/soccerlg_s2_b1.c:69: if(Keyboard_IsKeyPressed(KEY_LEFT) && Keyboard_IsKeyPressed(KEY_UP))
    0000007D C5               [11]  638 	push	bc
    0000007E 3E 48            [ 7]  639 	ld	a, #0x48
    00000080 CDr00r00         [17]  640 	call	_Keyboard_IsKeyPressed
    00000083 C1               [10]  641 	pop	bc
    00000084 B7               [ 4]  642 	or	a, a
    00000085 28 0C            [12]  643 	jr	Z, 00111$
    00000087 C5               [11]  644 	push	bc
    00000088 3E 58            [ 7]  645 	ld	a, #0x58
    0000008A CDr00r00         [17]  646 	call	_Keyboard_IsKeyPressed
    0000008D C1               [10]  647 	pop	bc
    0000008E B7               [ 4]  648 	or	a, a
    0000008F 28 02            [12]  649 	jr	Z, 00111$
                                    650 ;E:\Dropbox\FAUSTO\SVILUPPI\MSX\CODE\C\MSXgl\projects\soccerlg/soccerlg_s2_b1.c:71: retValue=DIRECTION_UP_LEFT;
    00000091 0E 08            [ 7]  651 	ld	c, #0x08
    00000093                        652 00111$:
                                    653 ;E:\Dropbox\FAUSTO\SVILUPPI\MSX\CODE\C\MSXgl\projects\soccerlg/soccerlg_s2_b1.c:73: if(Keyboard_IsKeyPressed(KEY_LEFT) && Keyboard_IsKeyPressed(KEY_DOWN))
    00000093 C5               [11]  654 	push	bc
    00000094 3E 48            [ 7]  655 	ld	a, #0x48
    00000096 CDr00r00         [17]  656 	call	_Keyboard_IsKeyPressed
    00000099 C1               [10]  657 	pop	bc
    0000009A B7               [ 4]  658 	or	a, a
    0000009B 28 0C            [12]  659 	jr	Z, 00114$
    0000009D C5               [11]  660 	push	bc
    0000009E 3E 68            [ 7]  661 	ld	a, #0x68
    000000A0 CDr00r00         [17]  662 	call	_Keyboard_IsKeyPressed
    000000A3 C1               [10]  663 	pop	bc
    000000A4 B7               [ 4]  664 	or	a, a
    000000A5 28 02            [12]  665 	jr	Z, 00114$
                                    666 ;E:\Dropbox\FAUSTO\SVILUPPI\MSX\CODE\C\MSXgl\projects\soccerlg/soccerlg_s2_b1.c:75: retValue=DIRECTION_DOWN_LEFT;
    000000A7 0E 06            [ 7]  667 	ld	c, #0x06
    000000A9                        668 00114$:
                                    669 ;E:\Dropbox\FAUSTO\SVILUPPI\MSX\CODE\C\MSXgl\projects\soccerlg/soccerlg_s2_b1.c:77: if(Keyboard_IsKeyPressed(KEY_RIGHT) && Keyboard_IsKeyPressed(KEY_DOWN))
    000000A9 C5               [11]  670 	push	bc
    000000AA 3E 78            [ 7]  671 	ld	a, #0x78
    000000AC CDr00r00         [17]  672 	call	_Keyboard_IsKeyPressed
    000000AF C1               [10]  673 	pop	bc
    000000B0 B7               [ 4]  674 	or	a, a
    000000B1 28 0C            [12]  675 	jr	Z, 00117$
    000000B3 C5               [11]  676 	push	bc
    000000B4 3E 68            [ 7]  677 	ld	a, #0x68
    000000B6 CDr00r00         [17]  678 	call	_Keyboard_IsKeyPressed
    000000B9 C1               [10]  679 	pop	bc
    000000BA B7               [ 4]  680 	or	a, a
    000000BB 28 02            [12]  681 	jr	Z, 00117$
                                    682 ;E:\Dropbox\FAUSTO\SVILUPPI\MSX\CODE\C\MSXgl\projects\soccerlg/soccerlg_s2_b1.c:79: retValue=DIRECTION_DOWN_RIGHT;
    000000BD 0E 04            [ 7]  683 	ld	c, #0x04
    000000BF                        684 00117$:
                                    685 ;E:\Dropbox\FAUSTO\SVILUPPI\MSX\CODE\C\MSXgl\projects\soccerlg/soccerlg_s2_b1.c:81: if(Keyboard_IsKeyPressed(KEY_RIGHT) && Keyboard_IsKeyPressed(KEY_UP))
    000000BF C5               [11]  686 	push	bc
    000000C0 3E 78            [ 7]  687 	ld	a, #0x78
    000000C2 CDr00r00         [17]  688 	call	_Keyboard_IsKeyPressed
    000000C5 C1               [10]  689 	pop	bc
    000000C6 B7               [ 4]  690 	or	a, a
    000000C7 28 0C            [12]  691 	jr	Z, 00120$
    000000C9 C5               [11]  692 	push	bc
    000000CA 3E 58            [ 7]  693 	ld	a, #0x58
    000000CC CDr00r00         [17]  694 	call	_Keyboard_IsKeyPressed
    000000CF C1               [10]  695 	pop	bc
    000000D0 B7               [ 4]  696 	or	a, a
    000000D1 28 02            [12]  697 	jr	Z, 00120$
                                    698 ;E:\Dropbox\FAUSTO\SVILUPPI\MSX\CODE\C\MSXgl\projects\soccerlg/soccerlg_s2_b1.c:83: retValue=DIRECTION_UP_RIGHT;
    000000D3 0E 02            [ 7]  699 	ld	c, #0x02
    000000D5                        700 00120$:
                                    701 ;E:\Dropbox\FAUSTO\SVILUPPI\MSX\CODE\C\MSXgl\projects\soccerlg/soccerlg_s2_b1.c:85: if(retValue==DIRECTION_NONE && Keyboard_IsKeyPressed(KEY_LEFT))
    000000D5 79               [ 4]  702 	ld	a, c
    000000D6 B7               [ 4]  703 	or	a, a
    000000D7 20 0C            [12]  704 	jr	NZ, 00123$
    000000D9 C5               [11]  705 	push	bc
    000000DA 3E 48            [ 7]  706 	ld	a, #0x48
    000000DC CDr00r00         [17]  707 	call	_Keyboard_IsKeyPressed
    000000DF C1               [10]  708 	pop	bc
    000000E0 B7               [ 4]  709 	or	a, a
    000000E1 28 02            [12]  710 	jr	Z, 00123$
                                    711 ;E:\Dropbox\FAUSTO\SVILUPPI\MSX\CODE\C\MSXgl\projects\soccerlg/soccerlg_s2_b1.c:87: retValue=DIRECTION_LEFT;
    000000E3 0E 07            [ 7]  712 	ld	c, #0x07
    000000E5                        713 00123$:
                                    714 ;E:\Dropbox\FAUSTO\SVILUPPI\MSX\CODE\C\MSXgl\projects\soccerlg/soccerlg_s2_b1.c:89: if(retValue==DIRECTION_NONE && Keyboard_IsKeyPressed(KEY_RIGHT))
    000000E5 79               [ 4]  715 	ld	a, c
    000000E6 B7               [ 4]  716 	or	a, a
    000000E7 20 0C            [12]  717 	jr	NZ, 00126$
    000000E9 C5               [11]  718 	push	bc
    000000EA 3E 78            [ 7]  719 	ld	a, #0x78
    000000EC CDr00r00         [17]  720 	call	_Keyboard_IsKeyPressed
    000000EF C1               [10]  721 	pop	bc
    000000F0 B7               [ 4]  722 	or	a, a
    000000F1 28 02            [12]  723 	jr	Z, 00126$
                                    724 ;E:\Dropbox\FAUSTO\SVILUPPI\MSX\CODE\C\MSXgl\projects\soccerlg/soccerlg_s2_b1.c:91: retValue=DIRECTION_RIGHT;
    000000F3 0E 03            [ 7]  725 	ld	c, #0x03
    000000F5                        726 00126$:
                                    727 ;E:\Dropbox\FAUSTO\SVILUPPI\MSX\CODE\C\MSXgl\projects\soccerlg/soccerlg_s2_b1.c:93: if(retValue==DIRECTION_NONE && Keyboard_IsKeyPressed(KEY_UP))
    000000F5 79               [ 4]  728 	ld	a, c
    000000F6 B7               [ 4]  729 	or	a, a
    000000F7 20 0C            [12]  730 	jr	NZ, 00129$
    000000F9 C5               [11]  731 	push	bc
    000000FA 3E 58            [ 7]  732 	ld	a, #0x58
    000000FC CDr00r00         [17]  733 	call	_Keyboard_IsKeyPressed
    000000FF C1               [10]  734 	pop	bc
    00000100 B7               [ 4]  735 	or	a, a
    00000101 28 02            [12]  736 	jr	Z, 00129$
                                    737 ;E:\Dropbox\FAUSTO\SVILUPPI\MSX\CODE\C\MSXgl\projects\soccerlg/soccerlg_s2_b1.c:95: retValue=DIRECTION_UP;
    00000103 0E 01            [ 7]  738 	ld	c, #0x01
    00000105                        739 00129$:
                                    740 ;E:\Dropbox\FAUSTO\SVILUPPI\MSX\CODE\C\MSXgl\projects\soccerlg/soccerlg_s2_b1.c:97: if(retValue==DIRECTION_NONE && Keyboard_IsKeyPressed(KEY_DOWN))
    00000105 79               [ 4]  741 	ld	a, c
    00000106 B7               [ 4]  742 	or	a, a
    00000107 20 0C            [12]  743 	jr	NZ, 00135$
    00000109 C5               [11]  744 	push	bc
    0000010A 3E 68            [ 7]  745 	ld	a, #0x68
    0000010C CDr00r00         [17]  746 	call	_Keyboard_IsKeyPressed
    0000010F C1               [10]  747 	pop	bc
    00000110 B7               [ 4]  748 	or	a, a
    00000111 28 02            [12]  749 	jr	Z, 00135$
                                    750 ;E:\Dropbox\FAUSTO\SVILUPPI\MSX\CODE\C\MSXgl\projects\soccerlg/soccerlg_s2_b1.c:99: retValue=DIRECTION_DOWN;
    00000113 0E 05            [ 7]  751 	ld	c, #0x05
    00000115                        752 00135$:
                                    753 ;E:\Dropbox\FAUSTO\SVILUPPI\MSX\CODE\C\MSXgl\projects\soccerlg/soccerlg_s2_b1.c:102: return retValue;
    00000115 79               [ 4]  754 	ld	a, c
                                    755 ;E:\Dropbox\FAUSTO\SVILUPPI\MSX\CODE\C\MSXgl\projects\soccerlg/soccerlg_s2_b1.c:103: }
    00000116 C9               [10]  756 	ret
                                    757 ;E:\Dropbox\FAUSTO\SVILUPPI\MSX\CODE\C\MSXgl\projects\soccerlg/soccerlg_s2_b1.c:106: void InitVariables(){
                                    758 ;	---------------------------------
                                    759 ; Function InitVariables
                                    760 ; ---------------------------------
    00000117                        761 _InitVariables::
                                    762 ;E:\Dropbox\FAUSTO\SVILUPPI\MSX\CODE\C\MSXgl\projects\soccerlg/soccerlg_s2_b1.c:107: g_ShowButtonsInfo=true;
    00000117 21r00r00         [10]  763 	ld	hl, #_g_ShowButtonsInfo
    0000011A 36 01            [10]  764 	ld	(hl), #0x01
                                    765 ;E:\Dropbox\FAUSTO\SVILUPPI\MSX\CODE\C\MSXgl\projects\soccerlg/soccerlg_s2_b1.c:109: g_Ball.PossessionPlayerId = NO_VALUE;
    0000011C 21r06r00         [10]  766 	ld	hl, #(_g_Ball + 6)
    0000011F 36 FF            [10]  767 	ld	(hl), #0xff
                                    768 ;E:\Dropbox\FAUSTO\SVILUPPI\MSX\CODE\C\MSXgl\projects\soccerlg/soccerlg_s2_b1.c:110: g_Ball.PassTargetPlayerId = NO_VALUE;
    00000121 21r10r00         [10]  769 	ld	hl, #(_g_Ball + 16)
    00000124 36 FF            [10]  770 	ld	(hl), #0xff
                                    771 ;E:\Dropbox\FAUSTO\SVILUPPI\MSX\CODE\C\MSXgl\projects\soccerlg/soccerlg_s2_b1.c:111: g_Ball.ShotActive = 0;
    00000126 21r1Br00         [10]  772 	ld	hl, #(_g_Ball + 27)
    00000129 36 00            [10]  773 	ld	(hl), #0x00
                                    774 ;E:\Dropbox\FAUSTO\SVILUPPI\MSX\CODE\C\MSXgl\projects\soccerlg/soccerlg_s2_b1.c:112: g_Ball.LastTouchTeamId = NO_VALUE;
    0000012B 21r0Er00         [10]  775 	ld	hl, #(_g_Ball + 14)
    0000012E 36 FF            [10]  776 	ld	(hl), #0xff
                                    777 ;E:\Dropbox\FAUSTO\SVILUPPI\MSX\CODE\C\MSXgl\projects\soccerlg/soccerlg_s2_b1.c:113: g_Ball.ComingFromRestart = 0;
    00000130 21r1Dr00         [10]  778 	ld	hl, #(_g_Ball + 29)
    00000133 36 00            [10]  779 	ld	(hl), #0x00
                                    780 ;E:\Dropbox\FAUSTO\SVILUPPI\MSX\CODE\C\MSXgl\projects\soccerlg/soccerlg_s2_b1.c:114: }
    00000135 C9               [10]  781 	ret
                                    782 ;E:\Dropbox\FAUSTO\SVILUPPI\MSX\CODE\C\MSXgl\projects\soccerlg/soccerlg_s2_b1.c:117: void LoadPresentation(){
                                    783 ;	---------------------------------
                                    784 ; Function LoadPresentation
                                    785 ; ---------------------------------
    00000136                        786 _LoadPresentation::
    00000136 F5               [11]  787 	push	af
    00000137 3B               [ 6]  788 	dec	sp
                                    789 ;E:\Dropbox\FAUSTO\SVILUPPI\MSX\CODE\C\MSXgl\projects\soccerlg/soccerlg_s2_b1.c:118: V9_SetScreenMode(V9_MODE_B1);
    00000138 3E 03            [ 7]  790 	ld	a, #0x03
    0000013A CDr00r00         [17]  791 	call	_V9_SetScreenMode
                                    792 ;E:/Dropbox/FAUSTO/SVILUPPI/MSX/CODE/C/MSXgl/engine/src/v9990.h:258: inline void V9_SetFlag(u8 reg, u8 mask, u8 flag) { V9_SetRegister(reg, V9_GetRegister(reg) & (~mask) | flag); }
    0000013D 3E 08            [ 7]  793 	ld	a, #0x08
    0000013F CDr00r00         [17]  794 	call	_V9_GetRegister
    00000142 6F               [ 4]  795 	ld	l, a
                                    796 ;	spillPairReg hl
                                    797 ;	spillPairReg hl
    00000143 CB BD            [ 8]  798 	res	7, l
    00000145 3E 08            [ 7]  799 	ld	a, #0x08
    00000147 CDr00r00         [17]  800 	call	_V9_SetRegister
                                    801 ;E:\Dropbox\FAUSTO\SVILUPPI\MSX\CODE\C\MSXgl\projects\soccerlg/soccerlg_s2_b1.c:120: V9_SetColorMode(V9_COLOR_BD8);
    0000014A 3E 03            [ 7]  802 	ld	a, #0x03
    0000014C CDr00r00         [17]  803 	call	_V9_SetColorMode
                                    804 ;E:\Dropbox\FAUSTO\SVILUPPI\MSX\CODE\C\MSXgl\projects\soccerlg/soccerlg_s2_b1.c:121: const u8 colorBlack[3] = { 0, 0, 0 };
    0000014F 21 00 00         [10]  805 	ld	hl, #0
    00000152 39               [11]  806 	add	hl, sp
    00000153 EB               [ 4]  807 	ex	de, hl
    00000154 AF               [ 4]  808 	xor	a, a
    00000155 12               [ 7]  809 	ld	(de), a
    00000156 4B               [ 4]  810 	ld	c, e
    00000157 42               [ 4]  811 	ld	b, d
    00000158 03               [ 6]  812 	inc	bc
    00000159 AF               [ 4]  813 	xor	a, a
    0000015A 02               [ 7]  814 	ld	(bc), a
    0000015B 4B               [ 4]  815 	ld	c, e
    0000015C 42               [ 4]  816 	ld	b, d
    0000015D 03               [ 6]  817 	inc	bc
    0000015E 03               [ 6]  818 	inc	bc
    0000015F AF               [ 4]  819 	xor	a, a
    00000160 02               [ 7]  820 	ld	(bc), a
                                    821 ;E:\Dropbox\FAUSTO\SVILUPPI\MSX\CODE\C\MSXgl\projects\soccerlg/soccerlg_s2_b1.c:122: V9_SetPaletteEntry(0, colorBlack);    
    00000161 AF               [ 4]  822 	xor	a, a
    00000162 CDr00r00         [17]  823 	call	_V9_SetPaletteEntry
                                    824 ;E:/Dropbox/FAUSTO/SVILUPPI/MSX/CODE/C/MSXgl/engine/src/v9990.h:480: inline void V9_SetBackgroundColor(u8 color) { V9_SetRegister(15, color); }
    00000165 2E 00            [ 7]  825 	ld	l, #0x00
                                    826 ;	spillPairReg hl
                                    827 ;	spillPairReg hl
    00000167 3E 0F            [ 7]  828 	ld	a, #0x0f
    00000169 CDr00r00         [17]  829 	call	_V9_SetRegister
                                    830 ;E:\Dropbox\FAUSTO\SVILUPPI\MSX\CODE\C\MSXgl\projects\soccerlg/soccerlg_s2_b1.c:125: V9990_LoadImagePresentationData(); 
    0000016C CDr00r00         [17]  831 	call	_V9990_LoadImagePresentationData
                                    832 ;E:\Dropbox\FAUSTO\SVILUPPI\MSX\CODE\C\MSXgl\projects\soccerlg/soccerlg_s2_b1.c:128: g_MatchStatus=MATCH_PRESENTATION;
    0000016F 21r00r00         [10]  833 	ld	hl, #_g_MatchStatus
    00000172 36 0F            [10]  834 	ld	(hl), #0x0f
                                    835 ;E:\Dropbox\FAUSTO\SVILUPPI\MSX\CODE\C\MSXgl\projects\soccerlg/soccerlg_s2_b1.c:129: g_Timer=0;
    00000174 21r00r00         [10]  836 	ld	hl, #_g_Timer
    00000177 36 00            [10]  837 	ld	(hl), #0x00
                                    838 ;E:/Dropbox/FAUSTO/SVILUPPI/MSX/CODE/C/MSXgl/engine/src/v9990.h:258: inline void V9_SetFlag(u8 reg, u8 mask, u8 flag) { V9_SetRegister(reg, V9_GetRegister(reg) & (~mask) | flag); }
    00000179 3E 08            [ 7]  839 	ld	a, #0x08
    0000017B CDr00r00         [17]  840 	call	_V9_GetRegister
    0000017E CB BF            [ 8]  841 	res	7, a
    00000180 6F               [ 4]  842 	ld	l, a
                                    843 ;	spillPairReg hl
                                    844 ;	spillPairReg hl
    00000181 CB FD            [ 8]  845 	set	7, l
    00000183 3E 08            [ 7]  846 	ld	a, #0x08
    00000185 CDr00r00         [17]  847 	call	_V9_SetRegister
                                    848 ;E:/Dropbox/FAUSTO/SVILUPPI/MSX/CODE/C/MSXgl/engine/src/v9990.h:606: inline void V9_SetInterruptLine(u16 line) { V9_SetRegister16(10, line); }
    00000188 11 47 00         [10]  849 	ld	de, #0x0047
    0000018B 3E 0A            [ 7]  850 	ld	a, #0x0a
    0000018D CDr00r00         [17]  851 	call	_V9_SetRegister16
                                    852 ;E:/Dropbox/FAUSTO/SVILUPPI/MSX/CODE/C/MSXgl/engine/src/v9990.h:574: inline void V9_SetInterrupt(u8 flags) { V9_SetRegister(9, flags); }
    00000190 2E 01            [ 7]  853 	ld	l, #0x01
                                    854 ;	spillPairReg hl
                                    855 ;	spillPairReg hl
    00000192 3E 09            [ 7]  856 	ld	a, #0x09
    00000194 CDr00r00         [17]  857 	call	_V9_SetRegister
                                    858 ;E:\Dropbox\FAUSTO\SVILUPPI\MSX\CODE\C\MSXgl\projects\soccerlg/soccerlg_s2_b1.c:133: while (g_Timer!=200)
    00000197                        859 00101$:
    00000197 3Ar00r00         [13]  860 	ld	a, (_g_Timer+0)
    0000019A D6 C8            [ 7]  861 	sub	a, #0xc8
    0000019C 20 F9            [12]  862 	jr	NZ, 00101$
                                    863 ;E:\Dropbox\FAUSTO\SVILUPPI\MSX\CODE\C\MSXgl\projects\soccerlg/soccerlg_s2_b1.c:137: g_MatchStatus=MATCH_NOT_STARTED;
    0000019E 21r00r00         [10]  864 	ld	hl, #_g_MatchStatus
    000001A1 36 00            [10]  865 	ld	(hl), #0x00
                                    866 ;E:/Dropbox/FAUSTO/SVILUPPI/MSX/CODE/C/MSXgl/engine/src/v9990.h:258: inline void V9_SetFlag(u8 reg, u8 mask, u8 flag) { V9_SetRegister(reg, V9_GetRegister(reg) & (~mask) | flag); }
    000001A3 3E 08            [ 7]  867 	ld	a, #0x08
    000001A5 CDr00r00         [17]  868 	call	_V9_GetRegister
    000001A8 6F               [ 4]  869 	ld	l, a
                                    870 ;	spillPairReg hl
                                    871 ;	spillPairReg hl
    000001A9 CB BD            [ 8]  872 	res	7, l
    000001AB 3E 08            [ 7]  873 	ld	a, #0x08
    000001AD CDr00r00         [17]  874 	call	_V9_SetRegister
                                    875 ;E:\Dropbox\FAUSTO\SVILUPPI\MSX\CODE\C\MSXgl\projects\soccerlg/soccerlg_s2_b1.c:139: V9_SetDisplayEnable(FALSE);
                                    876 ;E:\Dropbox\FAUSTO\SVILUPPI\MSX\CODE\C\MSXgl\projects\soccerlg/soccerlg_s2_b1.c:141: }
    000001B0 F1               [10]  877 	pop	af
    000001B1 33               [ 6]  878 	inc	sp
    000001B2 C9               [10]  879 	ret
                                    880 ;E:\Dropbox\FAUSTO\SVILUPPI\MSX\CODE\C\MSXgl\projects\soccerlg/soccerlg_s2_b1.c:144: void TickGameFieldScrolling(){
                                    881 ;	---------------------------------
                                    882 ; Function TickGameFieldScrolling
                                    883 ; ---------------------------------
    000001B3                        884 _TickGameFieldScrolling::
                                    885 ;E:\Dropbox\FAUSTO\SVILUPPI\MSX\CODE\C\MSXgl\projects\soccerlg/soccerlg_s2_b1.c:145: switch (g_FieldScrollingActionInProgress) {
    000001B3 3Ar00r00         [13]  886 	ld	a, (_g_FieldScrollingActionInProgress+0)
    000001B6 B7               [ 4]  887 	or	a, a
    000001B7 28 11            [12]  888 	jr	Z, 00101$
    000001B9 3Ar00r00         [13]  889 	ld	a, (_g_FieldScrollingActionInProgress+0)
    000001BC 3D               [ 4]  890 	dec	a
    000001BD 28 36            [12]  891 	jr	Z, 00104$
    000001BF 3Ar00r00         [13]  892 	ld	a, (_g_FieldScrollingActionInProgress+0)
    000001C2 D6 02            [ 7]  893 	sub	a, #0x02
    000001C4 CAr77r02         [10]  894 	jp	Z,00115$
    000001C7 C3rA8r02         [10]  895 	jp	00118$
                                    896 ;E:\Dropbox\FAUSTO\SVILUPPI\MSX\CODE\C\MSXgl\projects\soccerlg/soccerlg_s2_b1.c:146: case FIELD_NORTH_ZONE:
    000001CA                        897 00101$:
                                    898 ;E:\Dropbox\FAUSTO\SVILUPPI\MSX\CODE\C\MSXgl\projects\soccerlg/soccerlg_s2_b1.c:147: g_FieldCurrentYPosition = g_FieldCurrentYPosition - g_FieldScrollSpeed;
    000001CA 3Ar00r00         [13]  899 	ld	a, (_g_FieldScrollSpeed+0)
    000001CD 4F               [ 4]  900 	ld	c, a
    000001CE 06 00            [ 7]  901 	ld	b, #0x00
    000001D0 21r00r00         [10]  902 	ld	hl, #_g_FieldCurrentYPosition
    000001D3 7E               [ 7]  903 	ld	a, (hl)
    000001D4 91               [ 4]  904 	sub	a, c
    000001D5 77               [ 7]  905 	ld	(hl), a
    000001D6 23               [ 6]  906 	inc	hl
    000001D7 7E               [ 7]  907 	ld	a, (hl)
    000001D8 98               [ 4]  908 	sbc	a, b
    000001D9 77               [ 7]  909 	ld	(hl), a
                                    910 ;E:\Dropbox\FAUSTO\SVILUPPI\MSX\CODE\C\MSXgl\projects\soccerlg/soccerlg_s2_b1.c:148: if (g_FieldCurrentYPosition < 0) {
    000001DA 3Ar01r00         [13]  911 	ld	a, (_g_FieldCurrentYPosition+1)
    000001DD CB 7F            [ 8]  912 	bit	7, a
    000001DF CArA8r02         [10]  913 	jp	Z, 00118$
                                    914 ;E:\Dropbox\FAUSTO\SVILUPPI\MSX\CODE\C\MSXgl\projects\soccerlg/soccerlg_s2_b1.c:149: g_FieldCurrentYPosition = 1;
    000001E2 21 01 00         [10]  915 	ld	hl, #0x0001
    000001E5 22r00r00         [16]  916 	ld	(_g_FieldCurrentYPosition), hl
                                    917 ;E:\Dropbox\FAUSTO\SVILUPPI\MSX\CODE\C\MSXgl\projects\soccerlg/soccerlg_s2_b1.c:150: g_FieldScrollingActionInProgress = NO_VALUE;
    000001E8 21r00r00         [10]  918 	ld	hl, #_g_FieldScrollingActionInProgress
    000001EB 36 FF            [10]  919 	ld	(hl), #0xff
                                    920 ;E:\Dropbox\FAUSTO\SVILUPPI\MSX\CODE\C\MSXgl\projects\soccerlg/soccerlg_s2_b1.c:151: g_ActiveFieldZone = FIELD_NORTH_ZONE;
    000001ED 21r00r00         [10]  921 	ld	hl, #_g_ActiveFieldZone
    000001F0 36 00            [10]  922 	ld	(hl), #0x00
                                    923 ;E:\Dropbox\FAUSTO\SVILUPPI\MSX\CODE\C\MSXgl\projects\soccerlg/soccerlg_s2_b1.c:153: break;
    000001F2 C3rA8r02         [10]  924 	jp	00118$
                                    925 ;E:\Dropbox\FAUSTO\SVILUPPI\MSX\CODE\C\MSXgl\projects\soccerlg/soccerlg_s2_b1.c:154: case FIELD_CENTRAL_ZONE:
    000001F5                        926 00104$:
                                    927 ;E:\Dropbox\FAUSTO\SVILUPPI\MSX\CODE\C\MSXgl\projects\soccerlg/soccerlg_s2_b1.c:155: if (g_FieldCurrentYPosition != 136) {
    000001F5 3Ar00r00         [13]  928 	ld	a, (_g_FieldCurrentYPosition+0)
    000001F8 D6 88            [ 7]  929 	sub	a, #0x88
    000001FA FD 21r00r00      [14]  930 	ld	iy, #_g_FieldCurrentYPosition
    000001FE FD B6 01         [19]  931 	or	a, 1 (iy)
    00000201 28 67            [12]  932 	jr	Z, 00113$
                                    933 ;E:\Dropbox\FAUSTO\SVILUPPI\MSX\CODE\C\MSXgl\projects\soccerlg/soccerlg_s2_b1.c:147: g_FieldCurrentYPosition = g_FieldCurrentYPosition - g_FieldScrollSpeed;
    00000203 3Ar00r00         [13]  934 	ld	a, (_g_FieldScrollSpeed+0)
    00000206 4F               [ 4]  935 	ld	c, a
    00000207 06 00            [ 7]  936 	ld	b, #0x00
                                    937 ;E:\Dropbox\FAUSTO\SVILUPPI\MSX\CODE\C\MSXgl\projects\soccerlg/soccerlg_s2_b1.c:156: if (g_FieldCurrentYPosition > FIELD_CENTRAL_Y) {
    00000209 3E 8C            [ 7]  938 	ld	a, #0x8c
    0000020B FD BE 00         [19]  939 	cp	a, 0 (iy)
    0000020E 3E 00            [ 7]  940 	ld	a, #0x00
    00000210 FD 9E 01         [19]  941 	sbc	a, 1 (iy)
    00000213 E2r18r02         [10]  942 	jp	PO, 00185$
    00000216 EE 80            [ 7]  943 	xor	a, #0x80
    00000218                        944 00185$:
    00000218 F2r3Dr02         [10]  945 	jp	P, 00110$
                                    946 ;E:\Dropbox\FAUSTO\SVILUPPI\MSX\CODE\C\MSXgl\projects\soccerlg/soccerlg_s2_b1.c:157: g_FieldCurrentYPosition = g_FieldCurrentYPosition - g_FieldScrollSpeed;
    0000021B 21r00r00         [10]  947 	ld	hl, #_g_FieldCurrentYPosition
    0000021E 7E               [ 7]  948 	ld	a, (hl)
    0000021F 91               [ 4]  949 	sub	a, c
    00000220 77               [ 7]  950 	ld	(hl), a
    00000221 23               [ 6]  951 	inc	hl
    00000222 7E               [ 7]  952 	ld	a, (hl)
    00000223 98               [ 4]  953 	sbc	a, b
    00000224 77               [ 7]  954 	ld	(hl), a
                                    955 ;E:\Dropbox\FAUSTO\SVILUPPI\MSX\CODE\C\MSXgl\projects\soccerlg/soccerlg_s2_b1.c:158: if(g_FieldCurrentYPosition < 136) g_FieldCurrentYPosition = 136;
    00000225 3Ar00r00         [13]  956 	ld	a, (_g_FieldCurrentYPosition+0)
    00000228 D6 88            [ 7]  957 	sub	a, #0x88
    0000022A 3Ar01r00         [13]  958 	ld	a, (_g_FieldCurrentYPosition+1)
    0000022D 17               [ 4]  959 	rla
    0000022E 3F               [ 4]  960 	ccf
    0000022F 1F               [ 4]  961 	rra
    00000230 DE 80            [ 7]  962 	sbc	a, #0x80
    00000232 30 74            [12]  963 	jr	NC, 00118$
    00000234 21 88 00         [10]  964 	ld	hl, #0x0088
    00000237 22r00r00         [16]  965 	ld	(_g_FieldCurrentYPosition), hl
    0000023A C3rA8r02         [10]  966 	jp	00118$
    0000023D                        967 00110$:
                                    968 ;E:\Dropbox\FAUSTO\SVILUPPI\MSX\CODE\C\MSXgl\projects\soccerlg/soccerlg_s2_b1.c:161: g_FieldCurrentYPosition = g_FieldCurrentYPosition + g_FieldScrollSpeed;
    0000023D 79               [ 4]  969 	ld	a, c
    0000023E FD 21r00r00      [14]  970 	ld	iy, #_g_FieldCurrentYPosition
    00000242 FD 86 00         [19]  971 	add	a, 0 (iy)
    00000245 32r00r00         [13]  972 	ld	(_g_FieldCurrentYPosition+0), a
    00000248 78               [ 4]  973 	ld	a, b
    00000249 FD 8E 01         [19]  974 	adc	a, 1 (iy)
    0000024C 32r01r00         [13]  975 	ld	(_g_FieldCurrentYPosition+1), a
                                    976 ;E:\Dropbox\FAUSTO\SVILUPPI\MSX\CODE\C\MSXgl\projects\soccerlg/soccerlg_s2_b1.c:162: if(g_FieldCurrentYPosition > 136) g_FieldCurrentYPosition = 136;
    0000024F 3E 88            [ 7]  977 	ld	a, #0x88
    00000251 FD BE 00         [19]  978 	cp	a, 0 (iy)
    00000254 3E 00            [ 7]  979 	ld	a, #0x00
    00000256 FD 9E 01         [19]  980 	sbc	a, 1 (iy)
    00000259 E2r5Er02         [10]  981 	jp	PO, 00186$
    0000025C EE 80            [ 7]  982 	xor	a, #0x80
    0000025E                        983 00186$:
    0000025E F2rA8r02         [10]  984 	jp	P, 00118$
    00000261 21 88 00         [10]  985 	ld	hl, #0x0088
    00000264 22r00r00         [16]  986 	ld	(_g_FieldCurrentYPosition), hl
    00000267 C3rA8r02         [10]  987 	jp	00118$
    0000026A                        988 00113$:
                                    989 ;E:\Dropbox\FAUSTO\SVILUPPI\MSX\CODE\C\MSXgl\projects\soccerlg/soccerlg_s2_b1.c:167: g_FieldScrollingActionInProgress = NO_VALUE;
    0000026A 21r00r00         [10]  990 	ld	hl, #_g_FieldScrollingActionInProgress
    0000026D 36 FF            [10]  991 	ld	(hl), #0xff
                                    992 ;E:\Dropbox\FAUSTO\SVILUPPI\MSX\CODE\C\MSXgl\projects\soccerlg/soccerlg_s2_b1.c:168: g_ActiveFieldZone = FIELD_CENTRAL_ZONE;
    0000026F 21r00r00         [10]  993 	ld	hl, #_g_ActiveFieldZone
    00000272 36 01            [10]  994 	ld	(hl), #0x01
                                    995 ;E:\Dropbox\FAUSTO\SVILUPPI\MSX\CODE\C\MSXgl\projects\soccerlg/soccerlg_s2_b1.c:170: break;
    00000274 C3rA8r02         [10]  996 	jp	00118$
                                    997 ;E:\Dropbox\FAUSTO\SVILUPPI\MSX\CODE\C\MSXgl\projects\soccerlg/soccerlg_s2_b1.c:171: case FIELD_SOUTH_ZONE:
    00000277                        998 00115$:
                                    999 ;E:\Dropbox\FAUSTO\SVILUPPI\MSX\CODE\C\MSXgl\projects\soccerlg/soccerlg_s2_b1.c:172: g_FieldCurrentYPosition = g_FieldCurrentYPosition + g_FieldScrollSpeed;
    00000277 3Ar00r00         [13] 1000 	ld	a, (_g_FieldScrollSpeed+0)
    0000027A 4F               [ 4] 1001 	ld	c, a
    0000027B 06 00            [ 7] 1002 	ld	b, #0x00
    0000027D 79               [ 4] 1003 	ld	a, c
    0000027E FD 21r00r00      [14] 1004 	ld	iy, #_g_FieldCurrentYPosition
    00000282 FD 86 00         [19] 1005 	add	a, 0 (iy)
    00000285 32r00r00         [13] 1006 	ld	(_g_FieldCurrentYPosition+0), a
    00000288 78               [ 4] 1007 	ld	a, b
    00000289 FD 8E 01         [19] 1008 	adc	a, 1 (iy)
    0000028C 32r01r00         [13] 1009 	ld	(_g_FieldCurrentYPosition+1), a
                                   1010 ;E:\Dropbox\FAUSTO\SVILUPPI\MSX\CODE\C\MSXgl\projects\soccerlg/soccerlg_s2_b1.c:173: if (g_FieldCurrentYPosition >= FIELD_BOTTOM_Y) {
    0000028F 3Ar00r00         [13] 1011 	ld	a, (_g_FieldCurrentYPosition+0)
    00000292 D6 18            [ 7] 1012 	sub	a, #0x18
    00000294 3Ar01r00         [13] 1013 	ld	a, (_g_FieldCurrentYPosition+1)
    00000297 17               [ 4] 1014 	rla
    00000298 3F               [ 4] 1015 	ccf
    00000299 1F               [ 4] 1016 	rra
    0000029A DE 81            [ 7] 1017 	sbc	a, #0x81
    0000029C 38 0A            [12] 1018 	jr	C, 00118$
                                   1019 ;E:\Dropbox\FAUSTO\SVILUPPI\MSX\CODE\C\MSXgl\projects\soccerlg/soccerlg_s2_b1.c:174: g_ActiveFieldZone = FIELD_SOUTH_ZONE;
    0000029E 21r00r00         [10] 1020 	ld	hl, #_g_ActiveFieldZone
    000002A1 36 02            [10] 1021 	ld	(hl), #0x02
                                   1022 ;E:\Dropbox\FAUSTO\SVILUPPI\MSX\CODE\C\MSXgl\projects\soccerlg/soccerlg_s2_b1.c:175: g_FieldScrollingActionInProgress = NO_VALUE;
    000002A3 21r00r00         [10] 1023 	ld	hl, #_g_FieldScrollingActionInProgress
    000002A6 36 FF            [10] 1024 	ld	(hl), #0xff
                                   1025 ;E:\Dropbox\FAUSTO\SVILUPPI\MSX\CODE\C\MSXgl\projects\soccerlg/soccerlg_s2_b1.c:178: }
    000002A8                       1026 00118$:
                                   1027 ;E:\Dropbox\FAUSTO\SVILUPPI\MSX\CODE\C\MSXgl\projects\soccerlg/soccerlg_s2_b1.c:179: V9_SetScrollingBY(g_FieldCurrentYPosition);
    000002A8 2Ar00r00         [16] 1028 	ld	hl, (_g_FieldCurrentYPosition)
    000002AB CDr00r00         [17] 1029 	call	_V9_SetScrollingBY
                                   1030 ;E:\Dropbox\FAUSTO\SVILUPPI\MSX\CODE\C\MSXgl\projects\soccerlg/soccerlg_s2_b1.c:181: for(u8 i=0;i<6;i++){
    000002AE 06 00            [ 7] 1031 	ld	b, #0x00
    000002B0                       1032 00121$:
    000002B0 78               [ 4] 1033 	ld	a, b
    000002B1 D6 06            [ 7] 1034 	sub	a, #0x06
    000002B3 D0               [11] 1035 	ret	NC
                                   1036 ;E:\Dropbox\FAUSTO\SVILUPPI\MSX\CODE\C\MSXgl\projects\soccerlg/soccerlg_s2_b1.c:182: Trampoline_VOID_P1(3,PutPonPonGirlSprite,i);
    000002B4 C5               [11] 1037 	push	bc
    000002B5 C5               [11] 1038 	push	bc
    000002B6 33               [ 6] 1039 	inc	sp
    000002B7 11r00r00         [10] 1040 	ld	de, #_PutPonPonGirlSprite
    000002BA 3E 03            [ 7] 1041 	ld	a, #0x03
    000002BC CDr00r00         [17] 1042 	call	_Trampoline_VOID_P1
    000002BF C1               [10] 1043 	pop	bc
                                   1044 ;E:\Dropbox\FAUSTO\SVILUPPI\MSX\CODE\C\MSXgl\projects\soccerlg/soccerlg_s2_b1.c:181: for(u8 i=0;i<6;i++){
    000002C0 04               [ 4] 1045 	inc	b
                                   1046 ;E:\Dropbox\FAUSTO\SVILUPPI\MSX\CODE\C\MSXgl\projects\soccerlg/soccerlg_s2_b1.c:184: }
    000002C1 C3rB0r02         [10] 1047 	jp	00121$
                                   1048 ;E:\Dropbox\FAUSTO\SVILUPPI\MSX\CODE\C\MSXgl\projects\soccerlg/soccerlg_s2_b1.c:187: void MainSub(){
                                   1049 ;	---------------------------------
                                   1050 ; Function MainSub
                                   1051 ; ---------------------------------
    000002C4                       1052 _MainSub::
    000002C4 DD E5            [15] 1053 	push	ix
    000002C6 DD 21 00 00      [14] 1054 	ld	ix,#0
    000002CA DD 39            [15] 1055 	add	ix,sp
    000002CC 3B               [ 6] 1056 	dec	sp
                                   1057 ;E:\Dropbox\FAUSTO\SVILUPPI\MSX\CODE\C\MSXgl\projects\soccerlg/soccerlg_s2_b1.c:189: DEBUG_INIT();
    000002CD CDr00r00         [17] 1058 	call	_DEBUG_INIT
                                   1059 ;E:\Dropbox\FAUSTO\SVILUPPI\MSX\CODE\C\MSXgl\projects\soccerlg/soccerlg_s2_b1.c:191: InitVariables();
    000002D0 CDr17r01         [17] 1060 	call	_InitVariables
                                   1061 ;E:\Dropbox\FAUSTO\SVILUPPI\MSX\CODE\C\MSXgl\projects\soccerlg/soccerlg_s2_b1.c:193: V9_SetPort(V9_P15, 0);
    000002D3 2E 00            [ 7] 1062 	ld	l, #0x00
                                   1063 ;	spillPairReg hl
                                   1064 ;	spillPairReg hl
    000002D5 3E 6F            [ 7] 1065 	ld	a, #0x6f
    000002D7 CDr00r00         [17] 1066 	call	_V9_SetPort
                                   1067 ;E:\Dropbox\FAUSTO\SVILUPPI\MSX\CODE\C\MSXgl\projects\soccerlg/soccerlg_s2_b1.c:195: VDP_SetMode(VDP_MODE_SCREEN0);
    000002DA AF               [ 4] 1068 	xor	a, a
    000002DB CDr00r00         [17] 1069 	call	_VDP_SetMode
                                   1070 ;E:/Dropbox/FAUSTO/SVILUPPI/MSX/CODE/C/MSXgl/engine/src/vdp.h:712: inline void VDP_EnableVBlank(bool enable) { VDP_RegWriteBakMask(1, (u8)~R01_IE0, enable ? R01_IE0 : 0); }
    000002DE AF               [ 4] 1071 	xor	a, a
    000002DF F5               [11] 1072 	push	af
    000002E0 33               [ 6] 1073 	inc	sp
    000002E1 2E DF            [ 7] 1074 	ld	l, #0xdf
                                   1075 ;	spillPairReg hl
                                   1076 ;	spillPairReg hl
    000002E3 3E 01            [ 7] 1077 	ld	a, #0x01
    000002E5 CDr00r00         [17] 1078 	call	_VDP_RegWriteBakMask
                                   1079 ;E:\Dropbox\FAUSTO\SVILUPPI\MSX\CODE\C\MSXgl\projects\soccerlg/soccerlg_s2_b1.c:197: VDP_ClearVRAM();
    000002E8 CDr00r00         [17] 1080 	call	_VDP_ClearVRAM
                                   1081 ;E:\Dropbox\FAUSTO\SVILUPPI\MSX\CODE\C\MSXgl\projects\soccerlg/soccerlg_s2_b1.c:200: LoadMsxVdpFonts();
    000002EB CDr00r00         [17] 1082 	call	_LoadMsxVdpFonts
                                   1083 ;E:\Dropbox\FAUSTO\SVILUPPI\MSX\CODE\C\MSXgl\projects\soccerlg/soccerlg_s2_b1.c:202: Print_SetColor(15, 1);
    000002EE 2E 01            [ 7] 1084 	ld	l, #0x01
                                   1085 ;	spillPairReg hl
                                   1086 ;	spillPairReg hl
    000002F0 3E 0F            [ 7] 1087 	ld	a, #0x0f
    000002F2 CDr00r00         [17] 1088 	call	_Print_SetColor
                                   1089 ;E:/Dropbox/FAUSTO/SVILUPPI/MSX/CODE/C/MSXgl/engine/src/print.h:223: g_PrintData.CursorX = x;
    000002F5 01r05r00         [10] 1090 	ld	bc, #_g_PrintData + 5
    000002F8 AF               [ 4] 1091 	xor	a, a
    000002F9 02               [ 7] 1092 	ld	(bc), a
                                   1093 ;E:/Dropbox/FAUSTO/SVILUPPI/MSX/CODE/C/MSXgl/engine/src/print.h:224: g_PrintData.CursorY = y;
    000002FA 21r06r00         [10] 1094 	ld	hl, #(_g_PrintData + 6)
    000002FD 36 00            [10] 1095 	ld	(hl), #0x00
                                   1096 ;E:\Dropbox\FAUSTO\SVILUPPI\MSX\CODE\C\MSXgl\projects\soccerlg/soccerlg_s2_b1.c:204: Print_DrawText("Soccer League - 2026 Fausto Pracek");
    000002FF C5               [11] 1097 	push	bc
    00000300 21r8Br03         [10] 1098 	ld	hl, #___str_1
    00000303 CDr00r00         [17] 1099 	call	_Print_DrawText
    00000306 C1               [10] 1100 	pop	bc
                                   1101 ;E:/Dropbox/FAUSTO/SVILUPPI/MSX/CODE/C/MSXgl/engine/src/print.h:223: g_PrintData.CursorX = x;
    00000307 AF               [ 4] 1102 	xor	a, a
    00000308 02               [ 7] 1103 	ld	(bc), a
                                   1104 ;E:/Dropbox/FAUSTO/SVILUPPI/MSX/CODE/C/MSXgl/engine/src/print.h:224: g_PrintData.CursorY = y;
    00000309 21r06r00         [10] 1105 	ld	hl, #(_g_PrintData + 6)
    0000030C 36 01            [10] 1106 	ld	(hl), #0x01
                                   1107 ;E:\Dropbox\FAUSTO\SVILUPPI\MSX\CODE\C\MSXgl\projects\soccerlg/soccerlg_s2_b1.c:206: Print_DrawText("fpracek@gmail.com");
    0000030E C5               [11] 1108 	push	bc
    0000030F 21rAEr03         [10] 1109 	ld	hl, #___str_2
    00000312 CDr00r00         [17] 1110 	call	_Print_DrawText
    00000315 C1               [10] 1111 	pop	bc
                                   1112 ;E:\Dropbox\FAUSTO\SVILUPPI\MSX\CODE\C\MSXgl\projects\soccerlg/soccerlg_s2_b1.c:208: const c8* str = "V9990 not found!";
    00000316 11r7Ar03         [10] 1113 	ld	de, #___str_0
                                   1114 ;E:\Dropbox\FAUSTO\SVILUPPI\MSX\CODE\C\MSXgl\projects\soccerlg/soccerlg_s2_b1.c:209: bool v9990IsFound=V9_Detect();
    00000319 C5               [11] 1115 	push	bc
    0000031A D5               [11] 1116 	push	de
    0000031B CDr00r00         [17] 1117 	call	_V9_Detect
    0000031E D1               [10] 1118 	pop	de
    0000031F C1               [10] 1119 	pop	bc
    00000320 DD 77 FF         [19] 1120 	ld	-1 (ix), a
                                   1121 ;E:\Dropbox\FAUSTO\SVILUPPI\MSX\CODE\C\MSXgl\projects\soccerlg/soccerlg_s2_b1.c:211: if (v9990IsFound){
    00000323 B7               [ 4] 1122 	or	a, a
    00000324 28 14            [12] 1123 	jr	Z, 00102$
                                   1124 ;E:\Dropbox\FAUSTO\SVILUPPI\MSX\CODE\C\MSXgl\projects\soccerlg/soccerlg_s2_b1.c:212: str = "V9990 found!";
    00000326 11rC0r03         [10] 1125 	ld	de, #___str_3
                                   1126 ;E:/Dropbox/FAUSTO/SVILUPPI/MSX/CODE/C/MSXgl/engine/src/print.h:223: g_PrintData.CursorX = x;
    00000329 AF               [ 4] 1127 	xor	a, a
    0000032A 02               [ 7] 1128 	ld	(bc), a
                                   1129 ;E:/Dropbox/FAUSTO/SVILUPPI/MSX/CODE/C/MSXgl/engine/src/print.h:224: g_PrintData.CursorY = y;
    0000032B 21r06r00         [10] 1130 	ld	hl, #(_g_PrintData + 6)
    0000032E 36 07            [10] 1131 	ld	(hl), #0x07
                                   1132 ;E:\Dropbox\FAUSTO\SVILUPPI\MSX\CODE\C\MSXgl\projects\soccerlg/soccerlg_s2_b1.c:214: Print_DrawText("The game is running on V9990 monitor.");
    00000330 C5               [11] 1133 	push	bc
    00000331 D5               [11] 1134 	push	de
    00000332 21rCDr03         [10] 1135 	ld	hl, #___str_4
    00000335 CDr00r00         [17] 1136 	call	_Print_DrawText
    00000338 D1               [10] 1137 	pop	de
    00000339 C1               [10] 1138 	pop	bc
    0000033A                       1139 00102$:
                                   1140 ;E:/Dropbox/FAUSTO/SVILUPPI/MSX/CODE/C/MSXgl/engine/src/print.h:223: g_PrintData.CursorX = x;
    0000033A AF               [ 4] 1141 	xor	a, a
    0000033B 02               [ 7] 1142 	ld	(bc), a
                                   1143 ;E:/Dropbox/FAUSTO/SVILUPPI/MSX/CODE/C/MSXgl/engine/src/print.h:224: g_PrintData.CursorY = y;
    0000033C 21r06r00         [10] 1144 	ld	hl, #(_g_PrintData + 6)
    0000033F 36 03            [10] 1145 	ld	(hl), #0x03
                                   1146 ;E:\Dropbox\FAUSTO\SVILUPPI\MSX\CODE\C\MSXgl\projects\soccerlg/soccerlg_s2_b1.c:217: Print_DrawText(str);
    00000341 EB               [ 4] 1147 	ex	de, hl
    00000342 CDr00r00         [17] 1148 	call	_Print_DrawText
                                   1149 ;E:\Dropbox\FAUSTO\SVILUPPI\MSX\CODE\C\MSXgl\projects\soccerlg/soccerlg_s2_b1.c:218: if(!v9990IsFound){
    00000345 DD 7E FF         [19] 1150 	ld	a, -1 (ix)
    00000348 B7               [ 4] 1151 	or	a, a
    00000349 20 03            [12] 1152 	jr	NZ, 00105$
    0000034B                       1153 00113$:
    0000034B C3r4Br03         [10] 1154 	jp	00113$
    0000034E                       1155 00105$:
                                   1156 ;E:/Dropbox/FAUSTO/SVILUPPI/MSX/CODE/C/MSXgl/engine/src/v9990.h:574: inline void V9_SetInterrupt(u8 flags) { V9_SetRegister(9, flags); }
    0000034E 2E 00            [ 7] 1157 	ld	l, #0x00
                                   1158 ;	spillPairReg hl
                                   1159 ;	spillPairReg hl
    00000350 3E 09            [ 7] 1160 	ld	a, #0x09
    00000352 CDr00r00         [17] 1161 	call	_V9_SetRegister
                                   1162 ;E:\Dropbox\FAUSTO\SVILUPPI\MSX\CODE\C\MSXgl\projects\soccerlg/soccerlg_s2_b1.c:224: LoadPresentation();
    00000355 CDr36r01         [17] 1163 	call	_LoadPresentation
                                   1164 ;E:\Dropbox\FAUSTO\SVILUPPI\MSX\CODE\C\MSXgl\projects\soccerlg/soccerlg_s2_b1.c:225: Trampoline_VOID(3,V9990_InitMenuLayers);
    00000358 11r00r00         [10] 1165 	ld	de, #_V9990_InitMenuLayers
    0000035B 3E 03            [ 7] 1166 	ld	a, #0x03
    0000035D CDr00r00         [17] 1167 	call	_Trampoline_VOID
                                   1168 ;E:\Dropbox\FAUSTO\SVILUPPI\MSX\CODE\C\MSXgl\projects\soccerlg/soccerlg_s2_b1.c:226: PlayVGM(VGM_MENU);
    00000360 AF               [ 4] 1169 	xor	a, a
    00000361 CDr00r00         [17] 1170 	call	_PlayVGM
                                   1171 ;E:\Dropbox\FAUSTO\SVILUPPI\MSX\CODE\C\MSXgl\projects\soccerlg/soccerlg_s2_b1.c:227: Trampoline_VOID(4,ShowMenu);
    00000364 11r00r00         [10] 1172 	ld	de, #_ShowMenu
    00000367 3E 04            [ 7] 1173 	ld	a, #0x04
    00000369 CDr00r00         [17] 1174 	call	_Trampoline_VOID
                                   1175 ;E:\Dropbox\FAUSTO\SVILUPPI\MSX\CODE\C\MSXgl\projects\soccerlg/soccerlg_s2_b1.c:228: VGM_Stop();
    0000036C CDr00r00         [17] 1176 	call	_VGM_Stop
                                   1177 ;E:\Dropbox\FAUSTO\SVILUPPI\MSX\CODE\C\MSXgl\projects\soccerlg/soccerlg_s2_b1.c:232: V9_SetPort(V9_P15, 0x10);	
    0000036F 2E 10            [ 7] 1178 	ld	l, #0x10
                                   1179 ;	spillPairReg hl
                                   1180 ;	spillPairReg hl
    00000371 3E 6F            [ 7] 1181 	ld	a, #0x6f
    00000373 CDr00r00         [17] 1182 	call	_V9_SetPort
                                   1183 ;E:\Dropbox\FAUSTO\SVILUPPI\MSX\CODE\C\MSXgl\projects\soccerlg/soccerlg_s2_b1.c:233: } 
    00000376 33               [ 6] 1184 	inc	sp
    00000377 DD E1            [14] 1185 	pop	ix
    00000379 C9               [10] 1186 	ret
    0000037A                       1187 ___str_0:
    0000037A 56 39 39 39 30 20 6E  1188 	.ascii "V9990 not found!"
             6F 74 20 66 6F 75 6E
             64 21
    0000038A 00                    1189 	.db 0x00
    0000038B                       1190 ___str_1:
    0000038B 53 6F 63 63 65 72 20  1191 	.ascii "Soccer League - 2026 Fausto Pracek"
             4C 65 61 67 75 65 20
             2D 20 32 30 32 36 20
             46 61 75 73 74 6F 20
             50 72 61 63 65 6B
    000003AD 00                    1192 	.db 0x00
    000003AE                       1193 ___str_2:
    000003AE 66 70 72 61 63 65 6B  1194 	.ascii "fpracek@gmail.com"
             40 67 6D 61 69 6C 2E
             63 6F 6D
    000003BF 00                    1195 	.db 0x00
    000003C0                       1196 ___str_3:
    000003C0 56 39 39 39 30 20 66  1197 	.ascii "V9990 found!"
             6F 75 6E 64 21
    000003CC 00                    1198 	.db 0x00
    000003CD                       1199 ___str_4:
    000003CD 54 68 65 20 67 61 6D  1200 	.ascii "The game is running on V9990 monitor."
             65 20 69 73 20 72 75
             6E 6E 69 6E 67 20 6F
             6E 20 56 39 39 39 30
             20 6D 6F 6E 69 74 6F
             72 2E
    000003F2 00                    1201 	.db 0x00
                                   1202 	.area _SEG2
                                   1203 	.area _INITIALIZER
                                   1204 	.area _CABS (ABS)
