                                      1 ;--------------------------------------------------------
                                      2 ; File Created by SDCC : free open source ANSI-C Compiler
                                      3 ; Version 4.2.0 #13081 (MINGW64)
                                      4 ;--------------------------------------------------------
                                      5 	.module soccerlg_s4_b1
                                      6 	.optsdcc -mz80
                                      7 	
                                      8 ;--------------------------------------------------------
                                      9 ; Public variables in this module
                                     10 ;--------------------------------------------------------
                                     11 	.globl _VGM_Stop
                                     12 	.globl _PSG_Mute
                                     13 	.globl _TimeUp
                                     14 	.globl _InitPonPonGirls
                                     15 	.globl _V9990_PrintLayerAStringAtPos
                                     16 	.globl _V9990_InitPalette
                                     17 	.globl _PutBallSprite
                                     18 	.globl _CornerKick
                                     19 	.globl _GoalkeeperWithBall
                                     20 	.globl _SetPlayerBallPossession
                                     21 	.globl _IsTeamJoystickTriggerPressed
                                     22 	.globl _GetJoystickDirection
                                     23 	.globl _PerformPass
                                     24 	.globl _PutBallOnPlayerFeet
                                     25 	.globl _GetClosestPlayerToBall
                                     26 	.globl _Trampoline_VOID_P2
                                     27 	.globl _Math_Abs32
                                     28 	.globl _GetTeamStats
                                     29 	.globl _PlayPcm
                                     30 	.globl _Trampoline_U8_P2
                                     31 	.globl _Trampoline_U8
                                     32 	.globl _Trampoline_VOID_P1
                                     33 	.globl _Trampoline_VOID
                                     34 	.globl _V9990_LoadButtonsImageData
                                     35 	.globl _V9990_LoadSprites
                                     36 	.globl _V9990_LoadP1LayerB
                                     37 	.globl _V9990_LoadP1LayerA
                                     38 	.globl _V9990_LoadMenuTeamsData
                                     39 	.globl _V9990_WaitSynch
                                     40 	.globl _V9_SetPaletteEntry
                                     41 	.globl _V9_SetScrollingBY
                                     42 	.globl _V9_SetScrollingY
                                     43 	.globl _V9_Poke16_CurrentAddr
                                     44 	.globl _V9_WriteVRAM_CurrentAddr
                                     45 	.globl _V9_FillVRAM_CurrentAddr
                                     46 	.globl _V9_SetWriteAddress
                                     47 	.globl _V9_GetRegister
                                     48 	.globl _V9_SetRegister
                                     49 	.globl _g_SLTSL
                                     50 	.globl _g_GRPACY
                                     51 	.globl _g_GRPACX
                                     52 	.globl _g_LOGOPR
                                     53 	.globl _g_CMASK
                                     54 	.globl _g_CLOC
                                     55 	.globl _g_FNKSTR
                                     56 	.globl _g_ATRBYT
                                     57 	.globl _g_BDRCLR
                                     58 	.globl _g_BAKCLR
                                     59 	.globl _g_FORCLR
                                     60 	.globl _g_CSRX
                                     61 	.globl _g_CSRY
                                     62 	.globl _g_CLIKSW
                                     63 	.globl _g_MLTPAT
                                     64 	.globl _g_MLTATR
                                     65 	.globl _g_MLTCGP
                                     66 	.globl _g_MLTCOL
                                     67 	.globl _g_MLTNAM
                                     68 	.globl _g_GRPPAT
                                     69 	.globl _g_GRPATR
                                     70 	.globl _g_GRPCGP
                                     71 	.globl _g_GRPCOL
                                     72 	.globl _g_GRPNAM
                                     73 	.globl _g_T32PAT
                                     74 	.globl _g_T32ATR
                                     75 	.globl _g_T32CGP
                                     76 	.globl _g_T32COL
                                     77 	.globl _g_T32NAM
                                     78 	.globl _g_TXTPAT
                                     79 	.globl _g_TXTATR
                                     80 	.globl _g_TXTCGP
                                     81 	.globl _g_TXTCOL
                                     82 	.globl _g_TXTNAM
                                     83 	.globl _g_CLMLST
                                     84 	.globl _g_CRTCNT
                                     85 	.globl _g_LINLEN
                                     86 	.globl _g_LINL32
                                     87 	.globl _g_LINL40
                                     88 	.globl _g_Data_Palette_Team_BRA
                                     89 	.globl _g_Data_Palette_Team_GBR
                                     90 	.globl _g_Data_Palette_Team_GER
                                     91 	.globl _g_Data_Palette_Team_FRA
                                     92 	.globl _g_Data_Palette_Team_AUS
                                     93 	.globl _g_Data_Palette_Team_ITA
                                     94 	.globl _g_BDOS
                                     95 	.globl _g_MASTER
                                     96 	.globl _g_RAMAD3
                                     97 	.globl _g_RAMAD2
                                     98 	.globl _g_RAMAD1
                                     99 	.globl _g_RAMAD0
                                    100 	.globl _g_BREAKV
                                    101 	.globl _g_DISKVE
                                    102 	.globl _g_KANJTABLE
                                    103 	.globl _g_STRSRC
                                    104 	.globl _g_SUBRID
                                    105 	.globl _g_CHAR_16
                                    106 	.globl _g_MSXMID
                                    107 	.globl _g_MSXVER
                                    108 	.globl _g_ROMVersion
                                    109 	.globl _g_BASRVN
                                    110 	.globl _g_VDP_DW
                                    111 	.globl _g_VDP_DR
                                    112 	.globl _g_CGTABL
                                    113 	.globl _g_SVFFFD
                                    114 	.globl _g_RG27SAV
                                    115 	.globl _g_RG26SAV
                                    116 	.globl _g_RG25SAV
                                    117 	.globl _g_SVFFF8
                                    118 	.globl _g_MINROM
                                    119 	.globl _g_RG23SAV
                                    120 	.globl _g_RG22SAV
                                    121 	.globl _g_RG21SAV
                                    122 	.globl _g_RG20SAV
                                    123 	.globl _g_RG19SAV
                                    124 	.globl _g_RG18SAV
                                    125 	.globl _g_RG17SAV
                                    126 	.globl _g_RG16SAV
                                    127 	.globl _g_RG15SAV
                                    128 	.globl _g_RG14SAV
                                    129 	.globl _g_RG13SAV
                                    130 	.globl _g_RG12SAV
                                    131 	.globl _g_RG11SAV
                                    132 	.globl _g_RG10SAV
                                    133 	.globl _g_RG09SAV
                                    134 	.globl _g_RG08SAV
                                    135 	.globl _g_PROCNM
                                    136 	.globl _g_SLTWRK
                                    137 	.globl _g_SLTATR
                                    138 	.globl _g_SLTTBL
                                    139 	.globl _g_EXPTBL
                                    140 	.globl _g_MNROM
                                    141 	.globl _g_DRWANG
                                    142 	.globl _g_DRWSCL
                                    143 	.globl _g_DRWFLG
                                    144 	.globl _g_GYPOS
                                    145 	.globl _g_GXPOS
                                    146 	.globl _g_BRDATR
                                    147 	.globl _g_CASPRV
                                    148 	.globl _g_OLDSCR
                                    149 	.globl _g_SCRMOD
                                    150 	.globl _g_FLBMEM
                                    151 	.globl _g_KANAMD
                                    152 	.globl _g_KANAST
                                    153 	.globl _g_CAPST
                                    154 	.globl _g_CSTYLE
                                    155 	.globl _g_CSRSW
                                    156 	.globl _g_INSFLG
                                    157 	.globl _g_ESCCNT
                                    158 	.globl _g_GRPHED
                                    159 	.globl _g_WINWID
                                    160 	.globl _g_LOWLIM
                                    161 	.globl _g_INTCNT
                                    162 	.globl _g_INTVAL
                                    163 	.globl _g_JIFFY
                                    164 	.globl _g_PADX
                                    165 	.globl _g_PADY
                                    166 	.globl _g_INTFLG
                                    167 	.globl _g_RTYCNT
                                    168 	.globl _g_TRPTBL
                                    169 	.globl _g_HIMEM
                                    170 	.globl _g_BOTTOM
                                    171 	.globl _g_PATWRK
                                    172 	.globl _g_LINWRK
                                    173 	.globl _g_KEYBUF
                                    174 	.globl _g_NEWKEY
                                    175 	.globl _g_OLDKEY
                                    176 	.globl _g_CLIKFL
                                    177 	.globl _g_ONGSBF
                                    178 	.globl _g_FNKFLG
                                    179 	.globl _g_FNKSWI
                                    180 	.globl _g_CODSAV
                                    181 	.globl _g_FSTPOS
                                    182 	.globl _g_LINTTB
                                    183 	.globl _g_BASROM
                                    184 	.globl _g_ENSTOP
                                    185 	.globl _g_VCBC
                                    186 	.globl _g_VCBB
                                    187 	.globl _g_VCBA
                                    188 	.globl _g_PLYCNT
                                    189 	.globl _g_MUSICF
                                    190 	.globl _g_QUEUEN
                                    191 	.globl _g_MCLPTR
                                    192 	.globl _g_MCLLEN
                                    193 	.globl _g_SAVVOL
                                    194 	.globl _g_VOICEN
                                    195 	.globl _g_SAVSP
                                    196 	.globl _g_PRSCNT
                                    197 	.globl _g_LSTMOD
                                    198 	.globl _g_LSTCOM
                                    199 	.globl _g_COMMSK
                                    200 	.globl _g_ESTBLS
                                    201 	.globl _g_FLAGS
                                    202 	.globl _g_ERRORS
                                    203 	.globl _g_DATCNT
                                    204 	.globl _g_DEVNUM
                                    205 	.globl _g_OLDINT
                                    206 	.globl _g_OLDSTT
                                    207 	.globl _g_MEXBIh
                                    208 	.globl _g_RSIQLN
                                    209 	.globl _g_RSFCB
                                    210 	.globl _g_TOCNT
                                    211 	.globl _g_RSTMP
                                    212 	.globl _g_YSAVE
                                    213 	.globl _g_XSAVE
                                    214 	.globl _g_NORUSE
                                    215 	.globl _g_MODE
                                    216 	.globl _g_ROMA
                                    217 	.globl _g_CHRCNT
                                    218 	.globl _g_EXBRSA
                                    219 	.globl _g_AVCSAV
                                    220 	.globl _g_ACPAGE
                                    221 	.globl _g_DPPAGE
                                    222 	.globl _g_RS2IQ
                                    223 	.globl _g_VOICCQ
                                    224 	.globl _g_VOICBQ
                                    225 	.globl _g_VOICAQ
                                    226 	.globl _g_QUEBAK
                                    227 	.globl _g_QUETAB
                                    228 	.globl _g_ASPCT2
                                    229 	.globl _g_ASPCT1
                                    230 	.globl _g_HEADER
                                    231 	.globl _g_HIGH
                                    232 	.globl _g_LOW
                                    233 	.globl _g_CS240
                                    234 	.globl _g_CS120
                                    235 	.globl _g_GETPNT
                                    236 	.globl _g_PUTPNT
                                    237 	.globl _g_REPCNT
                                    238 	.globl _g_SCNCNT
                                    239 	.globl _g_FRCNEW
                                    240 	.globl _g_QUEUES
                                    241 	.globl _g_MINUPD
                                    242 	.globl _g_MAXUPD
                                    243 	.globl _g_TRGFLG
                                    244 	.globl _g_STATFL
                                    245 	.globl _g_RG7SAV
                                    246 	.globl _g_RG6SAV
                                    247 	.globl _g_RG5SAV
                                    248 	.globl _g_RG4SAV
                                    249 	.globl _g_RG3SAV
                                    250 	.globl _g_RG2SAV
                                    251 	.globl _g_RG1SAV
                                    252 	.globl _g_RG0SAV
                                    253 	.globl _g_CNSDFG
                                    254 	.globl _g_USRTAB
                                    255 	.globl _g_CLPRIM
                                    256 	.globl _g_WRPRIM
                                    257 	.globl _g_RDPRIM
                                    258 	.globl _SelectTeam
                                    259 	.globl _MenuSpriteBlinking
                                    260 	.globl _ResetPlayersInfo
                                    261 	.globl _ShowMenu
                                    262 	.globl _SetTeam1Palette
                                    263 	.globl _SetTeam2Palette
                                    264 	.globl _GetTeamPaletteById
                                    265 	.globl _GameStart
                                    266 	.globl _PerformShot
                                    267 	.globl _TickBallFlying
                                    268 	.globl _TickUpdateTime
                                    269 	.globl _BallInGoal
                                    270 	.globl _GoalKick
                                    271 	.globl _BallThrowIn
                                    272 	.globl _TickCheckBallBoundaries
                                    273 	.globl _TickGoalkeeperAnimation
                                    274 	.globl _UpdatePassTarget
                                    275 	.globl _GetBestPassTarget
                                    276 	.globl _TickBallCollision
                                    277 	.globl _PrintTeamName
                                    278 	.globl _GetNumberString
                                    279 	.globl _ShowHeaderInfo
                                    280 	.globl _SetTeamsPresentationSpritesPosition
                                    281 	.globl _ResetBallInfo
                                    282 	.globl _SetPlayerTarget
                                    283 	.globl _ShowField
                                    284 ;--------------------------------------------------------
                                    285 ; special function registers
                                    286 ;--------------------------------------------------------
                         000000A8   287 _g_PortPrimarySlot	=	0x00a8
                         000000A9   288 _g_PortReadKeyboard	=	0x00a9
                         000000AA   289 _g_PortAccessKeyboard	=	0x00aa
                         000000AB   290 _g_PortControl	=	0x00ab
                         00000098   291 _g_VDP_DataPort	=	0x0098
                         00000099   292 _g_VDP_RegPort	=	0x0099
                         00000099   293 _g_VDP_AddrPort	=	0x0099
                         00000099   294 _g_VDP_StatPort	=	0x0099
                         000000A0   295 _g_PSG_RegPort	=	0x00a0
                         000000A1   296 _g_PSG_DataPort	=	0x00a1
                         000000A2   297 _g_PSG_StatPort	=	0x00a2
                         00000010   298 _g_PSG_Ext_RegPort	=	0x0010
                         00000011   299 _g_PSG_Ext_DataPort	=	0x0011
                         00000012   300 _g_PSG_Ext_StatPort	=	0x0012
                         0000007C   301 _g_MSXMusic_IndexPort	=	0x007c
                         0000007D   302 _g_MSXMusic_DataPort	=	0x007d
                         000000C0   303 _g_MSXAudio_IndexPort	=	0x00c0
                         000000C1   304 _g_MSXAudio_DataPort	=	0x00c1
                         000000C2   305 _g_MSXAudio_IndexPort2	=	0x00c2
                         000000C3   306 _g_MSXAudio_DataPort2	=	0x00c3
                         000000B4   307 _g_RTC_AddrPort	=	0x00b4
                         000000B5   308 _g_RTC_DataPort	=	0x00b5
                         00000060   309 _g_V9_VRAMPort	=	0x0060
                         00000061   310 _g_V9_PalettePort	=	0x0061
                         00000062   311 _g_V9_CmdDataPort	=	0x0062
                         00000063   312 _g_V9_RegDataPort	=	0x0063
                         00000064   313 _g_V9_RegSelectPort	=	0x0064
                         00000065   314 _g_V9_SatusPort	=	0x0065
                         00000066   315 _g_V9_IntFlagPort	=	0x0066
                         00000067   316 _g_V9_SysCtrlPort	=	0x0067
                         00000068   317 _g_V9_KanjiAddrLPort	=	0x0068
                         00000069   318 _g_V9_KanjiAddrHPort	=	0x0069
                         00000069   319 _g_V9_KanjiDataPort	=	0x0069
                         0000006A   320 _g_V9_Kanji2AddrLPort	=	0x006a
                         0000006B   321 _g_V9_Kanji2AddrHPort	=	0x006b
                         0000006B   322 _g_V9_Kanji2DataPort	=	0x006b
                         0000006F   323 _g_V9_OutputCtrPort	=	0x006f
                                    324 ;--------------------------------------------------------
                                    325 ; ram data
                                    326 ;--------------------------------------------------------
                                    327 	.area _DATA
                         0000F3AE   328 _g_LINL40	=	0xf3ae
                         0000F3AF   329 _g_LINL32	=	0xf3af
                         0000F3B0   330 _g_LINLEN	=	0xf3b0
                         0000F3B1   331 _g_CRTCNT	=	0xf3b1
                         0000F3B2   332 _g_CLMLST	=	0xf3b2
                         0000F3B3   333 _g_TXTNAM	=	0xf3b3
                         0000F3B5   334 _g_TXTCOL	=	0xf3b5
                         0000F3B7   335 _g_TXTCGP	=	0xf3b7
                         0000F3B9   336 _g_TXTATR	=	0xf3b9
                         0000F3BB   337 _g_TXTPAT	=	0xf3bb
                         0000F3BD   338 _g_T32NAM	=	0xf3bd
                         0000F3BF   339 _g_T32COL	=	0xf3bf
                         0000F3C1   340 _g_T32CGP	=	0xf3c1
                         0000F3C3   341 _g_T32ATR	=	0xf3c3
                         0000F3C5   342 _g_T32PAT	=	0xf3c5
                         0000F3C7   343 _g_GRPNAM	=	0xf3c7
                         0000F3C9   344 _g_GRPCOL	=	0xf3c9
                         0000F3CB   345 _g_GRPCGP	=	0xf3cb
                         0000F3CD   346 _g_GRPATR	=	0xf3cd
                         0000F3CF   347 _g_GRPPAT	=	0xf3cf
                         0000F3D1   348 _g_MLTNAM	=	0xf3d1
                         0000F3D3   349 _g_MLTCOL	=	0xf3d3
                         0000F3D5   350 _g_MLTCGP	=	0xf3d5
                         0000F3D7   351 _g_MLTATR	=	0xf3d7
                         0000F3D9   352 _g_MLTPAT	=	0xf3d9
                         0000F3DB   353 _g_CLIKSW	=	0xf3db
                         0000F3DC   354 _g_CSRY	=	0xf3dc
                         0000F3DD   355 _g_CSRX	=	0xf3dd
                         0000F3E9   356 _g_FORCLR	=	0xf3e9
                         0000F3EA   357 _g_BAKCLR	=	0xf3ea
                         0000F3EB   358 _g_BDRCLR	=	0xf3eb
                         0000F3F2   359 _g_ATRBYT	=	0xf3f2
                         0000F87F   360 _g_FNKSTR	=	0xf87f
                         0000F92A   361 _g_CLOC	=	0xf92a
                         0000F92C   362 _g_CMASK	=	0xf92c
                         0000FB02   363 _g_LOGOPR	=	0xfb02
                         0000FCB7   364 _g_GRPACX	=	0xfcb7
                         0000FCB9   365 _g_GRPACY	=	0xfcb9
                         0000FFFF   366 _g_SLTSL	=	0xffff
    00000000                        367 _UpdatePassTarget_passUpdateTimer_65537_1535:
    00000000                        368 	.ds 1
    00000001                        369 _GetNumberString_str_65536_1582:
    00000001                        370 	.ds 5
                                    371 ;--------------------------------------------------------
                                    372 ; ram data
                                    373 ;--------------------------------------------------------
                                    374 	.area _INITIALIZED
                                    375 ;--------------------------------------------------------
                                    376 ; absolute external ram data
                                    377 ;--------------------------------------------------------
                                    378 	.area _DABS (ABS)
                                    379 ;--------------------------------------------------------
                                    380 ; global & static initialisations
                                    381 ;--------------------------------------------------------
                                    382 	.area _HOME
                                    383 	.area _GSINIT
                                    384 	.area _GSFINAL
                                    385 	.area _GSINIT
                                    386 ;E:\Dropbox\FAUSTO\SVILUPPI\MSX\CODE\C\MSXgl\projects\soccerlg/soccerlg_s4_b1.c:1033: static u8 passUpdateTimer = 0;
    00000000 FD 21r00r00      [14]  387 	ld	iy, #_UpdatePassTarget_passUpdateTimer_65537_1535
    00000004 FD 36 00 00      [19]  388 	ld	0 (iy), #0x00
                                    389 ;--------------------------------------------------------
                                    390 ; Home
                                    391 ;--------------------------------------------------------
                                    392 	.area _HOME
                                    393 	.area _HOME
                                    394 ;--------------------------------------------------------
                                    395 ; code
                                    396 ;--------------------------------------------------------
                                    397 	.area _SEG4
                                    398 ;E:\Dropbox\FAUSTO\SVILUPPI\MSX\CODE\C\MSXgl\projects\soccerlg/soccerlg_s4_b1.c:157: u8 SelectTeam(u8 cursorPatternId, u8 excludeIndex) {
                                    399 ;	---------------------------------
                                    400 ; Function SelectTeam
                                    401 ; ---------------------------------
    00000000                        402 _SelectTeam::
    00000000 DD E5            [15]  403 	push	ix
    00000002 DD 21 00 00      [14]  404 	ld	ix,#0
    00000006 DD 39            [15]  405 	add	ix,sp
    00000008 FD 21 F6 FF      [14]  406 	ld	iy, #-10
    0000000C FD 39            [15]  407 	add	iy, sp
    0000000E FD F9            [10]  408 	ld	sp, iy
    00000010 DD 77 FF         [19]  409 	ld	-1 (ix), a
    00000013 DD 75 FE         [19]  410 	ld	-2 (ix), l
                                    411 ;E:\Dropbox\FAUSTO\SVILUPPI\MSX\CODE\C\MSXgl\projects\soccerlg/soccerlg_s4_b1.c:159: u8 currentIdx = 0;
    00000016 DD 36 FA 00      [19]  412 	ld	-6 (ix), #0x00
                                    413 ;E:\Dropbox\FAUSTO\SVILUPPI\MSX\CODE\C\MSXgl\projects\soccerlg/soccerlg_s4_b1.c:160: if (currentIdx == excludeIndex) currentIdx++;
    0000001A DD 7E FE         [19]  414 	ld	a, -2 (ix)
    0000001D B7               [ 4]  415 	or	a, a
    0000001E 20 04            [12]  416 	jr	NZ, 00102$
    00000020 DD 36 FA 01      [19]  417 	ld	-6 (ix), #0x01
    00000024                        418 00102$:
                                    419 ;E:\Dropbox\FAUSTO\SVILUPPI\MSX\CODE\C\MSXgl\projects\soccerlg/soccerlg_s4_b1.c:163: u8 oldDir = DIRECTION_NONE;
    00000024 DD 36 FD 00      [19]  420 	ld	-3 (ix), #0x00
                                    421 ;E:\Dropbox\FAUSTO\SVILUPPI\MSX\CODE\C\MSXgl\projects\soccerlg/soccerlg_s4_b1.c:165: bool oldTrigger = true; // Force release first
    00000028 DD 36 FB 01      [19]  422 	ld	-5 (ix), #0x01
                                    423 ;E:\Dropbox\FAUSTO\SVILUPPI\MSX\CODE\C\MSXgl\projects\soccerlg/soccerlg_s4_b1.c:167: while (true) {
    0000002C                        424 00143$:
                                    425 ;E:\Dropbox\FAUSTO\SVILUPPI\MSX\CODE\C\MSXgl\projects\soccerlg/soccerlg_s4_b1.c:168: V9990_WaitSynch();
    0000002C CDr00r00         [17]  426 	call	_V9990_WaitSynch
                                    427 ;E:\Dropbox\FAUSTO\SVILUPPI\MSX\CODE\C\MSXgl\projects\soccerlg/soccerlg_s4_b1.c:169: dir=Trampoline_U8(2,GetJoystickDirection);
    0000002F 11r00r00         [10]  428 	ld	de, #_GetJoystickDirection
    00000032 3E 02            [ 7]  429 	ld	a, #0x02
    00000034 CDr00r00         [17]  430 	call	_Trampoline_U8
    00000037 4F               [ 4]  431 	ld	c, a
                                    432 ;E:\Dropbox\FAUSTO\SVILUPPI\MSX\CODE\C\MSXgl\projects\soccerlg/soccerlg_s4_b1.c:171: trigger=Trampoline_U8(2,IsTeamJoystickTriggerPressed);
    00000038 C5               [11]  433 	push	bc
    00000039 11r00r00         [10]  434 	ld	de, #_IsTeamJoystickTriggerPressed
    0000003C 3E 02            [ 7]  435 	ld	a, #0x02
    0000003E CDr00r00         [17]  436 	call	_Trampoline_U8
    00000041 C1               [10]  437 	pop	bc
    00000042 DD 77 FC         [19]  438 	ld	-4 (ix), a
                                    439 ;E:\Dropbox\FAUSTO\SVILUPPI\MSX\CODE\C\MSXgl\projects\soccerlg/soccerlg_s4_b1.c:173: if (dir != DIRECTION_NONE && dir != oldDir) {
    00000045 79               [ 4]  440 	ld	a, c
    00000046 B7               [ 4]  441 	or	a, a
    00000047 CAr22r01         [10]  442 	jp	Z, 00137$
    0000004A 79               [ 4]  443 	ld	a, c
    0000004B DD 96 FD         [19]  444 	sub	a, -3 (ix)
    0000004E CAr22r01         [10]  445 	jp	Z,00137$
                                    446 ;E:\Dropbox\FAUSTO\SVILUPPI\MSX\CODE\C\MSXgl\projects\soccerlg/soccerlg_s4_b1.c:174: u8 nextIdx = currentIdx;
    00000051 DD 46 FA         [19]  447 	ld	b, -6 (ix)
                                    448 ;E:\Dropbox\FAUSTO\SVILUPPI\MSX\CODE\C\MSXgl\projects\soccerlg/soccerlg_s4_b1.c:176: if (dir == DIRECTION_RIGHT) {
    00000054 79               [ 4]  449 	ld	a, c
    00000055 D6 03            [ 7]  450 	sub	a, #0x03
    00000057 3E 01            [ 7]  451 	ld	a, #0x01
    00000059 28 01            [12]  452 	jr	Z, 00248$
    0000005B AF               [ 4]  453 	xor	a, a
    0000005C                        454 00248$:
    0000005C DD 77 FD         [19]  455 	ld	-3 (ix), a
    0000005F B7               [ 4]  456 	or	a, a
    00000060 28 1F            [12]  457 	jr	Z, 00120$
                                    458 ;E:\Dropbox\FAUSTO\SVILUPPI\MSX\CODE\C\MSXgl\projects\soccerlg/soccerlg_s4_b1.c:177: if ((currentIdx % 3) < 2) nextIdx++;
    00000062 DD 6E FA         [19]  459 	ld	l, -6 (ix)
                                    460 ;	spillPairReg hl
                                    461 ;	spillPairReg hl
    00000065 26 00            [ 7]  462 	ld	h, #0x00
                                    463 ;	spillPairReg hl
                                    464 ;	spillPairReg hl
    00000067 C5               [11]  465 	push	bc
    00000068 11 03 00         [10]  466 	ld	de, #0x0003
    0000006B CDr00r00         [17]  467 	call	__modsint
    0000006E C1               [10]  468 	pop	bc
    0000006F 7B               [ 4]  469 	ld	a, e
    00000070 D6 02            [ 7]  470 	sub	a, #0x02
    00000072 7A               [ 4]  471 	ld	a, d
    00000073 17               [ 4]  472 	rla
    00000074 3F               [ 4]  473 	ccf
    00000075 1F               [ 4]  474 	rra
    00000076 DE 80            [ 7]  475 	sbc	a, #0x80
    00000078 30 51            [12]  476 	jr	NC, 00121$
    0000007A DD 46 FA         [19]  477 	ld	b, -6 (ix)
    0000007D 04               [ 4]  478 	inc	b
    0000007E C3rCBr00         [10]  479 	jp	00121$
    00000081                        480 00120$:
                                    481 ;E:\Dropbox\FAUSTO\SVILUPPI\MSX\CODE\C\MSXgl\projects\soccerlg/soccerlg_s4_b1.c:178: } else if (dir == DIRECTION_LEFT) {
    00000081 79               [ 4]  482 	ld	a, c
    00000082 D6 07            [ 7]  483 	sub	a, #0x07
    00000084 20 1F            [12]  484 	jr	NZ, 00117$
                                    485 ;E:\Dropbox\FAUSTO\SVILUPPI\MSX\CODE\C\MSXgl\projects\soccerlg/soccerlg_s4_b1.c:179: if ((currentIdx % 3) > 0) nextIdx--;
    00000086 DD 6E FA         [19]  486 	ld	l, -6 (ix)
                                    487 ;	spillPairReg hl
                                    488 ;	spillPairReg hl
    00000089 26 00            [ 7]  489 	ld	h, #0x00
                                    490 ;	spillPairReg hl
                                    491 ;	spillPairReg hl
    0000008B C5               [11]  492 	push	bc
    0000008C 11 03 00         [10]  493 	ld	de, #0x0003
    0000008F CDr00r00         [17]  494 	call	__modsint
    00000092 C1               [10]  495 	pop	bc
    00000093 AF               [ 4]  496 	xor	a, a
    00000094 BB               [ 4]  497 	cp	a, e
    00000095 9A               [ 4]  498 	sbc	a, d
    00000096 E2r9Br00         [10]  499 	jp	PO, 00251$
    00000099 EE 80            [ 7]  500 	xor	a, #0x80
    0000009B                        501 00251$:
    0000009B F2rCBr00         [10]  502 	jp	P, 00121$
    0000009E DD 46 FA         [19]  503 	ld	b, -6 (ix)
    000000A1 05               [ 4]  504 	dec	b
    000000A2 C3rCBr00         [10]  505 	jp	00121$
    000000A5                        506 00117$:
                                    507 ;E:\Dropbox\FAUSTO\SVILUPPI\MSX\CODE\C\MSXgl\projects\soccerlg/soccerlg_s4_b1.c:180: } else if (dir == DIRECTION_UP) {
    000000A5 79               [ 4]  508 	ld	a, c
    000000A6 3D               [ 4]  509 	dec	a
    000000A7 20 10            [12]  510 	jr	NZ, 00114$
                                    511 ;E:\Dropbox\FAUSTO\SVILUPPI\MSX\CODE\C\MSXgl\projects\soccerlg/soccerlg_s4_b1.c:181: if (currentIdx >= 3) nextIdx -= 3;
    000000A9 DD 7E FA         [19]  512 	ld	a, -6 (ix)
    000000AC D6 03            [ 7]  513 	sub	a, #0x03
    000000AE 38 1B            [12]  514 	jr	C, 00121$
    000000B0 DD 7E FA         [19]  515 	ld	a, -6 (ix)
    000000B3 C6 FD            [ 7]  516 	add	a, #0xfd
    000000B5 47               [ 4]  517 	ld	b, a
    000000B6 C3rCBr00         [10]  518 	jp	00121$
    000000B9                        519 00114$:
                                    520 ;E:\Dropbox\FAUSTO\SVILUPPI\MSX\CODE\C\MSXgl\projects\soccerlg/soccerlg_s4_b1.c:182: } else if (dir == DIRECTION_DOWN) {
    000000B9 79               [ 4]  521 	ld	a, c
    000000BA D6 05            [ 7]  522 	sub	a, #0x05
    000000BC 20 0D            [12]  523 	jr	NZ, 00121$
                                    524 ;E:\Dropbox\FAUSTO\SVILUPPI\MSX\CODE\C\MSXgl\projects\soccerlg/soccerlg_s4_b1.c:183: if (currentIdx < 3) nextIdx += 3;
    000000BE DD 7E FA         [19]  525 	ld	a, -6 (ix)
    000000C1 D6 03            [ 7]  526 	sub	a, #0x03
    000000C3 30 06            [12]  527 	jr	NC, 00121$
    000000C5 DD 7E FA         [19]  528 	ld	a, -6 (ix)
    000000C8 C6 03            [ 7]  529 	add	a, #0x03
    000000CA 47               [ 4]  530 	ld	b, a
    000000CB                        531 00121$:
                                    532 ;E:\Dropbox\FAUSTO\SVILUPPI\MSX\CODE\C\MSXgl\projects\soccerlg/soccerlg_s4_b1.c:186: if (nextIdx == excludeIndex) {
    000000CB DD 7E FE         [19]  533 	ld	a, -2 (ix)
    000000CE 90               [ 4]  534 	sub	a, b
    000000CF 20 4E            [12]  535 	jr	NZ, 00135$
                                    536 ;E:\Dropbox\FAUSTO\SVILUPPI\MSX\CODE\C\MSXgl\projects\soccerlg/soccerlg_s4_b1.c:187: if (dir == DIRECTION_RIGHT) {
    000000D1 DD 7E FD         [19]  537 	ld	a, -3 (ix)
    000000D4 B7               [ 4]  538 	or	a, a
    000000D5 28 20            [12]  539 	jr	Z, 00132$
                                    540 ;E:\Dropbox\FAUSTO\SVILUPPI\MSX\CODE\C\MSXgl\projects\soccerlg/soccerlg_s4_b1.c:188: if ((nextIdx % 3) < 2) nextIdx++; else nextIdx = currentIdx;
    000000D7 68               [ 4]  541 	ld	l, b
                                    542 ;	spillPairReg hl
                                    543 ;	spillPairReg hl
    000000D8 26 00            [ 7]  544 	ld	h, #0x00
                                    545 ;	spillPairReg hl
                                    546 ;	spillPairReg hl
    000000DA C5               [11]  547 	push	bc
    000000DB 11 03 00         [10]  548 	ld	de, #0x0003
    000000DE CDr00r00         [17]  549 	call	__modsint
    000000E1 C1               [10]  550 	pop	bc
    000000E2 7B               [ 4]  551 	ld	a, e
    000000E3 D6 02            [ 7]  552 	sub	a, #0x02
    000000E5 7A               [ 4]  553 	ld	a, d
    000000E6 17               [ 4]  554 	rla
    000000E7 3F               [ 4]  555 	ccf
    000000E8 1F               [ 4]  556 	rra
    000000E9 DE 80            [ 7]  557 	sbc	a, #0x80
    000000EB 30 04            [12]  558 	jr	NC, 00123$
    000000ED 04               [ 4]  559 	inc	b
    000000EE C3r1Fr01         [10]  560 	jp	00135$
    000000F1                        561 00123$:
    000000F1 DD 46 FA         [19]  562 	ld	b, -6 (ix)
    000000F4 C3r1Fr01         [10]  563 	jp	00135$
    000000F7                        564 00132$:
                                    565 ;E:\Dropbox\FAUSTO\SVILUPPI\MSX\CODE\C\MSXgl\projects\soccerlg/soccerlg_s4_b1.c:189: } else if (dir == DIRECTION_LEFT) {
    000000F7 79               [ 4]  566 	ld	a, c
    000000F8 D6 07            [ 7]  567 	sub	a, #0x07
    000000FA 20 20            [12]  568 	jr	NZ, 00129$
                                    569 ;E:\Dropbox\FAUSTO\SVILUPPI\MSX\CODE\C\MSXgl\projects\soccerlg/soccerlg_s4_b1.c:190: if ((nextIdx % 3) > 0) nextIdx--; else nextIdx = currentIdx;
    000000FC 68               [ 4]  570 	ld	l, b
                                    571 ;	spillPairReg hl
                                    572 ;	spillPairReg hl
    000000FD 26 00            [ 7]  573 	ld	h, #0x00
                                    574 ;	spillPairReg hl
                                    575 ;	spillPairReg hl
    000000FF C5               [11]  576 	push	bc
    00000100 11 03 00         [10]  577 	ld	de, #0x0003
    00000103 CDr00r00         [17]  578 	call	__modsint
    00000106 C1               [10]  579 	pop	bc
    00000107 AF               [ 4]  580 	xor	a, a
    00000108 BB               [ 4]  581 	cp	a, e
    00000109 9A               [ 4]  582 	sbc	a, d
    0000010A E2r0Fr01         [10]  583 	jp	PO, 00260$
    0000010D EE 80            [ 7]  584 	xor	a, #0x80
    0000010F                        585 00260$:
    0000010F F2r16r01         [10]  586 	jp	P, 00126$
    00000112 05               [ 4]  587 	dec	b
    00000113 C3r1Fr01         [10]  588 	jp	00135$
    00000116                        589 00126$:
    00000116 DD 46 FA         [19]  590 	ld	b, -6 (ix)
    00000119 C3r1Fr01         [10]  591 	jp	00135$
    0000011C                        592 00129$:
                                    593 ;E:\Dropbox\FAUSTO\SVILUPPI\MSX\CODE\C\MSXgl\projects\soccerlg/soccerlg_s4_b1.c:192: nextIdx = currentIdx;
    0000011C DD 46 FA         [19]  594 	ld	b, -6 (ix)
    0000011F                        595 00135$:
                                    596 ;E:\Dropbox\FAUSTO\SVILUPPI\MSX\CODE\C\MSXgl\projects\soccerlg/soccerlg_s4_b1.c:195: currentIdx = nextIdx;
    0000011F DD 70 FA         [19]  597 	ld	-6 (ix), b
    00000122                        598 00137$:
                                    599 ;E:\Dropbox\FAUSTO\SVILUPPI\MSX\CODE\C\MSXgl\projects\soccerlg/soccerlg_s4_b1.c:197: oldDir = dir;
    00000122 DD 71 FD         [19]  600 	ld	-3 (ix), c
                                    601 ;E:\Dropbox\FAUSTO\SVILUPPI\MSX\CODE\C\MSXgl\projects\soccerlg/soccerlg_s4_b1.c:199: if (trigger && !oldTrigger) {
    00000125 DD 7E FC         [19]  602 	ld	a, -4 (ix)
    00000128 B7               [ 4]  603 	or	a, a
    00000129 28 11            [12]  604 	jr	Z, 00140$
    0000012B DD 7E FB         [19]  605 	ld	a, -5 (ix)
    0000012E B7               [ 4]  606 	or	a, a
    0000012F 20 0B            [12]  607 	jr	NZ, 00140$
                                    608 ;E:\Dropbox\FAUSTO\SVILUPPI\MSX\CODE\C\MSXgl\projects\soccerlg/soccerlg_s4_b1.c:200: PlayPcm(PCM_TEAM_SELECTION);
    00000131 3E 05            [ 7]  609 	ld	a, #0x05
    00000133 CDr00r00         [17]  610 	call	_PlayPcm
                                    611 ;E:\Dropbox\FAUSTO\SVILUPPI\MSX\CODE\C\MSXgl\projects\soccerlg/soccerlg_s4_b1.c:201: return currentIdx;
    00000136 DD 7E FA         [19]  612 	ld	a, -6 (ix)
    00000139 C3r99r01         [10]  613 	jp	00147$
    0000013C                        614 00140$:
                                    615 ;E:\Dropbox\FAUSTO\SVILUPPI\MSX\CODE\C\MSXgl\projects\soccerlg/soccerlg_s4_b1.c:203: oldTrigger = trigger;
    0000013C DD 7E FC         [19]  616 	ld	a, -4 (ix)
    0000013F DD 77 FB         [19]  617 	ld	-5 (ix), a
                                    618 ;E:\Dropbox\FAUSTO\SVILUPPI\MSX\CODE\C\MSXgl\projects\soccerlg/soccerlg_s4_b1.c:206: attr.Y = g_TeamPos[currentIdx].y;
    00000142 DD 6E FA         [19]  619 	ld	l, -6 (ix)
                                    620 ;	spillPairReg hl
                                    621 ;	spillPairReg hl
    00000145 26 00            [ 7]  622 	ld	h, #0x00
                                    623 ;	spillPairReg hl
                                    624 ;	spillPairReg hl
    00000147 29               [11]  625 	add	hl, hl
    00000148 29               [11]  626 	add	hl, hl
    00000149 01rBEr02         [10]  627 	ld	bc,#_g_TeamPos
    0000014C 09               [11]  628 	add	hl,bc
    0000014D EB               [ 4]  629 	ex	de, hl
    0000014E 4B               [ 4]  630 	ld	c, e
    0000014F 42               [ 4]  631 	ld	b, d
    00000150 03               [ 6]  632 	inc	bc
    00000151 03               [ 6]  633 	inc	bc
    00000152 0A               [ 7]  634 	ld	a, (bc)
    00000153 DD 77 F6         [19]  635 	ld	-10 (ix), a
                                    636 ;E:\Dropbox\FAUSTO\SVILUPPI\MSX\CODE\C\MSXgl\projects\soccerlg/soccerlg_s4_b1.c:207: attr.X = g_TeamPos[currentIdx].x;
    00000156 EB               [ 4]  637 	ex	de,hl
    00000157 4E               [ 7]  638 	ld	c, (hl)
    00000158 23               [ 6]  639 	inc	hl
    00000159 46               [ 7]  640 	ld	b, (hl)
    0000015A 21 02 00         [10]  641 	ld	hl, #2
    0000015D 39               [11]  642 	add	hl, sp
    0000015E 71               [ 7]  643 	ld	(hl), c
    0000015F 23               [ 6]  644 	inc	hl
    00000160 78               [ 4]  645 	ld	a, b
    00000161 E6 03            [ 7]  646 	and	a, #0x03
    00000163 5F               [ 4]  647 	ld	e,a
    00000164 7E               [ 7]  648 	ld	a, (hl)
    00000165 E6 FC            [ 7]  649 	and	a, #0xfc
    00000167 B3               [ 4]  650 	or	a, e
    00000168 77               [ 7]  651 	ld	(hl), a
                                    652 ;E:\Dropbox\FAUSTO\SVILUPPI\MSX\CODE\C\MSXgl\projects\soccerlg/soccerlg_s4_b1.c:208: attr.Pattern = cursorPatternId;
    00000169 DD 7E FF         [19]  653 	ld	a, -1 (ix)
    0000016C DD 77 F7         [19]  654 	ld	-9 (ix), a
                                    655 ;E:\Dropbox\FAUSTO\SVILUPPI\MSX\CODE\C\MSXgl\projects\soccerlg/soccerlg_s4_b1.c:209: attr.P = 0; 
    0000016F 21 03 00         [10]  656 	ld	hl, #3
    00000172 39               [11]  657 	add	hl, sp
    00000173 CB AE            [15]  658 	res	5, (hl)
                                    659 ;E:\Dropbox\FAUSTO\SVILUPPI\MSX\CODE\C\MSXgl\projects\soccerlg/soccerlg_s4_b1.c:210: attr.SC = 0;
    00000175 21 03 00         [10]  660 	ld	hl, #3
    00000178 39               [11]  661 	add	hl, sp
    00000179 7E               [ 7]  662 	ld	a, (hl)
    0000017A E6 3F            [ 7]  663 	and	a, #0x3f
    0000017C 77               [ 7]  664 	ld	(hl), a
                                    665 ;E:\Dropbox\FAUSTO\SVILUPPI\MSX\CODE\C\MSXgl\projects\soccerlg/soccerlg_s4_b1.c:211: attr.D = 0;
    0000017D 21 03 00         [10]  666 	ld	hl, #3
    00000180 39               [11]  667 	add	hl, sp
    00000181 CB A6            [15]  668 	res	4, (hl)
                                    669 ;E:\Dropbox\FAUSTO\SVILUPPI\MSX\CODE\C\MSXgl\projects\soccerlg/soccerlg_s4_b1.c:212: V9_SetSpriteP1(0, &attr);
                                    670 ;E:/Dropbox/FAUSTO/SVILUPPI/MSX/CODE/C/MSXgl/engine/src/v9990.h:781: inline void V9_SetSpriteP1(u8 id, const V9_Sprite* attr) { V9_WriteVRAM(V9_P1_SPAT + (id * 4), (const u8*)attr, 4); }
                                    671 ;E:/Dropbox/FAUSTO/SVILUPPI/MSX/CODE/C/MSXgl/engine/src/v9990.h:371: inline void V9_WriteVRAM(u32 addr, const u8* src, u16 count) { V9_SetWriteAddress(addr); V9_WriteVRAM_CurrentAddr(src, count); }
    00000183 11 00 FE         [10]  672 	ld	de, #0xfe00
    00000186 21 03 00         [10]  673 	ld	hl, #0x0003
    00000189 CDr00r00         [17]  674 	call	_V9_SetWriteAddress
    0000018C 11 04 00         [10]  675 	ld	de, #0x0004
    0000018F 21 00 00         [10]  676 	ld	hl, #0
    00000192 39               [11]  677 	add	hl, sp
    00000193 CDr00r00         [17]  678 	call	_V9_WriteVRAM_CurrentAddr
                                    679 ;E:\Dropbox\FAUSTO\SVILUPPI\MSX\CODE\C\MSXgl\projects\soccerlg/soccerlg_s4_b1.c:212: V9_SetSpriteP1(0, &attr);
    00000196 C3r2Cr00         [10]  680 	jp	00143$
    00000199                        681 00147$:
                                    682 ;E:\Dropbox\FAUSTO\SVILUPPI\MSX\CODE\C\MSXgl\projects\soccerlg/soccerlg_s4_b1.c:214: }
    00000199 DD F9            [10]  683 	ld	sp, ix
    0000019B DD E1            [14]  684 	pop	ix
    0000019D C9               [10]  685 	ret
                         0000F380   686 _g_RDPRIM	=	0xf380
                         0000F385   687 _g_WRPRIM	=	0xf385
                         0000F38C   688 _g_CLPRIM	=	0xf38c
                         0000F39A   689 _g_USRTAB	=	0xf39a
                         0000F3DE   690 _g_CNSDFG	=	0xf3de
                         0000F3DF   691 _g_RG0SAV	=	0xf3df
                         0000F3E0   692 _g_RG1SAV	=	0xf3e0
                         0000F3E1   693 _g_RG2SAV	=	0xf3e1
                         0000F3E2   694 _g_RG3SAV	=	0xf3e2
                         0000F3E3   695 _g_RG4SAV	=	0xf3e3
                         0000F3E4   696 _g_RG5SAV	=	0xf3e4
                         0000F3E5   697 _g_RG6SAV	=	0xf3e5
                         0000F3E6   698 _g_RG7SAV	=	0xf3e6
                         0000F3E7   699 _g_STATFL	=	0xf3e7
                         0000F3E8   700 _g_TRGFLG	=	0xf3e8
                         0000F3EC   701 _g_MAXUPD	=	0xf3ec
                         0000F3EF   702 _g_MINUPD	=	0xf3ef
                         0000F3F3   703 _g_QUEUES	=	0xf3f3
                         0000F3F5   704 _g_FRCNEW	=	0xf3f5
                         0000F3F6   705 _g_SCNCNT	=	0xf3f6
                         0000F3F7   706 _g_REPCNT	=	0xf3f7
                         0000F3F8   707 _g_PUTPNT	=	0xf3f8
                         0000F3FA   708 _g_GETPNT	=	0xf3fa
                         0000F3FC   709 _g_CS120	=	0xf3fc
                         0000F401   710 _g_CS240	=	0xf401
                         0000F406   711 _g_LOW	=	0xf406
                         0000F408   712 _g_HIGH	=	0xf408
                         0000F40A   713 _g_HEADER	=	0xf40a
                         0000F40B   714 _g_ASPCT1	=	0xf40b
                         0000F40D   715 _g_ASPCT2	=	0xf40d
                         0000F959   716 _g_QUETAB	=	0xf959
                         0000F971   717 _g_QUEBAK	=	0xf971
                         0000F975   718 _g_VOICAQ	=	0xf975
                         0000F9F5   719 _g_VOICBQ	=	0xf9f5
                         0000FA75   720 _g_VOICCQ	=	0xfa75
                         0000FAF5   721 _g_RS2IQ	=	0xfaf5
                         0000FAF5   722 _g_DPPAGE	=	0xfaf5
                         0000FAF6   723 _g_ACPAGE	=	0xfaf6
                         0000FAF7   724 _g_AVCSAV	=	0xfaf7
                         0000FAF8   725 _g_EXBRSA	=	0xfaf8
                         0000FAF9   726 _g_CHRCNT	=	0xfaf9
                         0000FAFA   727 _g_ROMA	=	0xfafa
                         0000FAFC   728 _g_MODE	=	0xfafc
                         0000FAFD   729 _g_NORUSE	=	0xfafd
                         0000FAFE   730 _g_XSAVE	=	0xfafe
                         0000FB00   731 _g_YSAVE	=	0xfb00
                         0000FB03   732 _g_RSTMP	=	0xfb03
                         0000FB03   733 _g_TOCNT	=	0xfb03
                         0000FB04   734 _g_RSFCB	=	0xfb04
                         0000FB06   735 _g_RSIQLN	=	0xfb06
                         0000FB07   736 _g_MEXBIh	=	0xfb07
                         0000FB0C   737 _g_OLDSTT	=	0xfb0c
                         0000FB0C   738 _g_OLDINT	=	0xfb0c
                         0000FB16   739 _g_DEVNUM	=	0xfb16
                         0000FB17   740 _g_DATCNT	=	0xfb17
                         0000FB1A   741 _g_ERRORS	=	0xfb1a
                         0000FB1B   742 _g_FLAGS	=	0xfb1b
                         0000FB1C   743 _g_ESTBLS	=	0xfb1c
                         0000FB1D   744 _g_COMMSK	=	0xfb1d
                         0000FB1E   745 _g_LSTCOM	=	0xfb1e
                         0000FB1F   746 _g_LSTMOD	=	0xfb1f
                         0000FB35   747 _g_PRSCNT	=	0xfb35
                         0000FB36   748 _g_SAVSP	=	0xfb36
                         0000FB38   749 _g_VOICEN	=	0xfb38
                         0000FB39   750 _g_SAVVOL	=	0xfb39
                         0000FB3B   751 _g_MCLLEN	=	0xfb3b
                         0000FB3C   752 _g_MCLPTR	=	0xfb3c
                         0000FB3E   753 _g_QUEUEN	=	0xfb3e
                         0000FB3F   754 _g_MUSICF	=	0xfb3f
                         0000FB40   755 _g_PLYCNT	=	0xfb40
                         0000FB41   756 _g_VCBA	=	0xfb41
                         0000FB66   757 _g_VCBB	=	0xfb66
                         0000FB8B   758 _g_VCBC	=	0xfb8b
                         0000FBB0   759 _g_ENSTOP	=	0xfbb0
                         0000FBB1   760 _g_BASROM	=	0xfbb1
                         0000FBB2   761 _g_LINTTB	=	0xfbb2
                         0000FBCA   762 _g_FSTPOS	=	0xfbca
                         0000FBCC   763 _g_CODSAV	=	0xfbcc
                         0000FBCD   764 _g_FNKSWI	=	0xfbcd
                         0000FBCE   765 _g_FNKFLG	=	0xfbce
                         0000FBD8   766 _g_ONGSBF	=	0xfbd8
                         0000FBD9   767 _g_CLIKFL	=	0xfbd9
                         0000FBDA   768 _g_OLDKEY	=	0xfbda
                         0000FBE5   769 _g_NEWKEY	=	0xfbe5
                         0000FBF0   770 _g_KEYBUF	=	0xfbf0
                         0000FC18   771 _g_LINWRK	=	0xfc18
                         0000FC40   772 _g_PATWRK	=	0xfc40
                         0000FC48   773 _g_BOTTOM	=	0xfc48
                         0000FC4A   774 _g_HIMEM	=	0xfc4a
                         0000FC4C   775 _g_TRPTBL	=	0xfc4c
                         0000FC9A   776 _g_RTYCNT	=	0xfc9a
                         0000FC9B   777 _g_INTFLG	=	0xfc9b
                         0000FC9C   778 _g_PADY	=	0xfc9c
                         0000FC9D   779 _g_PADX	=	0xfc9d
                         0000FC9E   780 _g_JIFFY	=	0xfc9e
                         0000FCA0   781 _g_INTVAL	=	0xfca0
                         0000FCA2   782 _g_INTCNT	=	0xfca2
                         0000FCA4   783 _g_LOWLIM	=	0xfca4
                         0000FCA5   784 _g_WINWID	=	0xfca5
                         0000FCA6   785 _g_GRPHED	=	0xfca6
                         0000FCA7   786 _g_ESCCNT	=	0xfca7
                         0000FCA8   787 _g_INSFLG	=	0xfca8
                         0000FCA9   788 _g_CSRSW	=	0xfca9
                         0000FCAA   789 _g_CSTYLE	=	0xfcaa
                         0000FCAB   790 _g_CAPST	=	0xfcab
                         0000FCAC   791 _g_KANAST	=	0xfcac
                         0000FCAD   792 _g_KANAMD	=	0xfcad
                         0000FCAE   793 _g_FLBMEM	=	0xfcae
                         0000FCAF   794 _g_SCRMOD	=	0xfcaf
                         0000FCB0   795 _g_OLDSCR	=	0xfcb0
                         0000FCB1   796 _g_CASPRV	=	0xfcb1
                         0000FCB2   797 _g_BRDATR	=	0xfcb2
                         0000FCB3   798 _g_GXPOS	=	0xfcb3
                         0000FCB5   799 _g_GYPOS	=	0xfcb5
                         0000FCBB   800 _g_DRWFLG	=	0xfcbb
                         0000FCBC   801 _g_DRWSCL	=	0xfcbc
                         0000FCBD   802 _g_DRWANG	=	0xfcbd
                         0000FCC1   803 _g_MNROM	=	0xfcc1
                         0000FCC1   804 _g_EXPTBL	=	0xfcc1
                         0000FCC5   805 _g_SLTTBL	=	0xfcc5
                         0000FCC9   806 _g_SLTATR	=	0xfcc9
                         0000FD09   807 _g_SLTWRK	=	0xfd09
                         0000FD89   808 _g_PROCNM	=	0xfd89
                         0000FFE7   809 _g_RG08SAV	=	0xffe7
                         0000FFE8   810 _g_RG09SAV	=	0xffe8
                         0000FFE9   811 _g_RG10SAV	=	0xffe9
                         0000FFEA   812 _g_RG11SAV	=	0xffea
                         0000FFEB   813 _g_RG12SAV	=	0xffeb
                         0000FFEC   814 _g_RG13SAV	=	0xffec
                         0000FFED   815 _g_RG14SAV	=	0xffed
                         0000FFEE   816 _g_RG15SAV	=	0xffee
                         0000FFEF   817 _g_RG16SAV	=	0xffef
                         0000FFF0   818 _g_RG17SAV	=	0xfff0
                         0000FFF1   819 _g_RG18SAV	=	0xfff1
                         0000FFF2   820 _g_RG19SAV	=	0xfff2
                         0000FFF3   821 _g_RG20SAV	=	0xfff3
                         0000FFF4   822 _g_RG21SAV	=	0xfff4
                         0000FFF5   823 _g_RG22SAV	=	0xfff5
                         0000FFF6   824 _g_RG23SAV	=	0xfff6
                         0000FFF7   825 _g_MINROM	=	0xfff7
                         0000FFF8   826 _g_SVFFF8	=	0xfff8
                         0000FFFA   827 _g_RG25SAV	=	0xfffa
                         0000FFFB   828 _g_RG26SAV	=	0xfffb
                         0000FFFC   829 _g_RG27SAV	=	0xfffc
                         0000FFFD   830 _g_SVFFFD	=	0xfffd
                         00000004   831 _g_CGTABL	=	0x0004
                         00000006   832 _g_VDP_DR	=	0x0006
                         00000007   833 _g_VDP_DW	=	0x0007
                         0000002B   834 _g_BASRVN	=	0x002b
                         0000002B   835 _g_ROMVersion	=	0x002b
                         0000002D   836 _g_MSXVER	=	0x002d
                         0000002E   837 _g_MSXMID	=	0x002e
                         00000034   838 _g_CHAR_16	=	0x0034
                         00000000   839 _g_SUBRID	=	0x0000
                         00000002   840 _g_STRSRC	=	0x0002
                         0000F30F   841 _g_KANJTABLE	=	0xf30f
                         0000F323   842 _g_DISKVE	=	0xf323
                         0000F325   843 _g_BREAKV	=	0xf325
                         0000F341   844 _g_RAMAD0	=	0xf341
                         0000F342   845 _g_RAMAD1	=	0xf342
                         0000F343   846 _g_RAMAD2	=	0xf343
                         0000F344   847 _g_RAMAD3	=	0xf344
                         0000F348   848 _g_MASTER	=	0xf348
                         0000F37D   849 _g_BDOS	=	0xf37d
    0000019E                        850 _g_Data_Palette_Team_ITA:
    0000019E 00                     851 	.db #0x00	; 0
    0000019F 00                     852 	.db #0x00	; 0
    000001A0 00                     853 	.db #0x00	; 0
    000001A1 14                     854 	.db #0x14	; 20
    000001A2 09                     855 	.db #0x09	; 9
    000001A3 14                     856 	.db #0x14	; 20
    000001A4 01                     857 	.db #0x01	; 1
    000001A5 01                     858 	.db #0x01	; 1
    000001A6 01                     859 	.db #0x01	; 1
    000001A7 05                     860 	.db #0x05	; 5
    000001A8 03                     861 	.db #0x03	; 3
    000001A9 01                     862 	.db #0x01	; 1
    000001AA 1B                     863 	.db #0x1b	; 27
    000001AB 1A                     864 	.db #0x1a	; 26
    000001AC 1B                     865 	.db #0x1b	; 27
    000001AD 1E                     866 	.db #0x1e	; 30
    000001AE 1A                     867 	.db #0x1a	; 26
    000001AF 08                     868 	.db #0x08	; 8
    000001B0 1B                     869 	.db #0x1b	; 27
    000001B1 1A                     870 	.db #0x1a	; 26
    000001B2 1B                     871 	.db #0x1b	; 27
    000001B3 09                     872 	.db #0x09	; 9
    000001B4 16                     873 	.db #0x16	; 22
    000001B5 1B                     874 	.db #0x1b	; 27
    000001B6 1B                     875 	.db #0x1b	; 27
    000001B7 1A                     876 	.db #0x1a	; 26
    000001B8 1B                     877 	.db #0x1b	; 27
    000001B9 1B                     878 	.db #0x1b	; 27
    000001BA 13                     879 	.db #0x13	; 19
    000001BB 09                     880 	.db #0x09	; 9
    000001BC 1F                     881 	.db #0x1f	; 31
    000001BD 1E                     882 	.db #0x1e	; 30
    000001BE 01                     883 	.db #0x01	; 1
    000001BF 1D                     884 	.db #0x1d	; 29
    000001C0 03                     885 	.db #0x03	; 3
    000001C1 02                     886 	.db #0x02	; 2
    000001C2 05                     887 	.db #0x05	; 5
    000001C3 03                     888 	.db #0x03	; 3
    000001C4 01                     889 	.db #0x01	; 1
    000001C5 01                     890 	.db #0x01	; 1
    000001C6 01                     891 	.db #0x01	; 1
    000001C7 01                     892 	.db #0x01	; 1
    000001C8 01                     893 	.db #0x01	; 1
    000001C9 01                     894 	.db #0x01	; 1
    000001CA 01                     895 	.db #0x01	; 1
    000001CB 01                     896 	.db #0x01	; 1
    000001CC 01                     897 	.db #0x01	; 1
    000001CD 01                     898 	.db #0x01	; 1
    000001CE                        899 _g_Data_Palette_Team_AUS:
    000001CE 00                     900 	.db #0x00	; 0
    000001CF 00                     901 	.db #0x00	; 0
    000001D0 00                     902 	.db #0x00	; 0
    000001D1 14                     903 	.db #0x14	; 20
    000001D2 09                     904 	.db #0x09	; 9
    000001D3 14                     905 	.db #0x14	; 20
    000001D4 01                     906 	.db #0x01	; 1
    000001D5 01                     907 	.db #0x01	; 1
    000001D6 01                     908 	.db #0x01	; 1
    000001D7 05                     909 	.db #0x05	; 5
    000001D8 03                     910 	.db #0x03	; 3
    000001D9 01                     911 	.db #0x01	; 1
    000001DA 1B                     912 	.db #0x1b	; 27
    000001DB 1A                     913 	.db #0x1a	; 26
    000001DC 1B                     914 	.db #0x1b	; 27
    000001DD 1E                     915 	.db #0x1e	; 30
    000001DE 1A                     916 	.db #0x1a	; 26
    000001DF 08                     917 	.db #0x08	; 8
    000001E0 1B                     918 	.db #0x1b	; 27
    000001E1 1A                     919 	.db #0x1a	; 26
    000001E2 1B                     920 	.db #0x1b	; 27
    000001E3 05                     921 	.db #0x05	; 5
    000001E4 03                     922 	.db #0x03	; 3
    000001E5 01                     923 	.db #0x01	; 1
    000001E6 1B                     924 	.db #0x1b	; 27
    000001E7 1A                     925 	.db #0x1a	; 26
    000001E8 1B                     926 	.db #0x1b	; 27
    000001E9 1B                     927 	.db #0x1b	; 27
    000001EA 13                     928 	.db #0x13	; 19
    000001EB 09                     929 	.db #0x09	; 9
    000001EC 1F                     930 	.db #0x1f	; 31
    000001ED 1E                     931 	.db #0x1e	; 30
    000001EE 01                     932 	.db #0x01	; 1
    000001EF 1D                     933 	.db #0x1d	; 29
    000001F0 03                     934 	.db #0x03	; 3
    000001F1 02                     935 	.db #0x02	; 2
    000001F2 05                     936 	.db #0x05	; 5
    000001F3 03                     937 	.db #0x03	; 3
    000001F4 01                     938 	.db #0x01	; 1
    000001F5 01                     939 	.db #0x01	; 1
    000001F6 01                     940 	.db #0x01	; 1
    000001F7 01                     941 	.db #0x01	; 1
    000001F8 01                     942 	.db #0x01	; 1
    000001F9 01                     943 	.db #0x01	; 1
    000001FA 01                     944 	.db #0x01	; 1
    000001FB 01                     945 	.db #0x01	; 1
    000001FC 01                     946 	.db #0x01	; 1
    000001FD 01                     947 	.db #0x01	; 1
    000001FE                        948 _g_Data_Palette_Team_FRA:
    000001FE 00                     949 	.db #0x00	; 0
    000001FF 00                     950 	.db #0x00	; 0
    00000200 00                     951 	.db #0x00	; 0
    00000201 14                     952 	.db #0x14	; 20
    00000202 09                     953 	.db #0x09	; 9
    00000203 14                     954 	.db #0x14	; 20
    00000204 01                     955 	.db #0x01	; 1
    00000205 01                     956 	.db #0x01	; 1
    00000206 01                     957 	.db #0x01	; 1
    00000207 05                     958 	.db #0x05	; 5
    00000208 03                     959 	.db #0x03	; 3
    00000209 01                     960 	.db #0x01	; 1
    0000020A 1B                     961 	.db #0x1b	; 27
    0000020B 1A                     962 	.db #0x1a	; 26
    0000020C 1B                     963 	.db #0x1b	; 27
    0000020D 1E                     964 	.db #0x1e	; 30
    0000020E 1A                     965 	.db #0x1a	; 26
    0000020F 08                     966 	.db #0x08	; 8
    00000210 1B                     967 	.db #0x1b	; 27
    00000211 1A                     968 	.db #0x1a	; 26
    00000212 1B                     969 	.db #0x1b	; 27
    00000213 04                     970 	.db #0x04	; 4
    00000214 04                     971 	.db #0x04	; 4
    00000215 1B                     972 	.db #0x1b	; 27
    00000216 1B                     973 	.db #0x1b	; 27
    00000217 1A                     974 	.db #0x1a	; 26
    00000218 1B                     975 	.db #0x1b	; 27
    00000219 1B                     976 	.db #0x1b	; 27
    0000021A 13                     977 	.db #0x13	; 19
    0000021B 09                     978 	.db #0x09	; 9
    0000021C 1F                     979 	.db #0x1f	; 31
    0000021D 1E                     980 	.db #0x1e	; 30
    0000021E 01                     981 	.db #0x01	; 1
    0000021F 1D                     982 	.db #0x1d	; 29
    00000220 03                     983 	.db #0x03	; 3
    00000221 02                     984 	.db #0x02	; 2
    00000222 05                     985 	.db #0x05	; 5
    00000223 03                     986 	.db #0x03	; 3
    00000224 01                     987 	.db #0x01	; 1
    00000225 01                     988 	.db #0x01	; 1
    00000226 01                     989 	.db #0x01	; 1
    00000227 01                     990 	.db #0x01	; 1
    00000228 01                     991 	.db #0x01	; 1
    00000229 01                     992 	.db #0x01	; 1
    0000022A 01                     993 	.db #0x01	; 1
    0000022B 01                     994 	.db #0x01	; 1
    0000022C 01                     995 	.db #0x01	; 1
    0000022D 01                     996 	.db #0x01	; 1
    0000022E                        997 _g_Data_Palette_Team_GER:
    0000022E 00                     998 	.db #0x00	; 0
    0000022F 00                     999 	.db #0x00	; 0
    00000230 00                    1000 	.db #0x00	; 0
    00000231 14                    1001 	.db #0x14	; 20
    00000232 09                    1002 	.db #0x09	; 9
    00000233 14                    1003 	.db #0x14	; 20
    00000234 01                    1004 	.db #0x01	; 1
    00000235 01                    1005 	.db #0x01	; 1
    00000236 01                    1006 	.db #0x01	; 1
    00000237 05                    1007 	.db #0x05	; 5
    00000238 03                    1008 	.db #0x03	; 3
    00000239 01                    1009 	.db #0x01	; 1
    0000023A 1B                    1010 	.db #0x1b	; 27
    0000023B 1A                    1011 	.db #0x1a	; 26
    0000023C 1B                    1012 	.db #0x1b	; 27
    0000023D 1E                    1013 	.db #0x1e	; 30
    0000023E 1A                    1014 	.db #0x1a	; 26
    0000023F 08                    1015 	.db #0x08	; 8
    00000240 05                    1016 	.db #0x05	; 5
    00000241 03                    1017 	.db #0x03	; 3
    00000242 01                    1018 	.db #0x01	; 1
    00000243 1B                    1019 	.db #0x1b	; 27
    00000244 1A                    1020 	.db #0x1a	; 26
    00000245 1B                    1021 	.db #0x1b	; 27
    00000246 1F                    1022 	.db #0x1f	; 31
    00000247 00                    1023 	.db #0x00	; 0
    00000248 00                    1024 	.db #0x00	; 0
    00000249 1B                    1025 	.db #0x1b	; 27
    0000024A 13                    1026 	.db #0x13	; 19
    0000024B 09                    1027 	.db #0x09	; 9
    0000024C 1F                    1028 	.db #0x1f	; 31
    0000024D 1E                    1029 	.db #0x1e	; 30
    0000024E 01                    1030 	.db #0x01	; 1
    0000024F 1D                    1031 	.db #0x1d	; 29
    00000250 03                    1032 	.db #0x03	; 3
    00000251 02                    1033 	.db #0x02	; 2
    00000252 05                    1034 	.db #0x05	; 5
    00000253 03                    1035 	.db #0x03	; 3
    00000254 01                    1036 	.db #0x01	; 1
    00000255 01                    1037 	.db #0x01	; 1
    00000256 01                    1038 	.db #0x01	; 1
    00000257 01                    1039 	.db #0x01	; 1
    00000258 01                    1040 	.db #0x01	; 1
    00000259 01                    1041 	.db #0x01	; 1
    0000025A 01                    1042 	.db #0x01	; 1
    0000025B 01                    1043 	.db #0x01	; 1
    0000025C 01                    1044 	.db #0x01	; 1
    0000025D 01                    1045 	.db #0x01	; 1
    0000025E                       1046 _g_Data_Palette_Team_GBR:
    0000025E 00                    1047 	.db #0x00	; 0
    0000025F 00                    1048 	.db #0x00	; 0
    00000260 00                    1049 	.db #0x00	; 0
    00000261 14                    1050 	.db #0x14	; 20
    00000262 09                    1051 	.db #0x09	; 9
    00000263 14                    1052 	.db #0x14	; 20
    00000264 01                    1053 	.db #0x01	; 1
    00000265 01                    1054 	.db #0x01	; 1
    00000266 01                    1055 	.db #0x01	; 1
    00000267 05                    1056 	.db #0x05	; 5
    00000268 03                    1057 	.db #0x03	; 3
    00000269 01                    1058 	.db #0x01	; 1
    0000026A 1B                    1059 	.db #0x1b	; 27
    0000026B 1A                    1060 	.db #0x1a	; 26
    0000026C 1B                    1061 	.db #0x1b	; 27
    0000026D 1E                    1062 	.db #0x1e	; 30
    0000026E 1A                    1063 	.db #0x1a	; 26
    0000026F 08                    1064 	.db #0x08	; 8
    00000270 01                    1065 	.db #0x01	; 1
    00000271 01                    1066 	.db #0x01	; 1
    00000272 01                    1067 	.db #0x01	; 1
    00000273 1B                    1068 	.db #0x1b	; 27
    00000274 1A                    1069 	.db #0x1a	; 26
    00000275 1B                    1070 	.db #0x1b	; 27
    00000276 01                    1071 	.db #0x01	; 1
    00000277 01                    1072 	.db #0x01	; 1
    00000278 01                    1073 	.db #0x01	; 1
    00000279 1B                    1074 	.db #0x1b	; 27
    0000027A 13                    1075 	.db #0x13	; 19
    0000027B 09                    1076 	.db #0x09	; 9
    0000027C 1F                    1077 	.db #0x1f	; 31
    0000027D 1E                    1078 	.db #0x1e	; 30
    0000027E 01                    1079 	.db #0x01	; 1
    0000027F 1D                    1080 	.db #0x1d	; 29
    00000280 03                    1081 	.db #0x03	; 3
    00000281 02                    1082 	.db #0x02	; 2
    00000282 05                    1083 	.db #0x05	; 5
    00000283 03                    1084 	.db #0x03	; 3
    00000284 01                    1085 	.db #0x01	; 1
    00000285 01                    1086 	.db #0x01	; 1
    00000286 01                    1087 	.db #0x01	; 1
    00000287 01                    1088 	.db #0x01	; 1
    00000288 01                    1089 	.db #0x01	; 1
    00000289 01                    1090 	.db #0x01	; 1
    0000028A 01                    1091 	.db #0x01	; 1
    0000028B 01                    1092 	.db #0x01	; 1
    0000028C 01                    1093 	.db #0x01	; 1
    0000028D 01                    1094 	.db #0x01	; 1
    0000028E                       1095 _g_Data_Palette_Team_BRA:
    0000028E 00                    1096 	.db #0x00	; 0
    0000028F 00                    1097 	.db #0x00	; 0
    00000290 00                    1098 	.db #0x00	; 0
    00000291 14                    1099 	.db #0x14	; 20
    00000292 09                    1100 	.db #0x09	; 9
    00000293 14                    1101 	.db #0x14	; 20
    00000294 01                    1102 	.db #0x01	; 1
    00000295 01                    1103 	.db #0x01	; 1
    00000296 01                    1104 	.db #0x01	; 1
    00000297 05                    1105 	.db #0x05	; 5
    00000298 03                    1106 	.db #0x03	; 3
    00000299 01                    1107 	.db #0x01	; 1
    0000029A 1B                    1108 	.db #0x1b	; 27
    0000029B 1A                    1109 	.db #0x1a	; 26
    0000029C 1B                    1110 	.db #0x1b	; 27
    0000029D 1E                    1111 	.db #0x1e	; 30
    0000029E 1A                    1112 	.db #0x1a	; 26
    0000029F 08                    1113 	.db #0x08	; 8
    000002A0 1B                    1114 	.db #0x1b	; 27
    000002A1 13                    1115 	.db #0x13	; 19
    000002A2 09                    1116 	.db #0x09	; 9
    000002A3 00                    1117 	.db #0x00	; 0
    000002A4 0A                    1118 	.db #0x0a	; 10
    000002A5 03                    1119 	.db #0x03	; 3
    000002A6 1B                    1120 	.db #0x1b	; 27
    000002A7 13                    1121 	.db #0x13	; 19
    000002A8 09                    1122 	.db #0x09	; 9
    000002A9 1B                    1123 	.db #0x1b	; 27
    000002AA 13                    1124 	.db #0x13	; 19
    000002AB 09                    1125 	.db #0x09	; 9
    000002AC 1F                    1126 	.db #0x1f	; 31
    000002AD 1E                    1127 	.db #0x1e	; 30
    000002AE 01                    1128 	.db #0x01	; 1
    000002AF 1D                    1129 	.db #0x1d	; 29
    000002B0 03                    1130 	.db #0x03	; 3
    000002B1 02                    1131 	.db #0x02	; 2
    000002B2 05                    1132 	.db #0x05	; 5
    000002B3 03                    1133 	.db #0x03	; 3
    000002B4 01                    1134 	.db #0x01	; 1
    000002B5 01                    1135 	.db #0x01	; 1
    000002B6 01                    1136 	.db #0x01	; 1
    000002B7 01                    1137 	.db #0x01	; 1
    000002B8 01                    1138 	.db #0x01	; 1
    000002B9 01                    1139 	.db #0x01	; 1
    000002BA 01                    1140 	.db #0x01	; 1
    000002BB 01                    1141 	.db #0x01	; 1
    000002BC 01                    1142 	.db #0x01	; 1
    000002BD 01                    1143 	.db #0x01	; 1
    000002BE                       1144 _g_TeamPos:
    000002BE 21 00                 1145 	.dw #0x0021
    000002C0 6D 00                 1146 	.dw #0x006d
    000002C2 72 00                 1147 	.dw #0x0072
    000002C4 6D 00                 1148 	.dw #0x006d
    000002C6 C5 00                 1149 	.dw #0x00c5
    000002C8 6D 00                 1150 	.dw #0x006d
    000002CA 21 00                 1151 	.dw #0x0021
    000002CC C0 00                 1152 	.dw #0x00c0
    000002CE 72 00                 1153 	.dw #0x0072
    000002D0 C0 00                 1154 	.dw #0x00c0
    000002D2 C5 00                 1155 	.dw #0x00c5
    000002D4 C0 00                 1156 	.dw #0x00c0
    000002D6                       1157 _g_TeamGrayPos:
    000002D6 01 00                 1158 	.dw #0x0001
    000002D8 05 00                 1159 	.dw #0x0005
    000002DA 0B 00                 1160 	.dw #0x000b
    000002DC 05 00                 1161 	.dw #0x0005
    000002DE 15 00                 1162 	.dw #0x0015
    000002E0 05 00                 1163 	.dw #0x0005
    000002E2 01 00                 1164 	.dw #0x0001
    000002E4 0F 00                 1165 	.dw #0x000f
    000002E6 0B 00                 1166 	.dw #0x000b
    000002E8 0F 00                 1167 	.dw #0x000f
    000002EA 15 00                 1168 	.dw #0x0015
    000002EC 0F 00                 1169 	.dw #0x000f
                                   1170 ;E:\Dropbox\FAUSTO\SVILUPPI\MSX\CODE\C\MSXgl\projects\soccerlg/soccerlg_s4_b1.c:216: void MenuSpriteBlinking(){
                                   1171 ;	---------------------------------
                                   1172 ; Function MenuSpriteBlinking
                                   1173 ; ---------------------------------
    000002EE                       1174 _MenuSpriteBlinking::
    000002EE 3B               [ 6] 1175 	dec	sp
                                   1176 ;E:\Dropbox\FAUSTO\SVILUPPI\MSX\CODE\C\MSXgl\projects\soccerlg/soccerlg_s4_b1.c:217: u8 ms=g_MatchStatus;
    000002EF 3Ar00r00         [13] 1177 	ld	a, (_g_MatchStatus+0)
    000002F2 FD 21 00 00      [14] 1178 	ld	iy, #0
    000002F6 FD 39            [15] 1179 	add	iy, sp
    000002F8 FD 77 00         [19] 1180 	ld	0 (iy), a
                                   1181 ;E:/Dropbox/FAUSTO/SVILUPPI/MSX/CODE/C/MSXgl/engine/src/v9990.h:258: inline void V9_SetFlag(u8 reg, u8 mask, u8 flag) { V9_SetRegister(reg, V9_GetRegister(reg) & (~mask) | flag); }
    000002FB 3E 08            [ 7] 1182 	ld	a, #0x08
    000002FD CDr00r00         [17] 1183 	call	_V9_GetRegister
    00000300 CB B7            [ 8] 1184 	res	6, a
    00000302 6F               [ 4] 1185 	ld	l, a
                                   1186 ;	spillPairReg hl
                                   1187 ;	spillPairReg hl
    00000303 CB F5            [ 8] 1188 	set	6, l
    00000305 3E 08            [ 7] 1189 	ld	a, #0x08
    00000307 CDr00r00         [17] 1190 	call	_V9_SetRegister
                                   1191 ;E:/Dropbox/FAUSTO/SVILUPPI/MSX/CODE/C/MSXgl/engine/src/v9990.h:574: inline void V9_SetInterrupt(u8 flags) { V9_SetRegister(9, flags); }
    0000030A 2E 01            [ 7] 1192 	ld	l, #0x01
                                   1193 ;	spillPairReg hl
                                   1194 ;	spillPairReg hl
    0000030C 3E 09            [ 7] 1195 	ld	a, #0x09
    0000030E CDr00r00         [17] 1196 	call	_V9_SetRegister
                                   1197 ;E:\Dropbox\FAUSTO\SVILUPPI\MSX\CODE\C\MSXgl\projects\soccerlg/soccerlg_s4_b1.c:221: g_MatchStatus=MATCH_PRESENTATION;
    00000311 3E 0F            [ 7] 1198 	ld	a, #0x0f
    00000313 32r00r00         [13] 1199 	ld	(#_g_MatchStatus), a
                                   1200 ;E:\Dropbox\FAUSTO\SVILUPPI\MSX\CODE\C\MSXgl\projects\soccerlg/soccerlg_s4_b1.c:223: g_Timer=0;  
    00000316 AF               [ 4] 1201 	xor	a, a
    00000317 32r00r00         [13] 1202 	ld	(#_g_Timer), a
                                   1203 ;E:\Dropbox\FAUSTO\SVILUPPI\MSX\CODE\C\MSXgl\projects\soccerlg/soccerlg_s4_b1.c:224: while (g_Timer<=20)
    0000031A                       1204 00101$:
    0000031A 3E 14            [ 7] 1205 	ld	a, #0x14
    0000031C FD 21r00r00      [14] 1206 	ld	iy, #_g_Timer
    00000320 FD 96 00         [19] 1207 	sub	a, 0 (iy)
    00000323 38 06            [12] 1208 	jr	C, 00134$
                                   1209 ;E:\Dropbox\FAUSTO\SVILUPPI\MSX\CODE\C\MSXgl\projects\soccerlg/soccerlg_s4_b1.c:226: ResetPlayersInfo();
    00000325 CDrD2r03         [17] 1210 	call	_ResetPlayersInfo
    00000328 C3r1Ar03         [10] 1211 	jp	00101$
                                   1212 ;E:/Dropbox/FAUSTO/SVILUPPI/MSX/CODE/C/MSXgl/engine/src/v9990.h:730: inline void V9_SetSpriteEnable(bool enable) { V9_SetFlag(8, V9_R08_SPD_OFF, enable ? 0 : V9_R08_SPD_OFF); }
    0000032B                       1213 00134$:
                                   1214 ;E:/Dropbox/FAUSTO/SVILUPPI/MSX/CODE/C/MSXgl/engine/src/v9990.h:258: inline void V9_SetFlag(u8 reg, u8 mask, u8 flag) { V9_SetRegister(reg, V9_GetRegister(reg) & (~mask) | flag); }
    0000032B 3E 08            [ 7] 1215 	ld	a, #0x08
    0000032D CDr00r00         [17] 1216 	call	_V9_GetRegister
    00000330 6F               [ 4] 1217 	ld	l, a
                                   1218 ;	spillPairReg hl
                                   1219 ;	spillPairReg hl
    00000331 CB B5            [ 8] 1220 	res	6, l
    00000333 3E 08            [ 7] 1221 	ld	a, #0x08
    00000335 CDr00r00         [17] 1222 	call	_V9_SetRegister
                                   1223 ;E:\Dropbox\FAUSTO\SVILUPPI\MSX\CODE\C\MSXgl\projects\soccerlg/soccerlg_s4_b1.c:232: g_Timer=0;  
    00000338 AF               [ 4] 1224 	xor	a, a
    00000339 32r00r00         [13] 1225 	ld	(#_g_Timer), a
                                   1226 ;E:\Dropbox\FAUSTO\SVILUPPI\MSX\CODE\C\MSXgl\projects\soccerlg/soccerlg_s4_b1.c:233: while (g_Timer<=20)
    0000033C                       1227 00104$:
    0000033C 3E 14            [ 7] 1228 	ld	a, #0x14
    0000033E FD 21r00r00      [14] 1229 	ld	iy, #_g_Timer
    00000342 FD 96 00         [19] 1230 	sub	a, 0 (iy)
    00000345 38 06            [12] 1231 	jr	C, 00135$
                                   1232 ;E:\Dropbox\FAUSTO\SVILUPPI\MSX\CODE\C\MSXgl\projects\soccerlg/soccerlg_s4_b1.c:235: ResetPlayersInfo();
    00000347 CDrD2r03         [17] 1233 	call	_ResetPlayersInfo
    0000034A C3r3Cr03         [10] 1234 	jp	00104$
                                   1235 ;E:/Dropbox/FAUSTO/SVILUPPI/MSX/CODE/C/MSXgl/engine/src/v9990.h:730: inline void V9_SetSpriteEnable(bool enable) { V9_SetFlag(8, V9_R08_SPD_OFF, enable ? 0 : V9_R08_SPD_OFF); }
    0000034D                       1236 00135$:
                                   1237 ;E:/Dropbox/FAUSTO/SVILUPPI/MSX/CODE/C/MSXgl/engine/src/v9990.h:258: inline void V9_SetFlag(u8 reg, u8 mask, u8 flag) { V9_SetRegister(reg, V9_GetRegister(reg) & (~mask) | flag); }
    0000034D 3E 08            [ 7] 1238 	ld	a, #0x08
    0000034F CDr00r00         [17] 1239 	call	_V9_GetRegister
    00000352 CB B7            [ 8] 1240 	res	6, a
    00000354 6F               [ 4] 1241 	ld	l, a
                                   1242 ;	spillPairReg hl
                                   1243 ;	spillPairReg hl
    00000355 CB F5            [ 8] 1244 	set	6, l
    00000357 3E 08            [ 7] 1245 	ld	a, #0x08
    00000359 CDr00r00         [17] 1246 	call	_V9_SetRegister
                                   1247 ;E:\Dropbox\FAUSTO\SVILUPPI\MSX\CODE\C\MSXgl\projects\soccerlg/soccerlg_s4_b1.c:240: g_Timer=0;  
    0000035C AF               [ 4] 1248 	xor	a, a
    0000035D 32r00r00         [13] 1249 	ld	(#_g_Timer), a
                                   1250 ;E:\Dropbox\FAUSTO\SVILUPPI\MSX\CODE\C\MSXgl\projects\soccerlg/soccerlg_s4_b1.c:241: while (g_Timer<=20)
    00000360                       1251 00107$:
    00000360 3E 14            [ 7] 1252 	ld	a, #0x14
    00000362 FD 21r00r00      [14] 1253 	ld	iy, #_g_Timer
    00000366 FD 96 00         [19] 1254 	sub	a, 0 (iy)
    00000369 38 06            [12] 1255 	jr	C, 00138$
                                   1256 ;E:\Dropbox\FAUSTO\SVILUPPI\MSX\CODE\C\MSXgl\projects\soccerlg/soccerlg_s4_b1.c:243: ResetPlayersInfo();
    0000036B CDrD2r03         [17] 1257 	call	_ResetPlayersInfo
    0000036E C3r60r03         [10] 1258 	jp	00107$
                                   1259 ;E:/Dropbox/FAUSTO/SVILUPPI/MSX/CODE/C/MSXgl/engine/src/v9990.h:730: inline void V9_SetSpriteEnable(bool enable) { V9_SetFlag(8, V9_R08_SPD_OFF, enable ? 0 : V9_R08_SPD_OFF); }
    00000371                       1260 00138$:
                                   1261 ;E:/Dropbox/FAUSTO/SVILUPPI/MSX/CODE/C/MSXgl/engine/src/v9990.h:258: inline void V9_SetFlag(u8 reg, u8 mask, u8 flag) { V9_SetRegister(reg, V9_GetRegister(reg) & (~mask) | flag); }
    00000371 3E 08            [ 7] 1262 	ld	a, #0x08
    00000373 CDr00r00         [17] 1263 	call	_V9_GetRegister
    00000376 6F               [ 4] 1264 	ld	l, a
                                   1265 ;	spillPairReg hl
                                   1266 ;	spillPairReg hl
    00000377 CB B5            [ 8] 1267 	res	6, l
    00000379 3E 08            [ 7] 1268 	ld	a, #0x08
    0000037B CDr00r00         [17] 1269 	call	_V9_SetRegister
                                   1270 ;E:\Dropbox\FAUSTO\SVILUPPI\MSX\CODE\C\MSXgl\projects\soccerlg/soccerlg_s4_b1.c:247: g_Timer=0;  
    0000037E AF               [ 4] 1271 	xor	a, a
    0000037F 32r00r00         [13] 1272 	ld	(#_g_Timer), a
                                   1273 ;E:\Dropbox\FAUSTO\SVILUPPI\MSX\CODE\C\MSXgl\projects\soccerlg/soccerlg_s4_b1.c:248: while (g_Timer<=20)
    00000382                       1274 00110$:
    00000382 3E 14            [ 7] 1275 	ld	a, #0x14
    00000384 FD 21r00r00      [14] 1276 	ld	iy, #_g_Timer
    00000388 FD 96 00         [19] 1277 	sub	a, 0 (iy)
    0000038B 38 06            [12] 1278 	jr	C, 00139$
                                   1279 ;E:\Dropbox\FAUSTO\SVILUPPI\MSX\CODE\C\MSXgl\projects\soccerlg/soccerlg_s4_b1.c:250: ResetPlayersInfo();
    0000038D CDrD2r03         [17] 1280 	call	_ResetPlayersInfo
    00000390 C3r82r03         [10] 1281 	jp	00110$
                                   1282 ;E:/Dropbox/FAUSTO/SVILUPPI/MSX/CODE/C/MSXgl/engine/src/v9990.h:730: inline void V9_SetSpriteEnable(bool enable) { V9_SetFlag(8, V9_R08_SPD_OFF, enable ? 0 : V9_R08_SPD_OFF); }
    00000393                       1283 00139$:
                                   1284 ;E:/Dropbox/FAUSTO/SVILUPPI/MSX/CODE/C/MSXgl/engine/src/v9990.h:258: inline void V9_SetFlag(u8 reg, u8 mask, u8 flag) { V9_SetRegister(reg, V9_GetRegister(reg) & (~mask) | flag); }
    00000393 3E 08            [ 7] 1285 	ld	a, #0x08
    00000395 CDr00r00         [17] 1286 	call	_V9_GetRegister
    00000398 CB B7            [ 8] 1287 	res	6, a
    0000039A 6F               [ 4] 1288 	ld	l, a
                                   1289 ;	spillPairReg hl
                                   1290 ;	spillPairReg hl
    0000039B CB F5            [ 8] 1291 	set	6, l
    0000039D 3E 08            [ 7] 1292 	ld	a, #0x08
    0000039F CDr00r00         [17] 1293 	call	_V9_SetRegister
                                   1294 ;E:\Dropbox\FAUSTO\SVILUPPI\MSX\CODE\C\MSXgl\projects\soccerlg/soccerlg_s4_b1.c:255: g_Timer=0;  
    000003A2 AF               [ 4] 1295 	xor	a, a
    000003A3 32r00r00         [13] 1296 	ld	(#_g_Timer), a
                                   1297 ;E:\Dropbox\FAUSTO\SVILUPPI\MSX\CODE\C\MSXgl\projects\soccerlg/soccerlg_s4_b1.c:256: while (g_Timer<=20)
    000003A6                       1298 00113$:
    000003A6 3E 14            [ 7] 1299 	ld	a, #0x14
    000003A8 FD 21r00r00      [14] 1300 	ld	iy, #_g_Timer
    000003AC FD 96 00         [19] 1301 	sub	a, 0 (iy)
    000003AF 38 06            [12] 1302 	jr	C, 00142$
                                   1303 ;E:\Dropbox\FAUSTO\SVILUPPI\MSX\CODE\C\MSXgl\projects\soccerlg/soccerlg_s4_b1.c:258: ResetPlayersInfo();
    000003B1 CDrD2r03         [17] 1304 	call	_ResetPlayersInfo
    000003B4 C3rA6r03         [10] 1305 	jp	00113$
                                   1306 ;E:/Dropbox/FAUSTO/SVILUPPI/MSX/CODE/C/MSXgl/engine/src/v9990.h:730: inline void V9_SetSpriteEnable(bool enable) { V9_SetFlag(8, V9_R08_SPD_OFF, enable ? 0 : V9_R08_SPD_OFF); }
    000003B7                       1307 00142$:
                                   1308 ;E:/Dropbox/FAUSTO/SVILUPPI/MSX/CODE/C/MSXgl/engine/src/v9990.h:258: inline void V9_SetFlag(u8 reg, u8 mask, u8 flag) { V9_SetRegister(reg, V9_GetRegister(reg) & (~mask) | flag); }
    000003B7 3E 08            [ 7] 1309 	ld	a, #0x08
    000003B9 CDr00r00         [17] 1310 	call	_V9_GetRegister
    000003BC 6F               [ 4] 1311 	ld	l, a
                                   1312 ;	spillPairReg hl
                                   1313 ;	spillPairReg hl
    000003BD CB B5            [ 8] 1314 	res	6, l
    000003BF 3E 08            [ 7] 1315 	ld	a, #0x08
    000003C1 CDr00r00         [17] 1316 	call	_V9_SetRegister
                                   1317 ;E:\Dropbox\FAUSTO\SVILUPPI\MSX\CODE\C\MSXgl\projects\soccerlg/soccerlg_s4_b1.c:261: g_MatchStatus=ms;
    000003C4 FD 21 00 00      [14] 1318 	ld	iy, #0
    000003C8 FD 39            [15] 1319 	add	iy, sp
    000003CA FD 7E 00         [19] 1320 	ld	a, 0 (iy)
    000003CD 32r00r00         [13] 1321 	ld	(_g_MatchStatus+0), a
                                   1322 ;E:\Dropbox\FAUSTO\SVILUPPI\MSX\CODE\C\MSXgl\projects\soccerlg/soccerlg_s4_b1.c:263: }
    000003D0 33               [ 6] 1323 	inc	sp
    000003D1 C9               [10] 1324 	ret
                                   1325 ;E:\Dropbox\FAUSTO\SVILUPPI\MSX\CODE\C\MSXgl\projects\soccerlg/soccerlg_s4_b1.c:266: void ResetPlayersInfo(){
                                   1326 ;	---------------------------------
                                   1327 ; Function ResetPlayersInfo
                                   1328 ; ---------------------------------
    000003D2                       1329 _ResetPlayersInfo::
    000003D2 DD E5            [15] 1330 	push	ix
    000003D4 DD 21 00 00      [14] 1331 	ld	ix,#0
    000003D8 DD 39            [15] 1332 	add	ix,sp
    000003DA 3B               [ 6] 1333 	dec	sp
                                   1334 ;E:\Dropbox\FAUSTO\SVILUPPI\MSX\CODE\C\MSXgl\projects\soccerlg/soccerlg_s4_b1.c:267: Trampoline_VOID_P1(2,SetPlayerBallPossession,NO_VALUE);
    000003DB 3E FF            [ 7] 1335 	ld	a, #0xff
    000003DD F5               [11] 1336 	push	af
    000003DE 33               [ 6] 1337 	inc	sp
    000003DF 11r00r00         [10] 1338 	ld	de, #_SetPlayerBallPossession
    000003E2 3E 02            [ 7] 1339 	ld	a, #0x02
    000003E4 CDr00r00         [17] 1340 	call	_Trampoline_VOID_P1
                                   1341 ;E:\Dropbox\FAUSTO\SVILUPPI\MSX\CODE\C\MSXgl\projects\soccerlg/soccerlg_s4_b1.c:268: for(u8 i=0;i<14;i++){
    000003E7 0E 00            [ 7] 1342 	ld	c, #0x00
    000003E9                       1343 00103$:
    000003E9 79               [ 4] 1344 	ld	a, c
    000003EA D6 0E            [ 7] 1345 	sub	a, #0x0e
    000003EC 30 41            [12] 1346 	jr	NC, 00105$
                                   1347 ;E:\Dropbox\FAUSTO\SVILUPPI\MSX\CODE\C\MSXgl\projects\soccerlg/soccerlg_s4_b1.c:269: g_Players[i].Direction=DIRECTION_NONE;
    000003EE 06 00            [ 7] 1348 	ld	b, #0x00
    000003F0 69               [ 4] 1349 	ld	l, c
    000003F1 60               [ 4] 1350 	ld	h, b
    000003F2 29               [11] 1351 	add	hl, hl
    000003F3 29               [11] 1352 	add	hl, hl
    000003F4 09               [11] 1353 	add	hl, bc
    000003F5 29               [11] 1354 	add	hl, hl
    000003F6 29               [11] 1355 	add	hl, hl
    000003F7 09               [11] 1356 	add	hl, bc
    000003F8 EB               [ 4] 1357 	ex	de, hl
    000003F9 21r00r00         [10] 1358 	ld	hl, #_g_Players
    000003FC 19               [11] 1359 	add	hl, de
    000003FD EB               [ 4] 1360 	ex	de, hl
    000003FE 21 0A 00         [10] 1361 	ld	hl, #0x000a
    00000401 19               [11] 1362 	add	hl, de
    00000402 36 00            [10] 1363 	ld	(hl), #0x00
                                   1364 ;E:\Dropbox\FAUSTO\SVILUPPI\MSX\CODE\C\MSXgl\projects\soccerlg/soccerlg_s4_b1.c:270: g_Players[i].PreviousDirection=g_Players[i].Direction;
    00000404 7B               [ 4] 1365 	ld	a, e
    00000405 C6 0B            [ 7] 1366 	add	a, #0x0b
    00000407 47               [ 4] 1367 	ld	b, a
    00000408 7A               [ 4] 1368 	ld	a, d
    00000409 CE 00            [ 7] 1369 	adc	a, #0x00
    0000040B F5               [11] 1370 	push	af
    0000040C 7E               [ 7] 1371 	ld	a, (hl)
    0000040D DD 77 FF         [19] 1372 	ld	-1 (ix), a
    00000410 F1               [10] 1373 	pop	af
    00000411 68               [ 4] 1374 	ld	l, b
    00000412 67               [ 4] 1375 	ld	h, a
    00000413 DD 7E FF         [19] 1376 	ld	a, -1 (ix)
    00000416 77               [ 7] 1377 	ld	(hl), a
                                   1378 ;E:\Dropbox\FAUSTO\SVILUPPI\MSX\CODE\C\MSXgl\projects\soccerlg/soccerlg_s4_b1.c:271: g_Players[i].LastPose=0;
    00000417 21 0C 00         [10] 1379 	ld	hl, #0x000c
    0000041A 19               [11] 1380 	add	hl, de
    0000041B 36 00            [10] 1381 	ld	(hl), #0x00
                                   1382 ;E:\Dropbox\FAUSTO\SVILUPPI\MSX\CODE\C\MSXgl\projects\soccerlg/soccerlg_s4_b1.c:272: g_Players[i].Status=PLAYER_STATUS_NONE;
    0000041D 21 12 00         [10] 1383 	ld	hl, #0x0012
    00000420 19               [11] 1384 	add	hl, de
    00000421 36 00            [10] 1385 	ld	(hl), #0x00
    00000423 23               [ 6] 1386 	inc	hl
    00000424 36 00            [10] 1387 	ld	(hl), #0x00
    00000426 2B               [ 6] 1388 	dec	hl
                                   1389 ;E:\Dropbox\FAUSTO\SVILUPPI\MSX\CODE\C\MSXgl\projects\soccerlg/soccerlg_s4_b1.c:273: g_Players[i].Status=PLAYER_STATUS_NONE;
    00000427 AF               [ 4] 1390 	xor	a, a
    00000428 77               [ 7] 1391 	ld	(hl), a
    00000429 23               [ 6] 1392 	inc	hl
    0000042A 77               [ 7] 1393 	ld	(hl), a
                                   1394 ;E:\Dropbox\FAUSTO\SVILUPPI\MSX\CODE\C\MSXgl\projects\soccerlg/soccerlg_s4_b1.c:268: for(u8 i=0;i<14;i++){
    0000042B 0C               [ 4] 1395 	inc	c
    0000042C C3rE9r03         [10] 1396 	jp	00103$
    0000042F                       1397 00105$:
                                   1398 ;E:\Dropbox\FAUSTO\SVILUPPI\MSX\CODE\C\MSXgl\projects\soccerlg/soccerlg_s4_b1.c:275: }
    0000042F 33               [ 6] 1399 	inc	sp
    00000430 DD E1            [14] 1400 	pop	ix
    00000432 C9               [10] 1401 	ret
                                   1402 ;E:\Dropbox\FAUSTO\SVILUPPI\MSX\CODE\C\MSXgl\projects\soccerlg/soccerlg_s4_b1.c:278: void ShowMenu(){
                                   1403 ;	---------------------------------
                                   1404 ; Function ShowMenu
                                   1405 ; ---------------------------------
    00000433                       1406 _ShowMenu::
    00000433 DD E5            [15] 1407 	push	ix
    00000435 DD 21 00 00      [14] 1408 	ld	ix,#0
    00000439 DD 39            [15] 1409 	add	ix,sp
    0000043B 21 F4 FF         [10] 1410 	ld	hl, #-12
    0000043E 39               [11] 1411 	add	hl, sp
    0000043F F9               [ 6] 1412 	ld	sp, hl
                                   1413 ;E:\Dropbox\FAUSTO\SVILUPPI\MSX\CODE\C\MSXgl\projects\soccerlg/soccerlg_s4_b1.c:280: for(u8 i=0;i<32;i++){
    00000440 0E 00            [ 7] 1414 	ld	c, #0x00
    00000442                       1415 00155$:
    00000442 79               [ 4] 1416 	ld	a, c
    00000443 D6 20            [ 7] 1417 	sub	a, #0x20
    00000445 30 2F            [12] 1418 	jr	NC, 00101$
                                   1419 ;E:\Dropbox\FAUSTO\SVILUPPI\MSX\CODE\C\MSXgl\projects\soccerlg/soccerlg_s4_b1.c:282: attr.D = 1;
    00000447 21 07 00         [10] 1420 	ld	hl, #7
    0000044A 39               [11] 1421 	add	hl, sp
    0000044B CB E6            [15] 1422 	set	4, (hl)
                                   1423 ;E:\Dropbox\FAUSTO\SVILUPPI\MSX\CODE\C\MSXgl\projects\soccerlg/soccerlg_s4_b1.c:283: V9_SetSpriteP1(i, &attr);
                                   1424 ;E:/Dropbox/FAUSTO/SVILUPPI/MSX/CODE/C/MSXgl/engine/src/v9990.h:781: inline void V9_SetSpriteP1(u8 id, const V9_Sprite* attr) { V9_WriteVRAM(V9_P1_SPAT + (id * 4), (const u8*)attr, 4); }
    0000044D 69               [ 4] 1425 	ld	l, c
                                   1426 ;	spillPairReg hl
                                   1427 ;	spillPairReg hl
    0000044E 26 00            [ 7] 1428 	ld	h, #0x00
                                   1429 ;	spillPairReg hl
                                   1430 ;	spillPairReg hl
    00000450 29               [11] 1431 	add	hl, hl
    00000451 29               [11] 1432 	add	hl, hl
    00000452 7C               [ 4] 1433 	ld	a, h
    00000453 07               [ 4] 1434 	rlca
    00000454 9F               [ 4] 1435 	sbc	a, a
    00000455 5F               [ 4] 1436 	ld	e, a
    00000456 57               [ 4] 1437 	ld	d, a
    00000457 7C               [ 4] 1438 	ld	a, h
    00000458 C6 FE            [ 7] 1439 	add	a, #0xfe
    0000045A 67               [ 4] 1440 	ld	h, a
                                   1441 ;	spillPairReg hl
                                   1442 ;	spillPairReg hl
    0000045B 7B               [ 4] 1443 	ld	a, e
    0000045C CE 03            [ 7] 1444 	adc	a, #0x03
    0000045E 5F               [ 4] 1445 	ld	e, a
    0000045F 30 01            [12] 1446 	jr	NC, 00371$
    00000461 14               [ 4] 1447 	inc	d
    00000462                       1448 00371$:
                                   1449 ;E:/Dropbox/FAUSTO/SVILUPPI/MSX/CODE/C/MSXgl/engine/src/v9990.h:371: inline void V9_WriteVRAM(u32 addr, const u8* src, u16 count) { V9_SetWriteAddress(addr); V9_WriteVRAM_CurrentAddr(src, count); }
    00000462 C5               [11] 1450 	push	bc
    00000463 EB               [ 4] 1451 	ex	de, hl
    00000464 CDr00r00         [17] 1452 	call	_V9_SetWriteAddress
    00000467 11 04 00         [10] 1453 	ld	de, #0x0004
    0000046A 21 06 00         [10] 1454 	ld	hl, #6
    0000046D 39               [11] 1455 	add	hl, sp
    0000046E CDr00r00         [17] 1456 	call	_V9_WriteVRAM_CurrentAddr
    00000471 C1               [10] 1457 	pop	bc
                                   1458 ;E:\Dropbox\FAUSTO\SVILUPPI\MSX\CODE\C\MSXgl\projects\soccerlg/soccerlg_s4_b1.c:280: for(u8 i=0;i<32;i++){
    00000472 0C               [ 4] 1459 	inc	c
    00000473 C3r42r04         [10] 1460 	jp	00155$
    00000476                       1461 00101$:
                                   1462 ;E:\Dropbox\FAUSTO\SVILUPPI\MSX\CODE\C\MSXgl\projects\soccerlg/soccerlg_s4_b1.c:286: V9_SetScrollingBY(1);
    00000476 21 01 00         [10] 1463 	ld	hl, #0x0001
    00000479 CDr00r00         [17] 1464 	call	_V9_SetScrollingBY
                                   1465 ;E:/Dropbox/FAUSTO/SVILUPPI/MSX/CODE/C/MSXgl/engine/src/v9990.h:258: inline void V9_SetFlag(u8 reg, u8 mask, u8 flag) { V9_SetRegister(reg, V9_GetRegister(reg) & (~mask) | flag); }
    0000047C 3E 08            [ 7] 1466 	ld	a, #0x08
    0000047E CDr00r00         [17] 1467 	call	_V9_GetRegister
    00000481 6F               [ 4] 1468 	ld	l, a
                                   1469 ;	spillPairReg hl
                                   1470 ;	spillPairReg hl
    00000482 CB BD            [ 8] 1471 	res	7, l
    00000484 3E 08            [ 7] 1472 	ld	a, #0x08
    00000486 CDr00r00         [17] 1473 	call	_V9_SetRegister
                                   1474 ;E:/Dropbox/FAUSTO/SVILUPPI/MSX/CODE/C/MSXgl/engine/src/v9990.h:353: inline void V9_FillVRAM(u32 addr, u8 value, u16 count) { V9_SetWriteAddress(addr); V9_FillVRAM_CurrentAddr(value, count); }
    00000489 11 00 00         [10] 1475 	ld	de, #0x0000
    0000048C 21 04 00         [10] 1476 	ld	hl, #0x0004
    0000048F CDr00r00         [17] 1477 	call	_V9_SetWriteAddress
    00000492 11 00 6A         [10] 1478 	ld	de, #0x6a00
    00000495 AF               [ 4] 1479 	xor	a, a
    00000496 CDr00r00         [17] 1480 	call	_V9_FillVRAM_CurrentAddr
                                   1481 ;E:\Dropbox\FAUSTO\SVILUPPI\MSX\CODE\C\MSXgl\projects\soccerlg/soccerlg_s4_b1.c:291: V9990_LoadMenuTeamsData();
    00000499 CDr00r00         [17] 1482 	call	_V9990_LoadMenuTeamsData
                                   1483 ;E:/Dropbox/FAUSTO/SVILUPPI/MSX/CODE/C/MSXgl/engine/src/v9990.h:1047: inline void V9_SelectPaletteP1(u8 a, u8 b) { V9_SetRegister(13, ((b & 0x3) << 2) + (a & 0x3)); }
    0000049C 3E 01            [ 7] 1484 	ld	a, #0x01
    0000049E E6 03            [ 7] 1485 	and	a, #0x03
    000004A0 87               [ 4] 1486 	add	a, a
    000004A1 87               [ 4] 1487 	add	a, a
    000004A2 4F               [ 4] 1488 	ld	c, a
    000004A3 AF               [ 4] 1489 	xor	a, a
    000004A4 E6 03            [ 7] 1490 	and	a, #0x03
    000004A6 81               [ 4] 1491 	add	a, c
    000004A7 6F               [ 4] 1492 	ld	l, a
                                   1493 ;	spillPairReg hl
                                   1494 ;	spillPairReg hl
    000004A8 3E 0D            [ 7] 1495 	ld	a, #0x0d
    000004AA CDr00r00         [17] 1496 	call	_V9_SetRegister
                                   1497 ;E:\Dropbox\FAUSTO\SVILUPPI\MSX\CODE\C\MSXgl\projects\soccerlg/soccerlg_s4_b1.c:293: for (u8 y=0;y<64;y++){
    000004AD DD 36 FF 00      [19] 1498 	ld	-1 (ix), #0x00
    000004B1                       1499 00161$:
    000004B1 DD 7E FF         [19] 1500 	ld	a, -1 (ix)
    000004B4 D6 40            [ 7] 1501 	sub	a, #0x40
    000004B6 30 3D            [12] 1502 	jr	NC, 00103$
                                   1503 ;E:\Dropbox\FAUSTO\SVILUPPI\MSX\CODE\C\MSXgl\projects\soccerlg/soccerlg_s4_b1.c:294: for (u8 x=0;x<64;x++){
    000004B8 0E 00            [ 7] 1504 	ld	c, #0x00
    000004BA                       1505 00158$:
    000004BA 79               [ 4] 1506 	ld	a, c
    000004BB D6 40            [ 7] 1507 	sub	a, #0x40
    000004BD 30 30            [12] 1508 	jr	NC, 00162$
                                   1509 ;E:/Dropbox/FAUSTO/SVILUPPI/MSX/CODE/C/MSXgl/engine/src/v9990.h:1426: inline u32 V9_CellAddrP1A(u8 x, u8 y) { return V9_P1_PNT_A + (((64 * y) + x) * 2); }
    000004BF DD 6E FF         [19] 1510 	ld	l, -1 (ix)
                                   1511 ;	spillPairReg hl
                                   1512 ;	spillPairReg hl
    000004C2 26 00            [ 7] 1513 	ld	h, #0x00
                                   1514 ;	spillPairReg hl
                                   1515 ;	spillPairReg hl
    000004C4 29               [11] 1516 	add	hl, hl
    000004C5 29               [11] 1517 	add	hl, hl
    000004C6 29               [11] 1518 	add	hl, hl
    000004C7 29               [11] 1519 	add	hl, hl
    000004C8 29               [11] 1520 	add	hl, hl
    000004C9 29               [11] 1521 	add	hl, hl
    000004CA 59               [ 4] 1522 	ld	e, c
    000004CB 16 00            [ 7] 1523 	ld	d, #0x00
    000004CD 19               [11] 1524 	add	hl, de
    000004CE 29               [11] 1525 	add	hl, hl
    000004CF 7C               [ 4] 1526 	ld	a, h
    000004D0 07               [ 4] 1527 	rlca
    000004D1 9F               [ 4] 1528 	sbc	a, a
    000004D2 5F               [ 4] 1529 	ld	e, a
    000004D3 57               [ 4] 1530 	ld	d, a
    000004D4 7C               [ 4] 1531 	ld	a, h
    000004D5 C6 C0            [ 7] 1532 	add	a, #0xc0
    000004D7 67               [ 4] 1533 	ld	h, a
                                   1534 ;	spillPairReg hl
                                   1535 ;	spillPairReg hl
    000004D8 7B               [ 4] 1536 	ld	a, e
    000004D9 CE 07            [ 7] 1537 	adc	a, #0x07
    000004DB 5F               [ 4] 1538 	ld	e, a
    000004DC 30 01            [12] 1539 	jr	NC, 00372$
    000004DE 14               [ 4] 1540 	inc	d
    000004DF                       1541 00372$:
                                   1542 ;E:/Dropbox/FAUSTO/SVILUPPI/MSX/CODE/C/MSXgl/engine/src/v9990.h:396: inline void V9_Poke16(u32 addr, u16 val) { V9_SetWriteAddress(addr); V9_Poke16_CurrentAddr(val); }
    000004DF C5               [11] 1543 	push	bc
    000004E0 EB               [ 4] 1544 	ex	de, hl
    000004E1 CDr00r00         [17] 1545 	call	_V9_SetWriteAddress
    000004E4 C1               [10] 1546 	pop	bc
    000004E5 21 20 00         [10] 1547 	ld	hl, #0x0020
    000004E8 CDr00r00         [17] 1548 	call	_V9_Poke16_CurrentAddr
                                   1549 ;E:\Dropbox\FAUSTO\SVILUPPI\MSX\CODE\C\MSXgl\projects\soccerlg/soccerlg_s4_b1.c:294: for (u8 x=0;x<64;x++){
    000004EB 0C               [ 4] 1550 	inc	c
    000004EC C3rBAr04         [10] 1551 	jp	00158$
    000004EF                       1552 00162$:
                                   1553 ;E:\Dropbox\FAUSTO\SVILUPPI\MSX\CODE\C\MSXgl\projects\soccerlg/soccerlg_s4_b1.c:293: for (u8 y=0;y<64;y++){
    000004EF DD 34 FF         [23] 1554 	inc	-1 (ix)
    000004F2 C3rB1r04         [10] 1555 	jp	00161$
    000004F5                       1556 00103$:
                                   1557 ;E:\Dropbox\FAUSTO\SVILUPPI\MSX\CODE\C\MSXgl\projects\soccerlg/soccerlg_s4_b1.c:298: for (u8 y=5;y<25;y++){
    000004F5 0E 05            [ 7] 1558 	ld	c, #0x05
    000004F7                       1559 00167$:
    000004F7 79               [ 4] 1560 	ld	a, c
    000004F8 D6 19            [ 7] 1561 	sub	a, #0x19
    000004FA D2r97r05         [10] 1562 	jp	NC, 00105$
                                   1563 ;E:\Dropbox\FAUSTO\SVILUPPI\MSX\CODE\C\MSXgl\projects\soccerlg/soccerlg_s4_b1.c:299: u16 tileId=256+32*(y-5);
    000004FD DD 71 FC         [19] 1564 	ld	-4 (ix), c
    00000500 DD 36 FD 00      [19] 1565 	ld	-3 (ix), #0x00
    00000504 DD 7E FC         [19] 1566 	ld	a, -4 (ix)
    00000507 C6 FB            [ 7] 1567 	add	a, #0xfb
    00000509 47               [ 4] 1568 	ld	b, a
    0000050A DD 7E FD         [19] 1569 	ld	a, -3 (ix)
    0000050D CE FF            [ 7] 1570 	adc	a, #0xff
    0000050F 68               [ 4] 1571 	ld	l, b
    00000510 67               [ 4] 1572 	ld	h, a
    00000511 29               [11] 1573 	add	hl, hl
    00000512 29               [11] 1574 	add	hl, hl
    00000513 29               [11] 1575 	add	hl, hl
    00000514 29               [11] 1576 	add	hl, hl
    00000515 29               [11] 1577 	add	hl, hl
    00000516 7C               [ 4] 1578 	ld	a, h
    00000517 3C               [ 4] 1579 	inc	a
    00000518 DD 75 FE         [19] 1580 	ld	-2 (ix), l
    0000051B DD 77 FF         [19] 1581 	ld	-1 (ix), a
                                   1582 ;E:\Dropbox\FAUSTO\SVILUPPI\MSX\CODE\C\MSXgl\projects\soccerlg/soccerlg_s4_b1.c:300: for (u8 x=1;x<31;x++){
    0000051E 06 01            [ 7] 1583 	ld	b, #0x01
    00000520                       1584 00164$:
    00000520 78               [ 4] 1585 	ld	a, b
    00000521 D6 1F            [ 7] 1586 	sub	a, #0x1f
    00000523 30 6E            [12] 1587 	jr	NC, 00168$
                                   1588 ;E:/Dropbox/FAUSTO/SVILUPPI/MSX/CODE/C/MSXgl/engine/src/v9990.h:1426: inline u32 V9_CellAddrP1A(u8 x, u8 y) { return V9_P1_PNT_A + (((64 * y) + x) * 2); }
    00000525 DD 6E FC         [19] 1589 	ld	l, -4 (ix)
    00000528 DD 66 FD         [19] 1590 	ld	h, -3 (ix)
    0000052B 29               [11] 1591 	add	hl, hl
    0000052C 29               [11] 1592 	add	hl, hl
    0000052D 29               [11] 1593 	add	hl, hl
    0000052E 29               [11] 1594 	add	hl, hl
    0000052F 29               [11] 1595 	add	hl, hl
    00000530 29               [11] 1596 	add	hl, hl
    00000531 58               [ 4] 1597 	ld	e, b
    00000532 16 00            [ 7] 1598 	ld	d, #0x00
    00000534 19               [11] 1599 	add	hl, de
    00000535 29               [11] 1600 	add	hl, hl
    00000536 EB               [ 4] 1601 	ex	de, hl
    00000537 7A               [ 4] 1602 	ld	a, d
    00000538 07               [ 4] 1603 	rlca
    00000539 ED 62            [15] 1604 	sbc	hl, hl
    0000053B DD 73 F4         [19] 1605 	ld	-12 (ix), e
    0000053E 7A               [ 4] 1606 	ld	a, d
    0000053F C6 C0            [ 7] 1607 	add	a, #0xc0
    00000541 DD 77 F5         [19] 1608 	ld	-11 (ix), a
    00000544 7D               [ 4] 1609 	ld	a, l
    00000545 CE 07            [ 7] 1610 	adc	a, #0x07
    00000547 DD 77 F6         [19] 1611 	ld	-10 (ix), a
    0000054A 7C               [ 4] 1612 	ld	a, h
    0000054B CE 00            [ 7] 1613 	adc	a, #0x00
    0000054D DD 77 F7         [19] 1614 	ld	-9 (ix), a
                                   1615 ;E:/Dropbox/FAUSTO/SVILUPPI/MSX/CODE/C/MSXgl/engine/src/v9990.h:396: inline void V9_Poke16(u32 addr, u16 val) { V9_SetWriteAddress(addr); V9_Poke16_CurrentAddr(val); }
    00000550 E5               [11] 1616 	push	hl
    00000551 C5               [11] 1617 	push	bc
    00000552 D5               [11] 1618 	push	de
    00000553 DD 5E F4         [19] 1619 	ld	e, -12 (ix)
    00000556 DD 56 F5         [19] 1620 	ld	d, -11 (ix)
    00000559 DD 6E F6         [19] 1621 	ld	l, -10 (ix)
                                   1622 ;	spillPairReg hl
                                   1623 ;	spillPairReg hl
    0000055C DD 66 F7         [19] 1624 	ld	h, -9 (ix)
                                   1625 ;	spillPairReg hl
                                   1626 ;	spillPairReg hl
    0000055F CDr00r00         [17] 1627 	call	_V9_SetWriteAddress
    00000562 D1               [10] 1628 	pop	de
    00000563 C1               [10] 1629 	pop	bc
    00000564 DD 6E FE         [19] 1630 	ld	l, -2 (ix)
                                   1631 ;	spillPairReg hl
                                   1632 ;	spillPairReg hl
    00000567 DD 66 FF         [19] 1633 	ld	h, -1 (ix)
                                   1634 ;	spillPairReg hl
                                   1635 ;	spillPairReg hl
    0000056A CDr00r00         [17] 1636 	call	_V9_Poke16_CurrentAddr
    0000056D E1               [10] 1637 	pop	hl
                                   1638 ;E:/Dropbox/FAUSTO/SVILUPPI/MSX/CODE/C/MSXgl/engine/src/v9990.h:1437: inline u32 V9_CellAddrP1B(u8 x, u8 y) { return V9_P1_PNT_B + (((64 * y) + x) * 2); }
    0000056E 7A               [ 4] 1639 	ld	a, d
    0000056F C6 E0            [ 7] 1640 	add	a, #0xe0
    00000571 57               [ 4] 1641 	ld	d, a
    00000572 D5               [11] 1642 	push	de
    00000573 11 07 00         [10] 1643 	ld	de, #0x0007
    00000576 ED 5A            [15] 1644 	adc	hl, de
    00000578 D1               [10] 1645 	pop	de
                                   1646 ;E:/Dropbox/FAUSTO/SVILUPPI/MSX/CODE/C/MSXgl/engine/src/v9990.h:396: inline void V9_Poke16(u32 addr, u16 val) { V9_SetWriteAddress(addr); V9_Poke16_CurrentAddr(val); }
    00000579 C5               [11] 1647 	push	bc
    0000057A CDr00r00         [17] 1648 	call	_V9_SetWriteAddress
    0000057D C1               [10] 1649 	pop	bc
    0000057E DD 6E FE         [19] 1650 	ld	l, -2 (ix)
                                   1651 ;	spillPairReg hl
                                   1652 ;	spillPairReg hl
    00000581 DD 66 FF         [19] 1653 	ld	h, -1 (ix)
                                   1654 ;	spillPairReg hl
                                   1655 ;	spillPairReg hl
    00000584 CDr00r00         [17] 1656 	call	_V9_Poke16_CurrentAddr
                                   1657 ;E:\Dropbox\FAUSTO\SVILUPPI\MSX\CODE\C\MSXgl\projects\soccerlg/soccerlg_s4_b1.c:303: tileId++;
    00000587 DD 34 FE         [23] 1658 	inc	-2 (ix)
    0000058A 20 03            [12] 1659 	jr	NZ, 00373$
    0000058C DD 34 FF         [23] 1660 	inc	-1 (ix)
    0000058F                       1661 00373$:
                                   1662 ;E:\Dropbox\FAUSTO\SVILUPPI\MSX\CODE\C\MSXgl\projects\soccerlg/soccerlg_s4_b1.c:300: for (u8 x=1;x<31;x++){
    0000058F 04               [ 4] 1663 	inc	b
    00000590 C3r20r05         [10] 1664 	jp	00164$
    00000593                       1665 00168$:
                                   1666 ;E:\Dropbox\FAUSTO\SVILUPPI\MSX\CODE\C\MSXgl\projects\soccerlg/soccerlg_s4_b1.c:298: for (u8 y=5;y<25;y++){
    00000593 0C               [ 4] 1667 	inc	c
    00000594 C3rF7r04         [10] 1668 	jp	00167$
    00000597                       1669 00105$:
                                   1670 ;E:\Dropbox\FAUSTO\SVILUPPI\MSX\CODE\C\MSXgl\projects\soccerlg/soccerlg_s4_b1.c:306: V9990_LoadSprites();
    00000597 CDr00r00         [17] 1671 	call	_V9990_LoadSprites
                                   1672 ;E:/Dropbox/FAUSTO/SVILUPPI/MSX/CODE/C/MSXgl/engine/src/v9990.h:574: inline void V9_SetInterrupt(u8 flags) { V9_SetRegister(9, flags); }
    0000059A 2E 01            [ 7] 1673 	ld	l, #0x01
                                   1674 ;	spillPairReg hl
                                   1675 ;	spillPairReg hl
    0000059C 3E 09            [ 7] 1676 	ld	a, #0x09
    0000059E CDr00r00         [17] 1677 	call	_V9_SetRegister
                                   1678 ;E:/Dropbox/FAUSTO/SVILUPPI/MSX/CODE/C/MSXgl/engine/src/v9990.h:258: inline void V9_SetFlag(u8 reg, u8 mask, u8 flag) { V9_SetRegister(reg, V9_GetRegister(reg) & (~mask) | flag); }
    000005A1 3E 08            [ 7] 1679 	ld	a, #0x08
    000005A3 CDr00r00         [17] 1680 	call	_V9_GetRegister
    000005A6 CB BF            [ 8] 1681 	res	7, a
    000005A8 6F               [ 4] 1682 	ld	l, a
                                   1683 ;	spillPairReg hl
                                   1684 ;	spillPairReg hl
    000005A9 CB FD            [ 8] 1685 	set	7, l
    000005AB 3E 08            [ 7] 1686 	ld	a, #0x08
    000005AD CDr00r00         [17] 1687 	call	_V9_SetRegister
                                   1688 ;E:\Dropbox\FAUSTO\SVILUPPI\MSX\CODE\C\MSXgl\projects\soccerlg/soccerlg_s4_b1.c:310: V9990_PrintLayerAStringAtPos(4,0,"    PLAYER TEAM SELECT");
    000005B0 21r44r08         [10] 1689 	ld	hl, #___str_0
    000005B3 E5               [11] 1690 	push	hl
    000005B4 2E 00            [ 7] 1691 	ld	l, #0x00
                                   1692 ;	spillPairReg hl
                                   1693 ;	spillPairReg hl
    000005B6 3E 04            [ 7] 1694 	ld	a, #0x04
    000005B8 CDr00r00         [17] 1695 	call	_V9990_PrintLayerAStringAtPos
                                   1696 ;E:\Dropbox\FAUSTO\SVILUPPI\MSX\CODE\C\MSXgl\projects\soccerlg/soccerlg_s4_b1.c:311: g_MatchStatus=MATCH_SHOW_MENU;
    000005BB 21r00r00         [10] 1697 	ld	hl, #_g_MatchStatus
    000005BE 36 13            [10] 1698 	ld	(hl), #0x13
                                   1699 ;E:\Dropbox\FAUSTO\SVILUPPI\MSX\CODE\C\MSXgl\projects\soccerlg/soccerlg_s4_b1.c:312: g_Team1PaletteId = SelectTeam(SPRITE_PLAYER, NO_VALUE);
    000005C0 2E FF            [ 7] 1700 	ld	l, #0xff
                                   1701 ;	spillPairReg hl
                                   1702 ;	spillPairReg hl
    000005C2 3E F5            [ 7] 1703 	ld	a, #0xf5
    000005C4 CDr00r00         [17] 1704 	call	_SelectTeam
                                   1705 ;E:\Dropbox\FAUSTO\SVILUPPI\MSX\CODE\C\MSXgl\projects\soccerlg/soccerlg_s4_b1.c:315: for(u8 y=g_TeamGrayPos[g_Team1PaletteId].y;y<g_TeamGrayPos[g_Team1PaletteId].y+9;y++){
    000005C7 32r00r00         [13] 1706 	ld	(_g_Team1PaletteId+0), a
    000005CA 26 00            [ 7] 1707 	ld	h, #0x00
                                   1708 ;	spillPairReg hl
                                   1709 ;	spillPairReg hl
    000005CC 6F               [ 4] 1710 	ld	l, a
                                   1711 ;	spillPairReg hl
                                   1712 ;	spillPairReg hl
    000005CD 29               [11] 1713 	add	hl, hl
    000005CE 29               [11] 1714 	add	hl, hl
    000005CF EB               [ 4] 1715 	ex	de,hl
    000005D0 21rD6r02         [10] 1716 	ld	hl, #_g_TeamGrayPos
    000005D3 19               [11] 1717 	add	hl, de
    000005D4 DD 75 FD         [19] 1718 	ld	-3 (ix), l
    000005D7 DD 74 FE         [19] 1719 	ld	-2 (ix), h
    000005DA 23               [ 6] 1720 	inc	hl
    000005DB 23               [ 6] 1721 	inc	hl
    000005DC 4D               [ 4] 1722 	ld	c, l
    000005DD 44               [ 4] 1723 	ld	b, h
    000005DE 0A               [ 7] 1724 	ld	a, (bc)
    000005DF DD 77 FF         [19] 1725 	ld	-1 (ix), a
    000005E2                       1726 00173$:
    000005E2 DD 6E FD         [19] 1727 	ld	l, -3 (ix)
                                   1728 ;	spillPairReg hl
                                   1729 ;	spillPairReg hl
    000005E5 DD 66 FE         [19] 1730 	ld	h, -2 (ix)
                                   1731 ;	spillPairReg hl
                                   1732 ;	spillPairReg hl
    000005E8 23               [ 6] 1733 	inc	hl
    000005E9 23               [ 6] 1734 	inc	hl
    000005EA 4E               [ 7] 1735 	ld	c, (hl)
    000005EB 23               [ 6] 1736 	inc	hl
    000005EC 46               [ 7] 1737 	ld	b, (hl)
    000005ED 21 09 00         [10] 1738 	ld	hl, #0x0009
    000005F0 09               [11] 1739 	add	hl, bc
    000005F1 EB               [ 4] 1740 	ex	de, hl
    000005F2 DD 6E FF         [19] 1741 	ld	l, -1 (ix)
                                   1742 ;	spillPairReg hl
                                   1743 ;	spillPairReg hl
                                   1744 ;	spillPairReg hl
                                   1745 ;	spillPairReg hl
    000005F5 AF               [ 4] 1746 	xor	a, a
    000005F6 67               [ 4] 1747 	ld	h, a
    000005F7 ED 52            [15] 1748 	sbc	hl, de
    000005F9 30 64            [12] 1749 	jr	NC, 00107$
                                   1750 ;E:\Dropbox\FAUSTO\SVILUPPI\MSX\CODE\C\MSXgl\projects\soccerlg/soccerlg_s4_b1.c:316: for(u8 x=g_TeamGrayPos[g_Team1PaletteId].x;x<g_TeamGrayPos[g_Team1PaletteId].x+10;x++){
    000005FB DD 6E FD         [19] 1751 	ld	l, -3 (ix)
    000005FE DD 66 FE         [19] 1752 	ld	h, -2 (ix)
    00000601 46               [ 7] 1753 	ld	b, (hl)
    00000602                       1754 00170$:
                                   1755 ;E:\Dropbox\FAUSTO\SVILUPPI\MSX\CODE\C\MSXgl\projects\soccerlg/soccerlg_s4_b1.c:315: for(u8 y=g_TeamGrayPos[g_Team1PaletteId].y;y<g_TeamGrayPos[g_Team1PaletteId].y+9;y++){
    00000602 3Ar00r00         [13] 1756 	ld	a, (_g_Team1PaletteId+0)
    00000605 6F               [ 4] 1757 	ld	l, a
                                   1758 ;	spillPairReg hl
                                   1759 ;	spillPairReg hl
    00000606 26 00            [ 7] 1760 	ld	h, #0x00
                                   1761 ;	spillPairReg hl
                                   1762 ;	spillPairReg hl
    00000608 29               [11] 1763 	add	hl, hl
    00000609 29               [11] 1764 	add	hl, hl
    0000060A 7D               [ 4] 1765 	ld	a, l
    0000060B C6rD6            [ 7] 1766 	add	a, #<(_g_TeamGrayPos)
    0000060D DD 77 FD         [19] 1767 	ld	-3 (ix), a
    00000610 7C               [ 4] 1768 	ld	a, h
    00000611 CEs02            [ 7] 1769 	adc	a, #>(_g_TeamGrayPos)
    00000613 DD 77 FE         [19] 1770 	ld	-2 (ix), a
                                   1771 ;E:\Dropbox\FAUSTO\SVILUPPI\MSX\CODE\C\MSXgl\projects\soccerlg/soccerlg_s4_b1.c:316: for(u8 x=g_TeamGrayPos[g_Team1PaletteId].x;x<g_TeamGrayPos[g_Team1PaletteId].x+10;x++){
    00000616 DD 6E FD         [19] 1772 	ld	l, -3 (ix)
    00000619 DD 66 FE         [19] 1773 	ld	h, -2 (ix)
    0000061C 5E               [ 7] 1774 	ld	e, (hl)
    0000061D 23               [ 6] 1775 	inc	hl
    0000061E 56               [ 7] 1776 	ld	d, (hl)
    0000061F 21 0A 00         [10] 1777 	ld	hl, #0x000a
    00000622 19               [11] 1778 	add	hl, de
    00000623 EB               [ 4] 1779 	ex	de, hl
    00000624 68               [ 4] 1780 	ld	l, b
                                   1781 ;	spillPairReg hl
                                   1782 ;	spillPairReg hl
                                   1783 ;	spillPairReg hl
                                   1784 ;	spillPairReg hl
    00000625 AF               [ 4] 1785 	xor	a, a
    00000626 67               [ 4] 1786 	ld	h, a
    00000627 ED 52            [15] 1787 	sbc	hl, de
    00000629 30 2E            [12] 1788 	jr	NC, 00174$
                                   1789 ;E:/Dropbox/FAUSTO/SVILUPPI/MSX/CODE/C/MSXgl/engine/src/v9990.h:1426: inline u32 V9_CellAddrP1A(u8 x, u8 y) { return V9_P1_PNT_A + (((64 * y) + x) * 2); }
    0000062B DD 6E FF         [19] 1790 	ld	l, -1 (ix)
                                   1791 ;	spillPairReg hl
                                   1792 ;	spillPairReg hl
    0000062E 26 00            [ 7] 1793 	ld	h, #0x00
                                   1794 ;	spillPairReg hl
                                   1795 ;	spillPairReg hl
    00000630 29               [11] 1796 	add	hl, hl
    00000631 29               [11] 1797 	add	hl, hl
    00000632 29               [11] 1798 	add	hl, hl
    00000633 29               [11] 1799 	add	hl, hl
    00000634 29               [11] 1800 	add	hl, hl
    00000635 29               [11] 1801 	add	hl, hl
    00000636 58               [ 4] 1802 	ld	e, b
    00000637 16 00            [ 7] 1803 	ld	d, #0x00
    00000639 19               [11] 1804 	add	hl, de
    0000063A 29               [11] 1805 	add	hl, hl
    0000063B 7C               [ 4] 1806 	ld	a, h
    0000063C 07               [ 4] 1807 	rlca
    0000063D 9F               [ 4] 1808 	sbc	a, a
    0000063E 5F               [ 4] 1809 	ld	e, a
    0000063F 57               [ 4] 1810 	ld	d, a
    00000640 7C               [ 4] 1811 	ld	a, h
    00000641 C6 C0            [ 7] 1812 	add	a, #0xc0
    00000643 67               [ 4] 1813 	ld	h, a
                                   1814 ;	spillPairReg hl
                                   1815 ;	spillPairReg hl
    00000644 7B               [ 4] 1816 	ld	a, e
    00000645 CE 07            [ 7] 1817 	adc	a, #0x07
    00000647 5F               [ 4] 1818 	ld	e, a
    00000648 30 01            [12] 1819 	jr	NC, 00374$
    0000064A 14               [ 4] 1820 	inc	d
    0000064B                       1821 00374$:
                                   1822 ;E:/Dropbox/FAUSTO/SVILUPPI/MSX/CODE/C/MSXgl/engine/src/v9990.h:396: inline void V9_Poke16(u32 addr, u16 val) { V9_SetWriteAddress(addr); V9_Poke16_CurrentAddr(val); }
    0000064B EB               [ 4] 1823 	ex	de, hl
    0000064C CDr00r00         [17] 1824 	call	_V9_SetWriteAddress
    0000064F 21 00 00         [10] 1825 	ld	hl, #0x0000
    00000652 CDr00r00         [17] 1826 	call	_V9_Poke16_CurrentAddr
                                   1827 ;E:\Dropbox\FAUSTO\SVILUPPI\MSX\CODE\C\MSXgl\projects\soccerlg/soccerlg_s4_b1.c:316: for(u8 x=g_TeamGrayPos[g_Team1PaletteId].x;x<g_TeamGrayPos[g_Team1PaletteId].x+10;x++){
    00000655 04               [ 4] 1828 	inc	b
    00000656 C3r02r06         [10] 1829 	jp	00170$
    00000659                       1830 00174$:
                                   1831 ;E:\Dropbox\FAUSTO\SVILUPPI\MSX\CODE\C\MSXgl\projects\soccerlg/soccerlg_s4_b1.c:315: for(u8 y=g_TeamGrayPos[g_Team1PaletteId].y;y<g_TeamGrayPos[g_Team1PaletteId].y+9;y++){
    00000659 DD 34 FF         [23] 1832 	inc	-1 (ix)
    0000065C C3rE2r05         [10] 1833 	jp	00173$
    0000065F                       1834 00107$:
                                   1835 ;E:\Dropbox\FAUSTO\SVILUPPI\MSX\CODE\C\MSXgl\projects\soccerlg/soccerlg_s4_b1.c:321: MenuSpriteBlinking();
    0000065F CDrEEr02         [17] 1836 	call	_MenuSpriteBlinking
                                   1837 ;E:\Dropbox\FAUSTO\SVILUPPI\MSX\CODE\C\MSXgl\projects\soccerlg/soccerlg_s4_b1.c:324: V9990_PrintLayerAStringAtPos(4,0,"     CPU TEAM SELECT   ");
    00000662 21r5Br08         [10] 1838 	ld	hl, #___str_1
    00000665 E5               [11] 1839 	push	hl
    00000666 2E 00            [ 7] 1840 	ld	l, #0x00
                                   1841 ;	spillPairReg hl
                                   1842 ;	spillPairReg hl
    00000668 3E 04            [ 7] 1843 	ld	a, #0x04
    0000066A CDr00r00         [17] 1844 	call	_V9990_PrintLayerAStringAtPos
                                   1845 ;E:\Dropbox\FAUSTO\SVILUPPI\MSX\CODE\C\MSXgl\projects\soccerlg/soccerlg_s4_b1.c:326: g_Team2PaletteId = SelectTeam(SPRITE_CPU, g_Team1PaletteId);
    0000066D 3Ar00r00         [13] 1846 	ld	a, (_g_Team1PaletteId+0)
    00000670 6F               [ 4] 1847 	ld	l, a
                                   1848 ;	spillPairReg hl
                                   1849 ;	spillPairReg hl
    00000671 3E F5            [ 7] 1850 	ld	a, #0xf5
    00000673 CDr00r00         [17] 1851 	call	_SelectTeam
                                   1852 ;E:\Dropbox\FAUSTO\SVILUPPI\MSX\CODE\C\MSXgl\projects\soccerlg/soccerlg_s4_b1.c:329: for(u8 y=g_TeamGrayPos[g_Team2PaletteId].y;y<g_TeamGrayPos[g_Team2PaletteId].y+9;y++){
    00000676 32r00r00         [13] 1853 	ld	(_g_Team2PaletteId+0), a
    00000679 26 00            [ 7] 1854 	ld	h, #0x00
                                   1855 ;	spillPairReg hl
                                   1856 ;	spillPairReg hl
    0000067B 6F               [ 4] 1857 	ld	l, a
                                   1858 ;	spillPairReg hl
                                   1859 ;	spillPairReg hl
    0000067C 29               [11] 1860 	add	hl, hl
    0000067D 29               [11] 1861 	add	hl, hl
    0000067E EB               [ 4] 1862 	ex	de,hl
    0000067F 21rD6r02         [10] 1863 	ld	hl, #_g_TeamGrayPos
    00000682 19               [11] 1864 	add	hl, de
    00000683 DD 75 FD         [19] 1865 	ld	-3 (ix), l
    00000686 DD 74 FE         [19] 1866 	ld	-2 (ix), h
    00000689 23               [ 6] 1867 	inc	hl
    0000068A 23               [ 6] 1868 	inc	hl
    0000068B 4D               [ 4] 1869 	ld	c, l
    0000068C 44               [ 4] 1870 	ld	b, h
    0000068D 0A               [ 7] 1871 	ld	a, (bc)
    0000068E DD 77 FF         [19] 1872 	ld	-1 (ix), a
    00000691                       1873 00179$:
    00000691 DD 6E FD         [19] 1874 	ld	l, -3 (ix)
                                   1875 ;	spillPairReg hl
                                   1876 ;	spillPairReg hl
    00000694 DD 66 FE         [19] 1877 	ld	h, -2 (ix)
                                   1878 ;	spillPairReg hl
                                   1879 ;	spillPairReg hl
    00000697 23               [ 6] 1880 	inc	hl
    00000698 23               [ 6] 1881 	inc	hl
    00000699 4E               [ 7] 1882 	ld	c, (hl)
    0000069A 23               [ 6] 1883 	inc	hl
    0000069B 46               [ 7] 1884 	ld	b, (hl)
    0000069C 21 09 00         [10] 1885 	ld	hl, #0x0009
    0000069F 09               [11] 1886 	add	hl, bc
    000006A0 EB               [ 4] 1887 	ex	de, hl
    000006A1 DD 6E FF         [19] 1888 	ld	l, -1 (ix)
                                   1889 ;	spillPairReg hl
                                   1890 ;	spillPairReg hl
                                   1891 ;	spillPairReg hl
                                   1892 ;	spillPairReg hl
    000006A4 AF               [ 4] 1893 	xor	a, a
    000006A5 67               [ 4] 1894 	ld	h, a
    000006A6 ED 52            [15] 1895 	sbc	hl, de
    000006A8 30 64            [12] 1896 	jr	NC, 00109$
                                   1897 ;E:\Dropbox\FAUSTO\SVILUPPI\MSX\CODE\C\MSXgl\projects\soccerlg/soccerlg_s4_b1.c:330: for(u8 x=g_TeamGrayPos[g_Team2PaletteId].x;x<g_TeamGrayPos[g_Team2PaletteId].x+10;x++){
    000006AA DD 6E FD         [19] 1898 	ld	l, -3 (ix)
    000006AD DD 66 FE         [19] 1899 	ld	h, -2 (ix)
    000006B0 46               [ 7] 1900 	ld	b, (hl)
    000006B1                       1901 00176$:
                                   1902 ;E:\Dropbox\FAUSTO\SVILUPPI\MSX\CODE\C\MSXgl\projects\soccerlg/soccerlg_s4_b1.c:329: for(u8 y=g_TeamGrayPos[g_Team2PaletteId].y;y<g_TeamGrayPos[g_Team2PaletteId].y+9;y++){
    000006B1 3Ar00r00         [13] 1903 	ld	a, (_g_Team2PaletteId+0)
    000006B4 6F               [ 4] 1904 	ld	l, a
                                   1905 ;	spillPairReg hl
                                   1906 ;	spillPairReg hl
    000006B5 26 00            [ 7] 1907 	ld	h, #0x00
                                   1908 ;	spillPairReg hl
                                   1909 ;	spillPairReg hl
    000006B7 29               [11] 1910 	add	hl, hl
    000006B8 29               [11] 1911 	add	hl, hl
    000006B9 7D               [ 4] 1912 	ld	a, l
    000006BA C6rD6            [ 7] 1913 	add	a, #<(_g_TeamGrayPos)
    000006BC DD 77 FD         [19] 1914 	ld	-3 (ix), a
    000006BF 7C               [ 4] 1915 	ld	a, h
    000006C0 CEs02            [ 7] 1916 	adc	a, #>(_g_TeamGrayPos)
    000006C2 DD 77 FE         [19] 1917 	ld	-2 (ix), a
                                   1918 ;E:\Dropbox\FAUSTO\SVILUPPI\MSX\CODE\C\MSXgl\projects\soccerlg/soccerlg_s4_b1.c:330: for(u8 x=g_TeamGrayPos[g_Team2PaletteId].x;x<g_TeamGrayPos[g_Team2PaletteId].x+10;x++){
    000006C5 DD 6E FD         [19] 1919 	ld	l, -3 (ix)
    000006C8 DD 66 FE         [19] 1920 	ld	h, -2 (ix)
    000006CB 5E               [ 7] 1921 	ld	e, (hl)
    000006CC 23               [ 6] 1922 	inc	hl
    000006CD 56               [ 7] 1923 	ld	d, (hl)
    000006CE 21 0A 00         [10] 1924 	ld	hl, #0x000a
    000006D1 19               [11] 1925 	add	hl, de
    000006D2 EB               [ 4] 1926 	ex	de, hl
    000006D3 68               [ 4] 1927 	ld	l, b
                                   1928 ;	spillPairReg hl
                                   1929 ;	spillPairReg hl
                                   1930 ;	spillPairReg hl
                                   1931 ;	spillPairReg hl
    000006D4 AF               [ 4] 1932 	xor	a, a
    000006D5 67               [ 4] 1933 	ld	h, a
    000006D6 ED 52            [15] 1934 	sbc	hl, de
    000006D8 30 2E            [12] 1935 	jr	NC, 00180$
                                   1936 ;E:/Dropbox/FAUSTO/SVILUPPI/MSX/CODE/C/MSXgl/engine/src/v9990.h:1426: inline u32 V9_CellAddrP1A(u8 x, u8 y) { return V9_P1_PNT_A + (((64 * y) + x) * 2); }
    000006DA DD 6E FF         [19] 1937 	ld	l, -1 (ix)
                                   1938 ;	spillPairReg hl
                                   1939 ;	spillPairReg hl
    000006DD 26 00            [ 7] 1940 	ld	h, #0x00
                                   1941 ;	spillPairReg hl
                                   1942 ;	spillPairReg hl
    000006DF 29               [11] 1943 	add	hl, hl
    000006E0 29               [11] 1944 	add	hl, hl
    000006E1 29               [11] 1945 	add	hl, hl
    000006E2 29               [11] 1946 	add	hl, hl
    000006E3 29               [11] 1947 	add	hl, hl
    000006E4 29               [11] 1948 	add	hl, hl
    000006E5 58               [ 4] 1949 	ld	e, b
    000006E6 16 00            [ 7] 1950 	ld	d, #0x00
    000006E8 19               [11] 1951 	add	hl, de
    000006E9 29               [11] 1952 	add	hl, hl
    000006EA 7C               [ 4] 1953 	ld	a, h
    000006EB 07               [ 4] 1954 	rlca
    000006EC 9F               [ 4] 1955 	sbc	a, a
    000006ED 5F               [ 4] 1956 	ld	e, a
    000006EE 57               [ 4] 1957 	ld	d, a
    000006EF 7C               [ 4] 1958 	ld	a, h
    000006F0 C6 C0            [ 7] 1959 	add	a, #0xc0
    000006F2 67               [ 4] 1960 	ld	h, a
                                   1961 ;	spillPairReg hl
                                   1962 ;	spillPairReg hl
    000006F3 7B               [ 4] 1963 	ld	a, e
    000006F4 CE 07            [ 7] 1964 	adc	a, #0x07
    000006F6 5F               [ 4] 1965 	ld	e, a
    000006F7 30 01            [12] 1966 	jr	NC, 00375$
    000006F9 14               [ 4] 1967 	inc	d
    000006FA                       1968 00375$:
                                   1969 ;E:/Dropbox/FAUSTO/SVILUPPI/MSX/CODE/C/MSXgl/engine/src/v9990.h:396: inline void V9_Poke16(u32 addr, u16 val) { V9_SetWriteAddress(addr); V9_Poke16_CurrentAddr(val); }
    000006FA EB               [ 4] 1970 	ex	de, hl
    000006FB CDr00r00         [17] 1971 	call	_V9_SetWriteAddress
    000006FE 21 00 00         [10] 1972 	ld	hl, #0x0000
    00000701 CDr00r00         [17] 1973 	call	_V9_Poke16_CurrentAddr
                                   1974 ;E:\Dropbox\FAUSTO\SVILUPPI\MSX\CODE\C\MSXgl\projects\soccerlg/soccerlg_s4_b1.c:330: for(u8 x=g_TeamGrayPos[g_Team2PaletteId].x;x<g_TeamGrayPos[g_Team2PaletteId].x+10;x++){
    00000704 04               [ 4] 1975 	inc	b
    00000705 C3rB1r06         [10] 1976 	jp	00176$
    00000708                       1977 00180$:
                                   1978 ;E:\Dropbox\FAUSTO\SVILUPPI\MSX\CODE\C\MSXgl\projects\soccerlg/soccerlg_s4_b1.c:329: for(u8 y=g_TeamGrayPos[g_Team2PaletteId].y;y<g_TeamGrayPos[g_Team2PaletteId].y+9;y++){
    00000708 DD 34 FF         [23] 1979 	inc	-1 (ix)
    0000070B C3r91r06         [10] 1980 	jp	00179$
    0000070E                       1981 00109$:
                                   1982 ;E:\Dropbox\FAUSTO\SVILUPPI\MSX\CODE\C\MSXgl\projects\soccerlg/soccerlg_s4_b1.c:336: MenuSpriteBlinking();
    0000070E CDrEEr02         [17] 1983 	call	_MenuSpriteBlinking
                                   1984 ;E:\Dropbox\FAUSTO\SVILUPPI\MSX\CODE\C\MSXgl\projects\soccerlg/soccerlg_s4_b1.c:339: attr.D = 1; 
    00000711 21 07 00         [10] 1985 	ld	hl, #7
    00000714 39               [11] 1986 	add	hl, sp
    00000715 CB E6            [15] 1987 	set	4, (hl)
                                   1988 ;E:\Dropbox\FAUSTO\SVILUPPI\MSX\CODE\C\MSXgl\projects\soccerlg/soccerlg_s4_b1.c:340: V9_SetSpriteP1(0, &attr);
                                   1989 ;E:/Dropbox/FAUSTO/SVILUPPI/MSX/CODE/C/MSXgl/engine/src/v9990.h:781: inline void V9_SetSpriteP1(u8 id, const V9_Sprite* attr) { V9_WriteVRAM(V9_P1_SPAT + (id * 4), (const u8*)attr, 4); }
                                   1990 ;E:/Dropbox/FAUSTO/SVILUPPI/MSX/CODE/C/MSXgl/engine/src/v9990.h:371: inline void V9_WriteVRAM(u32 addr, const u8* src, u16 count) { V9_SetWriteAddress(addr); V9_WriteVRAM_CurrentAddr(src, count); }
    00000717 11 00 FE         [10] 1991 	ld	de, #0xfe00
    0000071A 21 03 00         [10] 1992 	ld	hl, #0x0003
    0000071D CDr00r00         [17] 1993 	call	_V9_SetWriteAddress
    00000720 11 04 00         [10] 1994 	ld	de, #0x0004
    00000723 21 04 00         [10] 1995 	ld	hl, #4
    00000726 39               [11] 1996 	add	hl, sp
    00000727 CDr00r00         [17] 1997 	call	_V9_WriteVRAM_CurrentAddr
                                   1998 ;E:/Dropbox/FAUSTO/SVILUPPI/MSX/CODE/C/MSXgl/engine/src/v9990.h:258: inline void V9_SetFlag(u8 reg, u8 mask, u8 flag) { V9_SetRegister(reg, V9_GetRegister(reg) & (~mask) | flag); }
    0000072A 3E 08            [ 7] 1999 	ld	a, #0x08
    0000072C CDr00r00         [17] 2000 	call	_V9_GetRegister
    0000072F 6F               [ 4] 2001 	ld	l, a
                                   2002 ;	spillPairReg hl
                                   2003 ;	spillPairReg hl
    00000730 CB B5            [ 8] 2004 	res	6, l
    00000732 3E 08            [ 7] 2005 	ld	a, #0x08
    00000734 CDr00r00         [17] 2006 	call	_V9_SetRegister
    00000737 3E 08            [ 7] 2007 	ld	a, #0x08
    00000739 CDr00r00         [17] 2008 	call	_V9_GetRegister
    0000073C 6F               [ 4] 2009 	ld	l, a
                                   2010 ;	spillPairReg hl
                                   2011 ;	spillPairReg hl
    0000073D CB BD            [ 8] 2012 	res	7, l
    0000073F 3E 08            [ 7] 2013 	ld	a, #0x08
    00000741 CDr00r00         [17] 2014 	call	_V9_SetRegister
                                   2015 ;E:\Dropbox\FAUSTO\SVILUPPI\MSX\CODE\C\MSXgl\projects\soccerlg/soccerlg_s4_b1.c:349: if(g_ShowButtonsInfo){
    00000744 3Ar00r00         [13] 2016 	ld	a, (_g_ShowButtonsInfo+0)
    00000747 B7               [ 4] 2017 	or	a, a
    00000748 CAr0Ar08         [10] 2018 	jp	Z, 00116$
                                   2019 ;E:\Dropbox\FAUSTO\SVILUPPI\MSX\CODE\C\MSXgl\projects\soccerlg/soccerlg_s4_b1.c:350: g_ShowButtonsInfo=false;
    0000074B 21r00r00         [10] 2020 	ld	hl, #_g_ShowButtonsInfo
                                   2021 ;E:/Dropbox/FAUSTO/SVILUPPI/MSX/CODE/C/MSXgl/engine/src/v9990.h:353: inline void V9_FillVRAM(u32 addr, u8 value, u16 count) { V9_SetWriteAddress(addr); V9_FillVRAM_CurrentAddr(value, count); }
    0000074E 11 00 00         [10] 2022 	ld	de, #0x0000
    00000751 73               [ 7] 2023 	ld	(hl), e
    00000752 21 00 00         [10] 2024 	ld	hl, #0x0000
    00000755 CDr00r00         [17] 2025 	call	_V9_SetWriteAddress
    00000758 11 00 6A         [10] 2026 	ld	de, #0x6a00
    0000075B AF               [ 4] 2027 	xor	a, a
    0000075C CDr00r00         [17] 2028 	call	_V9_FillVRAM_CurrentAddr
                                   2029 ;E:\Dropbox\FAUSTO\SVILUPPI\MSX\CODE\C\MSXgl\projects\soccerlg/soccerlg_s4_b1.c:352: V9990_LoadButtonsImageData();
    0000075F CDr00r00         [17] 2030 	call	_V9990_LoadButtonsImageData
                                   2031 ;E:/Dropbox/FAUSTO/SVILUPPI/MSX/CODE/C/MSXgl/engine/src/v9990.h:1047: inline void V9_SelectPaletteP1(u8 a, u8 b) { V9_SetRegister(13, ((b & 0x3) << 2) + (a & 0x3)); }
    00000762 3E 01            [ 7] 2032 	ld	a, #0x01
    00000764 E6 03            [ 7] 2033 	and	a, #0x03
    00000766 87               [ 4] 2034 	add	a, a
    00000767 87               [ 4] 2035 	add	a, a
    00000768 4F               [ 4] 2036 	ld	c, a
    00000769 AF               [ 4] 2037 	xor	a, a
    0000076A E6 03            [ 7] 2038 	and	a, #0x03
    0000076C 81               [ 4] 2039 	add	a, c
    0000076D 6F               [ 4] 2040 	ld	l, a
                                   2041 ;	spillPairReg hl
                                   2042 ;	spillPairReg hl
    0000076E 3E 0D            [ 7] 2043 	ld	a, #0x0d
    00000770 CDr00r00         [17] 2044 	call	_V9_SetRegister
                                   2045 ;E:\Dropbox\FAUSTO\SVILUPPI\MSX\CODE\C\MSXgl\projects\soccerlg/soccerlg_s4_b1.c:354: u16 tileId=0;
    00000773 01 00 00         [10] 2046 	ld	bc, #0x0000
                                   2047 ;E:\Dropbox\FAUSTO\SVILUPPI\MSX\CODE\C\MSXgl\projects\soccerlg/soccerlg_s4_b1.c:356: for (u8 y=0;y<64;y++){
    00000776 DD 36 FE 00      [19] 2048 	ld	-2 (ix), #0x00
    0000077A                       2049 00185$:
    0000077A DD 7E FE         [19] 2050 	ld	a, -2 (ix)
    0000077D D6 40            [ 7] 2051 	sub	a, #0x40
    0000077F 30 4F            [12] 2052 	jr	NC, 00111$
                                   2053 ;E:\Dropbox\FAUSTO\SVILUPPI\MSX\CODE\C\MSXgl\projects\soccerlg/soccerlg_s4_b1.c:357: for (u8 x=0;x<32;x++){
    00000781 DD 36 FF 00      [19] 2054 	ld	-1 (ix), #0x00
    00000785                       2055 00182$:
    00000785 DD 7E FF         [19] 2056 	ld	a, -1 (ix)
    00000788 D6 20            [ 7] 2057 	sub	a, #0x20
    0000078A 30 3E            [12] 2058 	jr	NC, 00240$
                                   2059 ;E:\Dropbox\FAUSTO\SVILUPPI\MSX\CODE\C\MSXgl\projects\soccerlg/soccerlg_s4_b1.c:358: V9_Poke16(V9_CellAddrP1A(x,y), tileId++);
    0000078C DD 71 FC         [19] 2060 	ld	-4 (ix), c
    0000078F DD 70 FD         [19] 2061 	ld	-3 (ix), b
    00000792 03               [ 6] 2062 	inc	bc
                                   2063 ;E:/Dropbox/FAUSTO/SVILUPPI/MSX/CODE/C/MSXgl/engine/src/v9990.h:1426: inline u32 V9_CellAddrP1A(u8 x, u8 y) { return V9_P1_PNT_A + (((64 * y) + x) * 2); }
    00000793 DD 6E FE         [19] 2064 	ld	l, -2 (ix)
                                   2065 ;	spillPairReg hl
                                   2066 ;	spillPairReg hl
    00000796 26 00            [ 7] 2067 	ld	h, #0x00
                                   2068 ;	spillPairReg hl
                                   2069 ;	spillPairReg hl
    00000798 29               [11] 2070 	add	hl, hl
    00000799 29               [11] 2071 	add	hl, hl
    0000079A 29               [11] 2072 	add	hl, hl
    0000079B 29               [11] 2073 	add	hl, hl
    0000079C 29               [11] 2074 	add	hl, hl
    0000079D 29               [11] 2075 	add	hl, hl
    0000079E DD 5E FF         [19] 2076 	ld	e, -1 (ix)
    000007A1 16 00            [ 7] 2077 	ld	d, #0x00
    000007A3 19               [11] 2078 	add	hl, de
    000007A4 29               [11] 2079 	add	hl, hl
    000007A5 7C               [ 4] 2080 	ld	a, h
    000007A6 07               [ 4] 2081 	rlca
    000007A7 9F               [ 4] 2082 	sbc	a, a
    000007A8 5F               [ 4] 2083 	ld	e, a
    000007A9 57               [ 4] 2084 	ld	d, a
    000007AA 7C               [ 4] 2085 	ld	a, h
    000007AB C6 C0            [ 7] 2086 	add	a, #0xc0
    000007AD 67               [ 4] 2087 	ld	h, a
                                   2088 ;	spillPairReg hl
                                   2089 ;	spillPairReg hl
    000007AE 7B               [ 4] 2090 	ld	a, e
    000007AF CE 07            [ 7] 2091 	adc	a, #0x07
    000007B1 5F               [ 4] 2092 	ld	e, a
    000007B2 30 01            [12] 2093 	jr	NC, 00376$
    000007B4 14               [ 4] 2094 	inc	d
    000007B5                       2095 00376$:
                                   2096 ;E:/Dropbox/FAUSTO/SVILUPPI/MSX/CODE/C/MSXgl/engine/src/v9990.h:396: inline void V9_Poke16(u32 addr, u16 val) { V9_SetWriteAddress(addr); V9_Poke16_CurrentAddr(val); }
    000007B5 C5               [11] 2097 	push	bc
    000007B6 EB               [ 4] 2098 	ex	de, hl
    000007B7 CDr00r00         [17] 2099 	call	_V9_SetWriteAddress
    000007BA C1               [10] 2100 	pop	bc
    000007BB DD 6E FC         [19] 2101 	ld	l, -4 (ix)
                                   2102 ;	spillPairReg hl
                                   2103 ;	spillPairReg hl
    000007BE DD 66 FD         [19] 2104 	ld	h, -3 (ix)
                                   2105 ;	spillPairReg hl
                                   2106 ;	spillPairReg hl
    000007C1 CDr00r00         [17] 2107 	call	_V9_Poke16_CurrentAddr
                                   2108 ;E:\Dropbox\FAUSTO\SVILUPPI\MSX\CODE\C\MSXgl\projects\soccerlg/soccerlg_s4_b1.c:357: for (u8 x=0;x<32;x++){
    000007C4 DD 34 FF         [23] 2109 	inc	-1 (ix)
    000007C7 C3r85r07         [10] 2110 	jp	00182$
    000007CA                       2111 00240$:
                                   2112 ;E:\Dropbox\FAUSTO\SVILUPPI\MSX\CODE\C\MSXgl\projects\soccerlg/soccerlg_s4_b1.c:356: for (u8 y=0;y<64;y++){
    000007CA DD 34 FE         [23] 2113 	inc	-2 (ix)
    000007CD C3r7Ar07         [10] 2114 	jp	00185$
    000007D0                       2115 00111$:
                                   2116 ;E:/Dropbox/FAUSTO/SVILUPPI/MSX/CODE/C/MSXgl/engine/src/v9990.h:574: inline void V9_SetInterrupt(u8 flags) { V9_SetRegister(9, flags); }
    000007D0 2E 01            [ 7] 2117 	ld	l, #0x01
                                   2118 ;	spillPairReg hl
                                   2119 ;	spillPairReg hl
    000007D2 3E 09            [ 7] 2120 	ld	a, #0x09
    000007D4 CDr00r00         [17] 2121 	call	_V9_SetRegister
                                   2122 ;E:/Dropbox/FAUSTO/SVILUPPI/MSX/CODE/C/MSXgl/engine/src/v9990.h:258: inline void V9_SetFlag(u8 reg, u8 mask, u8 flag) { V9_SetRegister(reg, V9_GetRegister(reg) & (~mask) | flag); }
    000007D7 3E 08            [ 7] 2123 	ld	a, #0x08
    000007D9 CDr00r00         [17] 2124 	call	_V9_GetRegister
    000007DC CB BF            [ 8] 2125 	res	7, a
    000007DE 6F               [ 4] 2126 	ld	l, a
                                   2127 ;	spillPairReg hl
                                   2128 ;	spillPairReg hl
    000007DF CB FD            [ 8] 2129 	set	7, l
    000007E1 3E 08            [ 7] 2130 	ld	a, #0x08
    000007E3 CDr00r00         [17] 2131 	call	_V9_SetRegister
                                   2132 ;E:\Dropbox\FAUSTO\SVILUPPI\MSX\CODE\C\MSXgl\projects\soccerlg/soccerlg_s4_b1.c:363: bool joyTriggered=FALSE;
    000007E6 0E 00            [ 7] 2133 	ld	c, #0x00
                                   2134 ;E:\Dropbox\FAUSTO\SVILUPPI\MSX\CODE\C\MSXgl\projects\soccerlg/soccerlg_s4_b1.c:364: while(!joyTriggered){
    000007E8                       2135 00112$:
    000007E8 79               [ 4] 2136 	ld	a, c
    000007E9 B7               [ 4] 2137 	or	a, a
    000007EA 20 11            [12] 2138 	jr	NZ, 00199$
                                   2139 ;E:\Dropbox\FAUSTO\SVILUPPI\MSX\CODE\C\MSXgl\projects\soccerlg/soccerlg_s4_b1.c:365: joyTriggered=Trampoline_U8(2,IsTeamJoystickTriggerPressed);
    000007EC 11r00r00         [10] 2140 	ld	de, #_IsTeamJoystickTriggerPressed
    000007EF 3E 02            [ 7] 2141 	ld	a, #0x02
    000007F1 CDr00r00         [17] 2142 	call	_Trampoline_U8
    000007F4 4F               [ 4] 2143 	ld	c, a
                                   2144 ;E:\Dropbox\FAUSTO\SVILUPPI\MSX\CODE\C\MSXgl\projects\soccerlg/soccerlg_s4_b1.c:366: V9990_WaitSynch();
    000007F5 C5               [11] 2145 	push	bc
    000007F6 CDr00r00         [17] 2146 	call	_V9990_WaitSynch
    000007F9 C1               [10] 2147 	pop	bc
    000007FA C3rE8r07         [10] 2148 	jp	00112$
                                   2149 ;E:/Dropbox/FAUSTO/SVILUPPI/MSX/CODE/C/MSXgl/engine/src/v9990.h:473: inline void V9_SetDisplayEnable(bool enable) { V9_SetFlag(8, V9_R08_DISP_ON, enable ? V9_R08_DISP_ON : 0); }
    000007FD                       2150 00199$:
                                   2151 ;E:/Dropbox/FAUSTO/SVILUPPI/MSX/CODE/C/MSXgl/engine/src/v9990.h:258: inline void V9_SetFlag(u8 reg, u8 mask, u8 flag) { V9_SetRegister(reg, V9_GetRegister(reg) & (~mask) | flag); }
    000007FD 3E 08            [ 7] 2152 	ld	a, #0x08
    000007FF CDr00r00         [17] 2153 	call	_V9_GetRegister
    00000802 6F               [ 4] 2154 	ld	l, a
                                   2155 ;	spillPairReg hl
                                   2156 ;	spillPairReg hl
    00000803 CB BD            [ 8] 2157 	res	7, l
    00000805 3E 08            [ 7] 2158 	ld	a, #0x08
    00000807 CDr00r00         [17] 2159 	call	_V9_SetRegister
                                   2160 ;E:\Dropbox\FAUSTO\SVILUPPI\MSX\CODE\C\MSXgl\projects\soccerlg/soccerlg_s4_b1.c:369: V9_SetDisplayEnable(FALSE);
    0000080A                       2161 00116$:
                                   2162 ;E:\Dropbox\FAUSTO\SVILUPPI\MSX\CODE\C\MSXgl\projects\soccerlg/soccerlg_s4_b1.c:371: VGM_Stop();
    0000080A CDr00r00         [17] 2163 	call	_VGM_Stop
                                   2164 ;E:\Dropbox\FAUSTO\SVILUPPI\MSX\CODE\C\MSXgl\projects\soccerlg/soccerlg_s4_b1.c:372: PSG_Mute();
    0000080D CDr00r00         [17] 2165 	call	_PSG_Mute
                                   2166 ;E:\Dropbox\FAUSTO\SVILUPPI\MSX\CODE\C\MSXgl\projects\soccerlg/soccerlg_s4_b1.c:373: g_MatchStatus=MATCH_NOT_STARTED;
    00000810 21r00r00         [10] 2167 	ld	hl, #_g_MatchStatus
    00000813 36 00            [10] 2168 	ld	(hl), #0x00
                                   2169 ;E:\Dropbox\FAUSTO\SVILUPPI\MSX\CODE\C\MSXgl\projects\soccerlg/soccerlg_s4_b1.c:377: V9990_LoadP1LayerA();
    00000815 CDr00r00         [17] 2170 	call	_V9990_LoadP1LayerA
                                   2171 ;E:\Dropbox\FAUSTO\SVILUPPI\MSX\CODE\C\MSXgl\projects\soccerlg/soccerlg_s4_b1.c:378: V9990_LoadP1LayerB();
    00000818 CDr00r00         [17] 2172 	call	_V9990_LoadP1LayerB
                                   2173 ;E:\Dropbox\FAUSTO\SVILUPPI\MSX\CODE\C\MSXgl\projects\soccerlg/soccerlg_s4_b1.c:382: Trampoline_VOID(3,V9990_InitPalette);
    0000081B 11r00r00         [10] 2174 	ld	de, #_V9990_InitPalette
    0000081E 3E 03            [ 7] 2175 	ld	a, #0x03
    00000820 CDr00r00         [17] 2176 	call	_Trampoline_VOID
                                   2177 ;E:\Dropbox\FAUSTO\SVILUPPI\MSX\CODE\C\MSXgl\projects\soccerlg/soccerlg_s4_b1.c:385: ShowField();
    00000823 CDrDFr2A         [17] 2178 	call	_ShowField
                                   2179 ;E:/Dropbox/FAUSTO/SVILUPPI/MSX/CODE/C/MSXgl/engine/src/v9990.h:258: inline void V9_SetFlag(u8 reg, u8 mask, u8 flag) { V9_SetRegister(reg, V9_GetRegister(reg) & (~mask) | flag); }
    00000826 3E 08            [ 7] 2180 	ld	a, #0x08
    00000828 CDr00r00         [17] 2181 	call	_V9_GetRegister
    0000082B CB BF            [ 8] 2182 	res	7, a
    0000082D 6F               [ 4] 2183 	ld	l, a
                                   2184 ;	spillPairReg hl
                                   2185 ;	spillPairReg hl
    0000082E CB FD            [ 8] 2186 	set	7, l
    00000830 3E 08            [ 7] 2187 	ld	a, #0x08
    00000832 CDr00r00         [17] 2188 	call	_V9_SetRegister
                                   2189 ;E:/Dropbox/FAUSTO/SVILUPPI/MSX/CODE/C/MSXgl/engine/src/v9990.h:574: inline void V9_SetInterrupt(u8 flags) { V9_SetRegister(9, flags); }
    00000835 2E 01            [ 7] 2190 	ld	l, #0x01
                                   2191 ;	spillPairReg hl
                                   2192 ;	spillPairReg hl
    00000837 3E 09            [ 7] 2193 	ld	a, #0x09
    00000839 CDr00r00         [17] 2194 	call	_V9_SetRegister
                                   2195 ;E:\Dropbox\FAUSTO\SVILUPPI\MSX\CODE\C\MSXgl\projects\soccerlg/soccerlg_s4_b1.c:392: GameStart();
    0000083C CDr08r09         [17] 2196 	call	_GameStart
                                   2197 ;E:\Dropbox\FAUSTO\SVILUPPI\MSX\CODE\C\MSXgl\projects\soccerlg/soccerlg_s4_b1.c:393: }
    0000083F DD F9            [10] 2198 	ld	sp, ix
    00000841 DD E1            [14] 2199 	pop	ix
    00000843 C9               [10] 2200 	ret
    00000844                       2201 ___str_0:
    00000844 20 20 20 20 50 4C 41  2202 	.ascii "    PLAYER TEAM SELECT"
             59 45 52 20 54 45 41
             4D 20 53 45 4C 45 43
             54
    0000085A 00                    2203 	.db 0x00
    0000085B                       2204 ___str_1:
    0000085B 20 20 20 20 20 43 50  2205 	.ascii "     CPU TEAM SELECT   "
             55 20 54 45 41 4D 20
             53 45 4C 45 43 54 20
             20 20
    00000872 00                    2206 	.db 0x00
                                   2207 ;E:\Dropbox\FAUSTO\SVILUPPI\MSX\CODE\C\MSXgl\projects\soccerlg/soccerlg_s4_b1.c:395: void SetTeam1Palette(){
                                   2208 ;	---------------------------------
                                   2209 ; Function SetTeam1Palette
                                   2210 ; ---------------------------------
    00000873                       2211 _SetTeam1Palette::
                                   2212 ;E:\Dropbox\FAUSTO\SVILUPPI\MSX\CODE\C\MSXgl\projects\soccerlg/soccerlg_s4_b1.c:396: V9_SetPalette(32, 16, GetTeamPaletteById(g_Team1PaletteId));
    00000873 3Ar00r00         [13] 2213 	ld	a, (_g_Team1PaletteId+0)
    00000876 CDrCDr08         [17] 2214 	call	_GetTeamPaletteById
    00000879 EB               [ 4] 2215 	ex	de, hl
                                   2216 ;E:\Dropbox\FAUSTO\SVILUPPI\MSX\CODE\C\MSXgl\projects\soccerlg/soccerlg_s4_b1.c:1028: // Skip auto-targeting during set pieces (Manual selection rules)
    0000087A 01 20 00         [10] 2217 	ld	bc, #0x20
    0000087D                       2218 00104$:
    0000087D 78               [ 4] 2219 	ld	a, b
    0000087E D6 10            [ 7] 2220 	sub	a, #0x10
    00000880 D0               [11] 2221 	ret	NC
    00000881 FD E5            [15] 2222 	push	iy
    00000883 E3               [19] 2223 	ex	(sp), hl
    00000884 69               [ 4] 2224 	ld	l, c
                                   2225 ;	spillPairReg hl
                                   2226 ;	spillPairReg hl
    00000885 E3               [19] 2227 	ex	(sp), hl
    00000886 FD E1            [14] 2228 	pop	iy
    00000888 0C               [ 4] 2229 	inc	c
    00000889 E5               [11] 2230 	push	hl
    0000088A C5               [11] 2231 	push	bc
    0000088B 5D               [ 4] 2232 	ld	e, l
    0000088C 54               [ 4] 2233 	ld	d, h
    0000088D FD E5            [15] 2234 	push	iy
    0000088F E3               [19] 2235 	ex	(sp), hl
    00000890 7D               [ 4] 2236 	ld	a, l
    00000891 E3               [19] 2237 	ex	(sp), hl
    00000892 FD E1            [14] 2238 	pop	iy
    00000894 CDr00r00         [17] 2239 	call	_V9_SetPaletteEntry
    00000897 C1               [10] 2240 	pop	bc
    00000898 E1               [10] 2241 	pop	hl
    00000899 23               [ 6] 2242 	inc	hl
    0000089A 23               [ 6] 2243 	inc	hl
    0000089B 23               [ 6] 2244 	inc	hl
    0000089C 04               [ 4] 2245 	inc	b
                                   2246 ;E:\Dropbox\FAUSTO\SVILUPPI\MSX\CODE\C\MSXgl\projects\soccerlg/soccerlg_s4_b1.c:396: V9_SetPalette(32, 16, GetTeamPaletteById(g_Team1PaletteId));
                                   2247 ;E:\Dropbox\FAUSTO\SVILUPPI\MSX\CODE\C\MSXgl\projects\soccerlg/soccerlg_s4_b1.c:397: }
    0000089D C3r7Dr08         [10] 2248 	jp	00104$
                                   2249 ;E:\Dropbox\FAUSTO\SVILUPPI\MSX\CODE\C\MSXgl\projects\soccerlg/soccerlg_s4_b1.c:399: void SetTeam2Palette(){
                                   2250 ;	---------------------------------
                                   2251 ; Function SetTeam2Palette
                                   2252 ; ---------------------------------
    000008A0                       2253 _SetTeam2Palette::
                                   2254 ;E:\Dropbox\FAUSTO\SVILUPPI\MSX\CODE\C\MSXgl\projects\soccerlg/soccerlg_s4_b1.c:400: V9_SetPalette(48, 16, GetTeamPaletteById(g_Team2PaletteId));
    000008A0 3Ar00r00         [13] 2255 	ld	a, (_g_Team2PaletteId+0)
    000008A3 CDrCDr08         [17] 2256 	call	_GetTeamPaletteById
    000008A6 EB               [ 4] 2257 	ex	de, hl
                                   2258 ;E:\Dropbox\FAUSTO\SVILUPPI\MSX\CODE\C\MSXgl\projects\soccerlg/soccerlg_s4_b1.c:1028: // Skip auto-targeting during set pieces (Manual selection rules)
    000008A7 01 30 00         [10] 2259 	ld	bc, #0x30
    000008AA                       2260 00104$:
    000008AA 78               [ 4] 2261 	ld	a, b
    000008AB D6 10            [ 7] 2262 	sub	a, #0x10
    000008AD D0               [11] 2263 	ret	NC
    000008AE FD E5            [15] 2264 	push	iy
    000008B0 E3               [19] 2265 	ex	(sp), hl
    000008B1 69               [ 4] 2266 	ld	l, c
                                   2267 ;	spillPairReg hl
                                   2268 ;	spillPairReg hl
    000008B2 E3               [19] 2269 	ex	(sp), hl
    000008B3 FD E1            [14] 2270 	pop	iy
    000008B5 0C               [ 4] 2271 	inc	c
    000008B6 E5               [11] 2272 	push	hl
    000008B7 C5               [11] 2273 	push	bc
    000008B8 5D               [ 4] 2274 	ld	e, l
    000008B9 54               [ 4] 2275 	ld	d, h
    000008BA FD E5            [15] 2276 	push	iy
    000008BC E3               [19] 2277 	ex	(sp), hl
    000008BD 7D               [ 4] 2278 	ld	a, l
    000008BE E3               [19] 2279 	ex	(sp), hl
    000008BF FD E1            [14] 2280 	pop	iy
    000008C1 CDr00r00         [17] 2281 	call	_V9_SetPaletteEntry
    000008C4 C1               [10] 2282 	pop	bc
    000008C5 E1               [10] 2283 	pop	hl
    000008C6 23               [ 6] 2284 	inc	hl
    000008C7 23               [ 6] 2285 	inc	hl
    000008C8 23               [ 6] 2286 	inc	hl
    000008C9 04               [ 4] 2287 	inc	b
                                   2288 ;E:\Dropbox\FAUSTO\SVILUPPI\MSX\CODE\C\MSXgl\projects\soccerlg/soccerlg_s4_b1.c:400: V9_SetPalette(48, 16, GetTeamPaletteById(g_Team2PaletteId));
                                   2289 ;E:\Dropbox\FAUSTO\SVILUPPI\MSX\CODE\C\MSXgl\projects\soccerlg/soccerlg_s4_b1.c:401: }
    000008CA C3rAAr08         [10] 2290 	jp	00104$
                                   2291 ;E:\Dropbox\FAUSTO\SVILUPPI\MSX\CODE\C\MSXgl\projects\soccerlg/soccerlg_s4_b1.c:403: const u16* GetTeamPaletteById(u8 id){
                                   2292 ;	---------------------------------
                                   2293 ; Function GetTeamPaletteById
                                   2294 ; ---------------------------------
    000008CD                       2295 _GetTeamPaletteById::
    000008CD 4F               [ 4] 2296 	ld	c, a
                                   2297 ;E:\Dropbox\FAUSTO\SVILUPPI\MSX\CODE\C\MSXgl\projects\soccerlg/soccerlg_s4_b1.c:404: const u16* palette=g_Data_Palette_Team_ITA;
    000008CE 11r9Er01         [10] 2298 	ld	de, #_g_Data_Palette_Team_ITA
                                   2299 ;E:\Dropbox\FAUSTO\SVILUPPI\MSX\CODE\C\MSXgl\projects\soccerlg/soccerlg_s4_b1.c:405: switch (id){
    000008D1 3E 05            [ 7] 2300 	ld	a, #0x05
    000008D3 91               [ 4] 2301 	sub	a, c
    000008D4 D8               [11] 2302 	ret	C
    000008D5 06 00            [ 7] 2303 	ld	b, #0x00
    000008D7 21rDEr08         [10] 2304 	ld	hl, #00115$
    000008DA 09               [11] 2305 	add	hl, bc
    000008DB 09               [11] 2306 	add	hl, bc
    000008DC 09               [11] 2307 	add	hl, bc
    000008DD E9               [ 4] 2308 	jp	(hl)
    000008DE                       2309 00115$:
    000008DE C3rF0r08         [10] 2310 	jp	00101$
    000008E1 C3r00r09         [10] 2311 	jp	00105$
    000008E4 C3rF8r08         [10] 2312 	jp	00103$
    000008E7 C3rF4r08         [10] 2313 	jp	00102$
    000008EA C3r04r09         [10] 2314 	jp	00106$
    000008ED C3rFCr08         [10] 2315 	jp	00104$
                                   2316 ;E:\Dropbox\FAUSTO\SVILUPPI\MSX\CODE\C\MSXgl\projects\soccerlg/soccerlg_s4_b1.c:406: case TEAM_AUS:
    000008F0                       2317 00101$:
                                   2318 ;E:\Dropbox\FAUSTO\SVILUPPI\MSX\CODE\C\MSXgl\projects\soccerlg/soccerlg_s4_b1.c:407: palette=g_Data_Palette_Team_AUS;
    000008F0 11rCEr01         [10] 2319 	ld	de, #_g_Data_Palette_Team_AUS
                                   2320 ;E:\Dropbox\FAUSTO\SVILUPPI\MSX\CODE\C\MSXgl\projects\soccerlg/soccerlg_s4_b1.c:408: break; 
    000008F3 C9               [10] 2321 	ret
                                   2322 ;E:\Dropbox\FAUSTO\SVILUPPI\MSX\CODE\C\MSXgl\projects\soccerlg/soccerlg_s4_b1.c:409: case TEAM_BRA:
    000008F4                       2323 00102$:
                                   2324 ;E:\Dropbox\FAUSTO\SVILUPPI\MSX\CODE\C\MSXgl\projects\soccerlg/soccerlg_s4_b1.c:410: palette=g_Data_Palette_Team_BRA;
    000008F4 11r8Er02         [10] 2325 	ld	de, #_g_Data_Palette_Team_BRA
                                   2326 ;E:\Dropbox\FAUSTO\SVILUPPI\MSX\CODE\C\MSXgl\projects\soccerlg/soccerlg_s4_b1.c:411: break;
    000008F7 C9               [10] 2327 	ret
                                   2328 ;E:\Dropbox\FAUSTO\SVILUPPI\MSX\CODE\C\MSXgl\projects\soccerlg/soccerlg_s4_b1.c:412: case TEAM_ITA:
    000008F8                       2329 00103$:
                                   2330 ;E:\Dropbox\FAUSTO\SVILUPPI\MSX\CODE\C\MSXgl\projects\soccerlg/soccerlg_s4_b1.c:413: palette=g_Data_Palette_Team_ITA;
    000008F8 11r9Er01         [10] 2331 	ld	de, #_g_Data_Palette_Team_ITA
                                   2332 ;E:\Dropbox\FAUSTO\SVILUPPI\MSX\CODE\C\MSXgl\projects\soccerlg/soccerlg_s4_b1.c:414: break;
    000008FB C9               [10] 2333 	ret
                                   2334 ;E:\Dropbox\FAUSTO\SVILUPPI\MSX\CODE\C\MSXgl\projects\soccerlg/soccerlg_s4_b1.c:415: case TEAM_GBR:
    000008FC                       2335 00104$:
                                   2336 ;E:\Dropbox\FAUSTO\SVILUPPI\MSX\CODE\C\MSXgl\projects\soccerlg/soccerlg_s4_b1.c:416: palette=g_Data_Palette_Team_GBR;
    000008FC 11r5Er02         [10] 2337 	ld	de, #_g_Data_Palette_Team_GBR
                                   2338 ;E:\Dropbox\FAUSTO\SVILUPPI\MSX\CODE\C\MSXgl\projects\soccerlg/soccerlg_s4_b1.c:417: break;
    000008FF C9               [10] 2339 	ret
                                   2340 ;E:\Dropbox\FAUSTO\SVILUPPI\MSX\CODE\C\MSXgl\projects\soccerlg/soccerlg_s4_b1.c:418: case TEAM_GER:
    00000900                       2341 00105$:
                                   2342 ;E:\Dropbox\FAUSTO\SVILUPPI\MSX\CODE\C\MSXgl\projects\soccerlg/soccerlg_s4_b1.c:419: palette=g_Data_Palette_Team_GER;
    00000900 11r2Er02         [10] 2343 	ld	de, #_g_Data_Palette_Team_GER
                                   2344 ;E:\Dropbox\FAUSTO\SVILUPPI\MSX\CODE\C\MSXgl\projects\soccerlg/soccerlg_s4_b1.c:420: break;
    00000903 C9               [10] 2345 	ret
                                   2346 ;E:\Dropbox\FAUSTO\SVILUPPI\MSX\CODE\C\MSXgl\projects\soccerlg/soccerlg_s4_b1.c:421: case TEAM_FRA:
    00000904                       2347 00106$:
                                   2348 ;E:\Dropbox\FAUSTO\SVILUPPI\MSX\CODE\C\MSXgl\projects\soccerlg/soccerlg_s4_b1.c:422: palette=g_Data_Palette_Team_FRA;
    00000904 11rFEr01         [10] 2349 	ld	de, #_g_Data_Palette_Team_FRA
                                   2350 ;E:\Dropbox\FAUSTO\SVILUPPI\MSX\CODE\C\MSXgl\projects\soccerlg/soccerlg_s4_b1.c:424: }
                                   2351 ;E:\Dropbox\FAUSTO\SVILUPPI\MSX\CODE\C\MSXgl\projects\soccerlg/soccerlg_s4_b1.c:425: return palette;
                                   2352 ;E:\Dropbox\FAUSTO\SVILUPPI\MSX\CODE\C\MSXgl\projects\soccerlg/soccerlg_s4_b1.c:426: }
    00000907 C9               [10] 2353 	ret
                                   2354 ;E:\Dropbox\FAUSTO\SVILUPPI\MSX\CODE\C\MSXgl\projects\soccerlg/soccerlg_s4_b1.c:428: void GameStart(){
                                   2355 ;	---------------------------------
                                   2356 ; Function GameStart
                                   2357 ; ---------------------------------
    00000908                       2358 _GameStart::
                                   2359 ;E:\Dropbox\FAUSTO\SVILUPPI\MSX\CODE\C\MSXgl\projects\soccerlg/soccerlg_s4_b1.c:429: g_PcmStartPlaying=FALSE;
    00000908 21r00r00         [10] 2360 	ld	hl, #_g_PcmStartPlaying
    0000090B 36 00            [10] 2361 	ld	(hl), #0x00
                                   2362 ;E:\Dropbox\FAUSTO\SVILUPPI\MSX\CODE\C\MSXgl\projects\soccerlg/soccerlg_s4_b1.c:430: g_PmcSoundPlaying=NO_VALUE;
    0000090D 21r00r00         [10] 2363 	ld	hl, #_g_PmcSoundPlaying
    00000910 36 FF            [10] 2364 	ld	(hl), #0xff
                                   2365 ;E:\Dropbox\FAUSTO\SVILUPPI\MSX\CODE\C\MSXgl\projects\soccerlg/soccerlg_s4_b1.c:431: g_PassTargetPlayer=NO_VALUE;
    00000912 21r00r00         [10] 2366 	ld	hl, #_g_PassTargetPlayer
    00000915 36 FF            [10] 2367 	ld	(hl), #0xff
                                   2368 ;E:\Dropbox\FAUSTO\SVILUPPI\MSX\CODE\C\MSXgl\projects\soccerlg/soccerlg_s4_b1.c:432: g_Team1ActivePlayer=NO_VALUE;
    00000917 21r00r00         [10] 2369 	ld	hl, #_g_Team1ActivePlayer
    0000091A 36 FF            [10] 2370 	ld	(hl), #0xff
                                   2371 ;E:/Dropbox/FAUSTO/SVILUPPI/MSX/CODE/C/MSXgl/engine/src/v9990.h:258: inline void V9_SetFlag(u8 reg, u8 mask, u8 flag) { V9_SetRegister(reg, V9_GetRegister(reg) & (~mask) | flag); }
    0000091C 3E 08            [ 7] 2372 	ld	a, #0x08
    0000091E CDr00r00         [17] 2373 	call	_V9_GetRegister
    00000921 6F               [ 4] 2374 	ld	l, a
                                   2375 ;	spillPairReg hl
                                   2376 ;	spillPairReg hl
    00000922 CB BD            [ 8] 2377 	res	7, l
    00000924 3E 08            [ 7] 2378 	ld	a, #0x08
    00000926 CDr00r00         [17] 2379 	call	_V9_SetRegister
                                   2380 ;E:\Dropbox\FAUSTO\SVILUPPI\MSX\CODE\C\MSXgl\projects\soccerlg/soccerlg_s4_b1.c:434: g_SecondsToEndOfMatch=MATCH_DURATION;
    00000929 21r00r00         [10] 2381 	ld	hl, #_g_SecondsToEndOfMatch
    0000092C 36 78            [10] 2382 	ld	(hl), #0x78
                                   2383 ;E:\Dropbox\FAUSTO\SVILUPPI\MSX\CODE\C\MSXgl\projects\soccerlg/soccerlg_s4_b1.c:435: g_RestartKickTeamId=TEAM_1;
    0000092E 21r00r00         [10] 2384 	ld	hl, #_g_RestartKickTeamId
    00000931 36 01            [10] 2385 	ld	(hl), #0x01
                                   2386 ;E:\Dropbox\FAUSTO\SVILUPPI\MSX\CODE\C\MSXgl\projects\soccerlg/soccerlg_s4_b1.c:436: g_FieldScrollSpeed=FIELD_SCROLL_PRESENTATION_SPEED;
    00000933 21r00r00         [10] 2387 	ld	hl, #_g_FieldScrollSpeed
    00000936 36 01            [10] 2388 	ld	(hl), #0x01
                                   2389 ;E:\Dropbox\FAUSTO\SVILUPPI\MSX\CODE\C\MSXgl\projects\soccerlg/soccerlg_s4_b1.c:437: g_FieldScrollingActionInProgress=NO_VALUE;
    00000938 21r00r00         [10] 2390 	ld	hl, #_g_FieldScrollingActionInProgress
    0000093B 36 FF            [10] 2391 	ld	(hl), #0xff
                                   2392 ;E:\Dropbox\FAUSTO\SVILUPPI\MSX\CODE\C\MSXgl\projects\soccerlg/soccerlg_s4_b1.c:438: g_FieldCurrentYPosition=FIELD_TOP_Y;
    0000093D 21 01 00         [10] 2393 	ld	hl, #0x0001
    00000940 22r00r00         [16] 2394 	ld	(_g_FieldCurrentYPosition), hl
                                   2395 ;E:\Dropbox\FAUSTO\SVILUPPI\MSX\CODE\C\MSXgl\projects\soccerlg/soccerlg_s4_b1.c:439: g_Team1Score=0;
    00000943 AF               [ 4] 2396 	xor	a, a
    00000944 32r00r00         [13] 2397 	ld	(#_g_Team1Score), a
                                   2398 ;E:\Dropbox\FAUSTO\SVILUPPI\MSX\CODE\C\MSXgl\projects\soccerlg/soccerlg_s4_b1.c:440: g_Team2Score=0;
    00000947 AF               [ 4] 2399 	xor	a, a
    00000948 32r00r00         [13] 2400 	ld	(#_g_Team2Score), a
                                   2401 ;E:\Dropbox\FAUSTO\SVILUPPI\MSX\CODE\C\MSXgl\projects\soccerlg/soccerlg_s4_b1.c:441: V9_SetScrollingY(0);
    0000094B 6C               [ 4] 2402 	ld	l, h
    0000094C CDr00r00         [17] 2403 	call	_V9_SetScrollingY
                                   2404 ;E:\Dropbox\FAUSTO\SVILUPPI\MSX\CODE\C\MSXgl\projects\soccerlg/soccerlg_s4_b1.c:442: V9_SetScrollingBY(1);
    0000094F 21 01 00         [10] 2405 	ld	hl, #0x0001
    00000952 CDr00r00         [17] 2406 	call	_V9_SetScrollingBY
                                   2407 ;E:\Dropbox\FAUSTO\SVILUPPI\MSX\CODE\C\MSXgl\projects\soccerlg/soccerlg_s4_b1.c:443: SetTeam1Palette();
    00000955 CDr73r08         [17] 2408 	call	_SetTeam1Palette
                                   2409 ;E:\Dropbox\FAUSTO\SVILUPPI\MSX\CODE\C\MSXgl\projects\soccerlg/soccerlg_s4_b1.c:444: SetTeam2Palette();
    00000958 CDrA0r08         [17] 2410 	call	_SetTeam2Palette
                                   2411 ;E:\Dropbox\FAUSTO\SVILUPPI\MSX\CODE\C\MSXgl\projects\soccerlg/soccerlg_s4_b1.c:445: SetTeamsPresentationSpritesPosition();
    0000095B CDrB7r27         [17] 2412 	call	_SetTeamsPresentationSpritesPosition
                                   2413 ;E:\Dropbox\FAUSTO\SVILUPPI\MSX\CODE\C\MSXgl\projects\soccerlg/soccerlg_s4_b1.c:446: g_FieldScrollingActionInProgress=FIELD_CENTRAL_ZONE;
    0000095E 21r00r00         [10] 2414 	ld	hl, #_g_FieldScrollingActionInProgress
    00000961 36 01            [10] 2415 	ld	(hl), #0x01
                                   2416 ;E:\Dropbox\FAUSTO\SVILUPPI\MSX\CODE\C\MSXgl\projects\soccerlg/soccerlg_s4_b1.c:447: ShowHeaderInfo();
    00000963 CDrDBr26         [17] 2417 	call	_ShowHeaderInfo
                                   2418 ;E:\Dropbox\FAUSTO\SVILUPPI\MSX\CODE\C\MSXgl\projects\soccerlg/soccerlg_s4_b1.c:448: Trampoline_VOID(3,InitPonPonGirls);
    00000966 11r00r00         [10] 2419 	ld	de, #_InitPonPonGirls
    00000969 3E 03            [ 7] 2420 	ld	a, #0x03
    0000096B CDr00r00         [17] 2421 	call	_Trampoline_VOID
                                   2422 ;E:/Dropbox/FAUSTO/SVILUPPI/MSX/CODE/C/MSXgl/engine/src/v9990.h:258: inline void V9_SetFlag(u8 reg, u8 mask, u8 flag) { V9_SetRegister(reg, V9_GetRegister(reg) & (~mask) | flag); }
    0000096E 3E 08            [ 7] 2423 	ld	a, #0x08
    00000970 CDr00r00         [17] 2424 	call	_V9_GetRegister
    00000973 CB BF            [ 8] 2425 	res	7, a
    00000975 6F               [ 4] 2426 	ld	l, a
                                   2427 ;	spillPairReg hl
                                   2428 ;	spillPairReg hl
    00000976 CB FD            [ 8] 2429 	set	7, l
    00000978 3E 08            [ 7] 2430 	ld	a, #0x08
    0000097A CDr00r00         [17] 2431 	call	_V9_SetRegister
                                   2432 ;E:/Dropbox/FAUSTO/SVILUPPI/MSX/CODE/C/MSXgl/engine/src/v9990.h:574: inline void V9_SetInterrupt(u8 flags) { V9_SetRegister(9, flags); }
    0000097D 2E 01            [ 7] 2433 	ld	l, #0x01
                                   2434 ;	spillPairReg hl
                                   2435 ;	spillPairReg hl
    0000097F 3E 09            [ 7] 2436 	ld	a, #0x09
                                   2437 ;E:\Dropbox\FAUSTO\SVILUPPI\MSX\CODE\C\MSXgl\projects\soccerlg/soccerlg_s4_b1.c:450: V9_SetInterrupt(V9_INT_VBLANK);
                                   2438 ;E:\Dropbox\FAUSTO\SVILUPPI\MSX\CODE\C\MSXgl\projects\soccerlg/soccerlg_s4_b1.c:451: }
    00000981 C3r00r00         [10] 2439 	jp	_V9_SetRegister
                                   2440 ;E:\Dropbox\FAUSTO\SVILUPPI\MSX\CODE\C\MSXgl\projects\soccerlg/soccerlg_s4_b1.c:452: void PerformShot(u16 targetX, u16 targetY) {
                                   2441 ;	---------------------------------
                                   2442 ; Function PerformShot
                                   2443 ; ---------------------------------
    00000984                       2444 _PerformShot::
    00000984 DD E5            [15] 2445 	push	ix
    00000986 DD 21 00 00      [14] 2446 	ld	ix,#0
    0000098A DD 39            [15] 2447 	add	ix,sp
    0000098C FD 21 EC FF      [14] 2448 	ld	iy, #-20
    00000990 FD 39            [15] 2449 	add	iy, sp
    00000992 FD F9            [10] 2450 	ld	sp, iy
    00000994 DD 75 FE         [19] 2451 	ld	-2 (ix), l
    00000997 DD 74 FF         [19] 2452 	ld	-1 (ix), h
    0000099A DD 73 FC         [19] 2453 	ld	-4 (ix), e
    0000099D DD 72 FD         [19] 2454 	ld	-3 (ix), d
                                   2455 ;E:\Dropbox\FAUSTO\SVILUPPI\MSX\CODE\C\MSXgl\projects\soccerlg/soccerlg_s4_b1.c:453: u8 fromId = g_Ball.PossessionPlayerId;
    000009A0 3Ar06r00         [13] 2456 	ld	a, (#(_g_Ball + 6) + 0)
                                   2457 ;E:\Dropbox\FAUSTO\SVILUPPI\MSX\CODE\C\MSXgl\projects\soccerlg/soccerlg_s4_b1.c:454: if (fromId == NO_VALUE) return;
    000009A3 DD 77 FB         [19] 2458 	ld	-5 (ix), a
    000009A6 3C               [ 4] 2459 	inc	a
    000009A7 CAr63r0C         [10] 2460 	jp	Z,00132$
    000009AA C3rADr09         [10] 2461 	jp	00102$
    000009AD                       2462 00102$:
                                   2463 ;E:\Dropbox\FAUSTO\SVILUPPI\MSX\CODE\C\MSXgl\projects\soccerlg/soccerlg_s4_b1.c:460: dx = (i16)targetX - (i16)g_Players[fromId].X;
    000009AD DD 4E FE         [19] 2464 	ld	c, -2 (ix)
    000009B0 DD 46 FF         [19] 2465 	ld	b, -1 (ix)
    000009B3 DD 5E FB         [19] 2466 	ld	e, -5 (ix)
    000009B6 16 00            [ 7] 2467 	ld	d, #0x00
    000009B8 6B               [ 4] 2468 	ld	l, e
    000009B9 62               [ 4] 2469 	ld	h, d
    000009BA 29               [11] 2470 	add	hl, hl
    000009BB 29               [11] 2471 	add	hl, hl
    000009BC 19               [11] 2472 	add	hl, de
    000009BD 29               [11] 2473 	add	hl, hl
    000009BE 29               [11] 2474 	add	hl, hl
    000009BF 19               [11] 2475 	add	hl, de
    000009C0 11r00r00         [10] 2476 	ld	de, #_g_Players
    000009C3 19               [11] 2477 	add	hl, de
    000009C4 E3               [19] 2478 	ex	(sp), hl
    000009C5 DD 7E EC         [19] 2479 	ld	a, -20 (ix)
    000009C8 C6 02            [ 7] 2480 	add	a, #0x02
    000009CA DD 77 EE         [19] 2481 	ld	-18 (ix), a
    000009CD DD 7E ED         [19] 2482 	ld	a, -19 (ix)
    000009D0 CE 00            [ 7] 2483 	adc	a, #0x00
    000009D2 DD 77 EF         [19] 2484 	ld	-17 (ix), a
    000009D5 DD 6E EE         [19] 2485 	ld	l, -18 (ix)
    000009D8 DD 66 EF         [19] 2486 	ld	h, -17 (ix)
    000009DB 5E               [ 7] 2487 	ld	e, (hl)
    000009DC 23               [ 6] 2488 	inc	hl
    000009DD 56               [ 7] 2489 	ld	d, (hl)
    000009DE 79               [ 4] 2490 	ld	a, c
    000009DF 93               [ 4] 2491 	sub	a, e
    000009E0 4F               [ 4] 2492 	ld	c, a
    000009E1 78               [ 4] 2493 	ld	a, b
    000009E2 9A               [ 4] 2494 	sbc	a, d
    000009E3 DD 71 F0         [19] 2495 	ld	-16 (ix), c
    000009E6 DD 77 F1         [19] 2496 	ld	-15 (ix), a
                                   2497 ;E:\Dropbox\FAUSTO\SVILUPPI\MSX\CODE\C\MSXgl\projects\soccerlg/soccerlg_s4_b1.c:461: dy = (i16)targetY - (i16)g_Players[fromId].Y;
    000009E9 DD 4E FC         [19] 2498 	ld	c, -4 (ix)
    000009EC DD 46 FD         [19] 2499 	ld	b, -3 (ix)
    000009EF E1               [10] 2500 	pop	hl
    000009F0 E5               [11] 2501 	push	hl
    000009F1 5E               [ 7] 2502 	ld	e, (hl)
    000009F2 23               [ 6] 2503 	inc	hl
    000009F3 56               [ 7] 2504 	ld	d, (hl)
    000009F4 79               [ 4] 2505 	ld	a, c
    000009F5 93               [ 4] 2506 	sub	a, e
    000009F6 4F               [ 4] 2507 	ld	c, a
    000009F7 78               [ 4] 2508 	ld	a, b
    000009F8 9A               [ 4] 2509 	sbc	a, d
    000009F9 DD 71 F2         [19] 2510 	ld	-14 (ix), c
    000009FC DD 77 F3         [19] 2511 	ld	-13 (ix), a
                                   2512 ;E:\Dropbox\FAUSTO\SVILUPPI\MSX\CODE\C\MSXgl\projects\soccerlg/soccerlg_s4_b1.c:462: adx = (dx < 0) ? -dx : dx;
    000009FF DD 7E F0         [19] 2513 	ld	a, -16 (ix)
    00000A02 DD 77 F4         [19] 2514 	ld	-12 (ix), a
    00000A05 DD 7E F1         [19] 2515 	ld	a, -15 (ix)
    00000A08 DD 77 F5         [19] 2516 	ld	-11 (ix), a
    00000A0B DD CB F5 7E      [20] 2517 	bit	7, -11 (ix)
    00000A0F 28 0C            [12] 2518 	jr	Z, 00134$
    00000A11 AF               [ 4] 2519 	xor	a, a
    00000A12 DD 96 F0         [19] 2520 	sub	a, -16 (ix)
    00000A15 4F               [ 4] 2521 	ld	c, a
    00000A16 9F               [ 4] 2522 	sbc	a, a
    00000A17 DD 96 F1         [19] 2523 	sub	a, -15 (ix)
    00000A1A C3r23r0A         [10] 2524 	jp	00135$
    00000A1D                       2525 00134$:
    00000A1D DD 4E F0         [19] 2526 	ld	c, -16 (ix)
    00000A20 DD 7E F1         [19] 2527 	ld	a, -15 (ix)
    00000A23                       2528 00135$:
    00000A23 DD 71 F6         [19] 2529 	ld	-10 (ix), c
    00000A26 DD 77 F7         [19] 2530 	ld	-9 (ix), a
                                   2531 ;E:\Dropbox\FAUSTO\SVILUPPI\MSX\CODE\C\MSXgl\projects\soccerlg/soccerlg_s4_b1.c:463: ady = (dy < 0) ? -dy : dy;
    00000A29 DD 7E F2         [19] 2532 	ld	a, -14 (ix)
    00000A2C DD 77 F8         [19] 2533 	ld	-8 (ix), a
    00000A2F DD 7E F3         [19] 2534 	ld	a, -13 (ix)
    00000A32 DD 77 F9         [19] 2535 	ld	-7 (ix), a
    00000A35 DD CB F9 7E      [20] 2536 	bit	7, -7 (ix)
    00000A39 28 11            [12] 2537 	jr	Z, 00136$
    00000A3B AF               [ 4] 2538 	xor	a, a
    00000A3C DD 96 F2         [19] 2539 	sub	a, -14 (ix)
    00000A3F DD 77 FA         [19] 2540 	ld	-6 (ix), a
    00000A42 9F               [ 4] 2541 	sbc	a, a
    00000A43 DD 96 F3         [19] 2542 	sub	a, -13 (ix)
    00000A46 DD 77 FB         [19] 2543 	ld	-5 (ix), a
    00000A49 C3r58r0A         [10] 2544 	jp	00137$
    00000A4C                       2545 00136$:
    00000A4C DD 7E F2         [19] 2546 	ld	a, -14 (ix)
    00000A4F DD 77 FA         [19] 2547 	ld	-6 (ix), a
    00000A52 DD 7E F3         [19] 2548 	ld	a, -13 (ix)
    00000A55 DD 77 FB         [19] 2549 	ld	-5 (ix), a
    00000A58                       2550 00137$:
    00000A58 DD 4E FA         [19] 2551 	ld	c, -6 (ix)
    00000A5B DD 46 FB         [19] 2552 	ld	b, -5 (ix)
                                   2553 ;E:\Dropbox\FAUSTO\SVILUPPI\MSX\CODE\C\MSXgl\projects\soccerlg/soccerlg_s4_b1.c:465: if (adx > ady * 2) {
    00000A5E 69               [ 4] 2554 	ld	l, c
    00000A5F 60               [ 4] 2555 	ld	h, b
    00000A60 29               [11] 2556 	add	hl, hl
    00000A61 DD 5E F6         [19] 2557 	ld	e, -10 (ix)
    00000A64 DD 56 F7         [19] 2558 	ld	d, -9 (ix)
    00000A67 7D               [ 4] 2559 	ld	a, l
    00000A68 93               [ 4] 2560 	sub	a, e
    00000A69 7C               [ 4] 2561 	ld	a, h
    00000A6A 9A               [ 4] 2562 	sbc	a, d
    00000A6B E2r70r0A         [10] 2563 	jp	PO, 00238$
    00000A6E EE 80            [ 7] 2564 	xor	a, #0x80
    00000A70                       2565 00238$:
    00000A70 F2r91r0A         [10] 2566 	jp	P, 00110$
                                   2567 ;E:\Dropbox\FAUSTO\SVILUPPI\MSX\CODE\C\MSXgl\projects\soccerlg/soccerlg_s4_b1.c:466: newDir = (dx > 0) ? DIRECTION_RIGHT : DIRECTION_LEFT;
    00000A73 AF               [ 4] 2568 	xor	a, a
    00000A74 DD BE F4         [19] 2569 	cp	a, -12 (ix)
    00000A77 DD 9E F5         [19] 2570 	sbc	a, -11 (ix)
    00000A7A E2r7Fr0A         [10] 2571 	jp	PO, 00239$
    00000A7D EE 80            [ 7] 2572 	xor	a, #0x80
    00000A7F                       2573 00239$:
    00000A7F F2r88r0A         [10] 2574 	jp	P, 00138$
    00000A82 01 03 00         [10] 2575 	ld	bc, #0x0003
    00000A85 C3r8Br0A         [10] 2576 	jp	00139$
    00000A88                       2577 00138$:
    00000A88 01 07 00         [10] 2578 	ld	bc, #0x0007
    00000A8B                       2579 00139$:
    00000A8B DD 71 FB         [19] 2580 	ld	-5 (ix), c
    00000A8E C3rF5r0A         [10] 2581 	jp	00111$
    00000A91                       2582 00110$:
                                   2583 ;E:\Dropbox\FAUSTO\SVILUPPI\MSX\CODE\C\MSXgl\projects\soccerlg/soccerlg_s4_b1.c:467: } else if (ady > adx * 2) {
    00000A91 EB               [ 4] 2584 	ex	de, hl
    00000A92 29               [11] 2585 	add	hl, hl
    00000A93 EB               [ 4] 2586 	ex	de, hl
                                   2587 ;E:\Dropbox\FAUSTO\SVILUPPI\MSX\CODE\C\MSXgl\projects\soccerlg/soccerlg_s4_b1.c:468: newDir = (dy > 0) ? DIRECTION_DOWN : DIRECTION_UP;
    00000A94 AF               [ 4] 2588 	xor	a, a
    00000A95 DD BE F8         [19] 2589 	cp	a, -8 (ix)
    00000A98 DD 9E F9         [19] 2590 	sbc	a, -7 (ix)
    00000A9B E2rA0r0A         [10] 2591 	jp	PO, 00240$
    00000A9E EE 80            [ 7] 2592 	xor	a, #0x80
    00000AA0                       2593 00240$:
    00000AA0 07               [ 4] 2594 	rlca
    00000AA1 E6 01            [ 7] 2595 	and	a,#0x01
    00000AA3 6F               [ 4] 2596 	ld	l, a
                                   2597 ;	spillPairReg hl
                                   2598 ;	spillPairReg hl
                                   2599 ;E:\Dropbox\FAUSTO\SVILUPPI\MSX\CODE\C\MSXgl\projects\soccerlg/soccerlg_s4_b1.c:467: } else if (ady > adx * 2) {
    00000AA4 7B               [ 4] 2600 	ld	a, e
    00000AA5 91               [ 4] 2601 	sub	a, c
    00000AA6 7A               [ 4] 2602 	ld	a, d
    00000AA7 98               [ 4] 2603 	sbc	a, b
    00000AA8 E2rADr0A         [10] 2604 	jp	PO, 00241$
    00000AAB EE 80            [ 7] 2605 	xor	a, #0x80
    00000AAD                       2606 00241$:
    00000AAD F2rC3r0A         [10] 2607 	jp	P, 00107$
                                   2608 ;E:\Dropbox\FAUSTO\SVILUPPI\MSX\CODE\C\MSXgl\projects\soccerlg/soccerlg_s4_b1.c:468: newDir = (dy > 0) ? DIRECTION_DOWN : DIRECTION_UP;
    00000AB0 7D               [ 4] 2609 	ld	a, l
    00000AB1 B7               [ 4] 2610 	or	a, a
    00000AB2 28 06            [12] 2611 	jr	Z, 00140$
    00000AB4 01 05 00         [10] 2612 	ld	bc, #0x0005
    00000AB7 C3rBDr0A         [10] 2613 	jp	00141$
    00000ABA                       2614 00140$:
    00000ABA 01 01 00         [10] 2615 	ld	bc, #0x0001
    00000ABD                       2616 00141$:
    00000ABD DD 71 FB         [19] 2617 	ld	-5 (ix), c
    00000AC0 C3rF5r0A         [10] 2618 	jp	00111$
    00000AC3                       2619 00107$:
                                   2620 ;E:\Dropbox\FAUSTO\SVILUPPI\MSX\CODE\C\MSXgl\projects\soccerlg/soccerlg_s4_b1.c:470: if (dx > 0) newDir = (dy > 0) ? DIRECTION_DOWN_RIGHT : DIRECTION_UP_RIGHT;
    00000AC3 AF               [ 4] 2621 	xor	a, a
    00000AC4 DD BE F4         [19] 2622 	cp	a, -12 (ix)
    00000AC7 DD 9E F5         [19] 2623 	sbc	a, -11 (ix)
    00000ACA E2rCFr0A         [10] 2624 	jp	PO, 00242$
    00000ACD EE 80            [ 7] 2625 	xor	a, #0x80
    00000ACF                       2626 00242$:
    00000ACF F2rE5r0A         [10] 2627 	jp	P, 00104$
    00000AD2 7D               [ 4] 2628 	ld	a, l
    00000AD3 B7               [ 4] 2629 	or	a, a
    00000AD4 28 06            [12] 2630 	jr	Z, 00142$
    00000AD6 01 04 00         [10] 2631 	ld	bc, #0x0004
    00000AD9 C3rDFr0A         [10] 2632 	jp	00143$
    00000ADC                       2633 00142$:
    00000ADC 01 02 00         [10] 2634 	ld	bc, #0x0002
    00000ADF                       2635 00143$:
    00000ADF DD 71 FB         [19] 2636 	ld	-5 (ix), c
    00000AE2 C3rF5r0A         [10] 2637 	jp	00111$
    00000AE5                       2638 00104$:
                                   2639 ;E:\Dropbox\FAUSTO\SVILUPPI\MSX\CODE\C\MSXgl\projects\soccerlg/soccerlg_s4_b1.c:471: else newDir = (dy > 0) ? DIRECTION_DOWN_LEFT : DIRECTION_UP_LEFT;
    00000AE5 7D               [ 4] 2640 	ld	a, l
    00000AE6 B7               [ 4] 2641 	or	a, a
    00000AE7 28 06            [12] 2642 	jr	Z, 00144$
    00000AE9 01 06 00         [10] 2643 	ld	bc, #0x0006
    00000AEC C3rF2r0A         [10] 2644 	jp	00145$
    00000AEF                       2645 00144$:
    00000AEF 01 08 00         [10] 2646 	ld	bc, #0x0008
    00000AF2                       2647 00145$:
    00000AF2 DD 71 FB         [19] 2648 	ld	-5 (ix), c
    00000AF5                       2649 00111$:
                                   2650 ;E:\Dropbox\FAUSTO\SVILUPPI\MSX\CODE\C\MSXgl\projects\soccerlg/soccerlg_s4_b1.c:473: g_Players[fromId].Direction = newDir;
    00000AF5 E1               [10] 2651 	pop	hl
    00000AF6 E5               [11] 2652 	push	hl
    00000AF7 11 0A 00         [10] 2653 	ld	de, #0x000a
    00000AFA 19               [11] 2654 	add	hl, de
    00000AFB DD 7E FB         [19] 2655 	ld	a, -5 (ix)
    00000AFE 77               [ 7] 2656 	ld	(hl), a
                                   2657 ;E:\Dropbox\FAUSTO\SVILUPPI\MSX\CODE\C\MSXgl\projects\soccerlg/soccerlg_s4_b1.c:476: if (newDir == DIRECTION_UP || newDir == DIRECTION_UP_LEFT || newDir == DIRECTION_UP_RIGHT) g_Players[fromId].PatternId = PLAYER_POSE_SHOT_FRONT;
    00000AFF DD 7E FB         [19] 2658 	ld	a, -5 (ix)
    00000B02 3D               [ 4] 2659 	dec	a
    00000B03 28 0E            [12] 2660 	jr	Z, 00122$
    00000B05 DD 7E FB         [19] 2661 	ld	a, -5 (ix)
    00000B08 D6 08            [ 7] 2662 	sub	a, #0x08
    00000B0A 28 07            [12] 2663 	jr	Z, 00122$
    00000B0C DD 7E FB         [19] 2664 	ld	a, -5 (ix)
    00000B0F D6 02            [ 7] 2665 	sub	a, #0x02
    00000B11 20 1B            [12] 2666 	jr	NZ, 00123$
    00000B13                       2667 00122$:
    00000B13 DD 7E EC         [19] 2668 	ld	a, -20 (ix)
    00000B16 C6 08            [ 7] 2669 	add	a, #0x08
    00000B18 DD 77 FA         [19] 2670 	ld	-6 (ix), a
    00000B1B DD 7E ED         [19] 2671 	ld	a, -19 (ix)
    00000B1E CE 00            [ 7] 2672 	adc	a, #0x00
    00000B20 DD 77 FB         [19] 2673 	ld	-5 (ix), a
    00000B23 DD 6E FA         [19] 2674 	ld	l, -6 (ix)
    00000B26 DD 66 FB         [19] 2675 	ld	h, -5 (ix)
    00000B29 36 18            [10] 2676 	ld	(hl), #0x18
    00000B2B C3r6Fr0B         [10] 2677 	jp	00124$
    00000B2E                       2678 00123$:
                                   2679 ;E:\Dropbox\FAUSTO\SVILUPPI\MSX\CODE\C\MSXgl\projects\soccerlg/soccerlg_s4_b1.c:477: else if (newDir == DIRECTION_DOWN || newDir == DIRECTION_DOWN_LEFT || newDir == DIRECTION_DOWN_RIGHT) g_Players[fromId].PatternId = PLAYER_POSE_SHOT_BACK;
    00000B2E DD 7E FB         [19] 2680 	ld	a, -5 (ix)
    00000B31 D6 05            [ 7] 2681 	sub	a, #0x05
    00000B33 28 0E            [12] 2682 	jr	Z, 00117$
    00000B35 DD 7E FB         [19] 2683 	ld	a, -5 (ix)
    00000B38 D6 06            [ 7] 2684 	sub	a, #0x06
    00000B3A 28 07            [12] 2685 	jr	Z, 00117$
    00000B3C DD 7E FB         [19] 2686 	ld	a, -5 (ix)
    00000B3F D6 04            [ 7] 2687 	sub	a, #0x04
    00000B41 20 0B            [12] 2688 	jr	NZ, 00118$
    00000B43                       2689 00117$:
    00000B43 E1               [10] 2690 	pop	hl
    00000B44 E5               [11] 2691 	push	hl
    00000B45 11 08 00         [10] 2692 	ld	de, #0x0008
    00000B48 19               [11] 2693 	add	hl, de
    00000B49 36 15            [10] 2694 	ld	(hl), #0x15
    00000B4B C3r6Fr0B         [10] 2695 	jp	00124$
    00000B4E                       2696 00118$:
                                   2697 ;E:\Dropbox\FAUSTO\SVILUPPI\MSX\CODE\C\MSXgl\projects\soccerlg/soccerlg_s4_b1.c:478: else if (newDir == DIRECTION_LEFT) g_Players[fromId].PatternId = PLAYER_POSE_SHOT_LEFT;
    00000B4E DD 7E FB         [19] 2698 	ld	a, -5 (ix)
    00000B51 D6 07            [ 7] 2699 	sub	a, #0x07
    00000B53 20 0B            [12] 2700 	jr	NZ, 00115$
    00000B55 E1               [10] 2701 	pop	hl
    00000B56 E5               [11] 2702 	push	hl
    00000B57 11 08 00         [10] 2703 	ld	de, #0x0008
    00000B5A 19               [11] 2704 	add	hl, de
    00000B5B 36 A4            [10] 2705 	ld	(hl), #0xa4
    00000B5D C3r6Fr0B         [10] 2706 	jp	00124$
    00000B60                       2707 00115$:
                                   2708 ;E:\Dropbox\FAUSTO\SVILUPPI\MSX\CODE\C\MSXgl\projects\soccerlg/soccerlg_s4_b1.c:479: else if (newDir == DIRECTION_RIGHT) g_Players[fromId].PatternId = PLAYER_POSE_SHOT_RIGHT;
    00000B60 DD 7E FB         [19] 2709 	ld	a, -5 (ix)
    00000B63 D6 03            [ 7] 2710 	sub	a, #0x03
    00000B65 20 08            [12] 2711 	jr	NZ, 00124$
    00000B67 E1               [10] 2712 	pop	hl
    00000B68 E5               [11] 2713 	push	hl
    00000B69 11 08 00         [10] 2714 	ld	de, #0x0008
    00000B6C 19               [11] 2715 	add	hl, de
    00000B6D 36 1B            [10] 2716 	ld	(hl), #0x1b
    00000B6F                       2717 00124$:
                                   2718 ;E:\Dropbox\FAUSTO\SVILUPPI\MSX\CODE\C\MSXgl\projects\soccerlg/soccerlg_s4_b1.c:481: g_Players[fromId].Status = PLAYER_STATUS_POSITIONED; // Lock pose
    00000B6F E1               [10] 2719 	pop	hl
    00000B70 E5               [11] 2720 	push	hl
    00000B71 11 12 00         [10] 2721 	ld	de, #0x0012
    00000B74 19               [11] 2722 	add	hl, de
    00000B75 36 04            [10] 2723 	ld	(hl), #0x04
    00000B77 23               [ 6] 2724 	inc	hl
    00000B78 36 00            [10] 2725 	ld	(hl), #0x00
                                   2726 ;E:\Dropbox\FAUSTO\SVILUPPI\MSX\CODE\C\MSXgl\projects\soccerlg/soccerlg_s4_b1.c:484: g_Players[fromId].TargetX = g_Players[fromId].X;
    00000B7A DD 7E EC         [19] 2727 	ld	a, -20 (ix)
    00000B7D C6 10            [ 7] 2728 	add	a, #0x10
    00000B7F 4F               [ 4] 2729 	ld	c, a
    00000B80 DD 7E ED         [19] 2730 	ld	a, -19 (ix)
    00000B83 CE 00            [ 7] 2731 	adc	a, #0x00
    00000B85 47               [ 4] 2732 	ld	b, a
    00000B86 DD 6E EE         [19] 2733 	ld	l, -18 (ix)
    00000B89 DD 66 EF         [19] 2734 	ld	h, -17 (ix)
    00000B8C 5E               [ 7] 2735 	ld	e, (hl)
    00000B8D 23               [ 6] 2736 	inc	hl
    00000B8E 56               [ 7] 2737 	ld	d, (hl)
    00000B8F 7B               [ 4] 2738 	ld	a, e
    00000B90 02               [ 7] 2739 	ld	(bc), a
    00000B91 03               [ 6] 2740 	inc	bc
    00000B92 7A               [ 4] 2741 	ld	a, d
    00000B93 02               [ 7] 2742 	ld	(bc), a
                                   2743 ;E:\Dropbox\FAUSTO\SVILUPPI\MSX\CODE\C\MSXgl\projects\soccerlg/soccerlg_s4_b1.c:485: g_Players[fromId].TargetY = g_Players[fromId].Y;
    00000B94 DD 7E EC         [19] 2744 	ld	a, -20 (ix)
    00000B97 C6 0E            [ 7] 2745 	add	a, #0x0e
    00000B99 4F               [ 4] 2746 	ld	c, a
    00000B9A DD 7E ED         [19] 2747 	ld	a, -19 (ix)
    00000B9D CE 00            [ 7] 2748 	adc	a, #0x00
    00000B9F 47               [ 4] 2749 	ld	b, a
    00000BA0 E1               [10] 2750 	pop	hl
    00000BA1 E5               [11] 2751 	push	hl
    00000BA2 5E               [ 7] 2752 	ld	e, (hl)
    00000BA3 23               [ 6] 2753 	inc	hl
    00000BA4 56               [ 7] 2754 	ld	d, (hl)
    00000BA5 7B               [ 4] 2755 	ld	a, e
    00000BA6 02               [ 7] 2756 	ld	(bc), a
    00000BA7 03               [ 6] 2757 	inc	bc
    00000BA8 7A               [ 4] 2758 	ld	a, d
    00000BA9 02               [ 7] 2759 	ld	(bc), a
                                   2760 ;E:\Dropbox\FAUSTO\SVILUPPI\MSX\CODE\C\MSXgl\projects\soccerlg/soccerlg_s4_b1.c:487: Trampoline_VOID_P1(2,SetPlayerBallPossession,NO_VALUE);
    00000BAA 3E FF            [ 7] 2761 	ld	a, #0xff
    00000BAC F5               [11] 2762 	push	af
    00000BAD 33               [ 6] 2763 	inc	sp
    00000BAE 11r00r00         [10] 2764 	ld	de, #_SetPlayerBallPossession
    00000BB1 3E 02            [ 7] 2765 	ld	a, #0x02
    00000BB3 CDr00r00         [17] 2766 	call	_Trampoline_VOID_P1
                                   2767 ;E:\Dropbox\FAUSTO\SVILUPPI\MSX\CODE\C\MSXgl\projects\soccerlg/soccerlg_s4_b1.c:488: g_Ball.PossessionPlayerId = NO_VALUE;
    00000BB6 21r06r00         [10] 2768 	ld	hl, #(_g_Ball + 6)
    00000BB9 36 FF            [10] 2769 	ld	(hl), #0xff
                                   2770 ;E:\Dropbox\FAUSTO\SVILUPPI\MSX\CODE\C\MSXgl\projects\soccerlg/soccerlg_s4_b1.c:489: g_Ball.PassTargetPlayerId = NO_VALUE;
    00000BBB 21r10r00         [10] 2771 	ld	hl, #(_g_Ball + 16)
    00000BBE 36 FF            [10] 2772 	ld	(hl), #0xff
                                   2773 ;E:\Dropbox\FAUSTO\SVILUPPI\MSX\CODE\C\MSXgl\projects\soccerlg/soccerlg_s4_b1.c:490: g_Ball.ShotActive = 1;
    00000BC0 21r1Br00         [10] 2774 	ld	hl, #(_g_Ball + 27)
    00000BC3 36 01            [10] 2775 	ld	(hl), #0x01
                                   2776 ;E:\Dropbox\FAUSTO\SVILUPPI\MSX\CODE\C\MSXgl\projects\soccerlg/soccerlg_s4_b1.c:491: g_Ball.TargetX = targetX;
    00000BC5 21r17r00         [10] 2777 	ld	hl, #(_g_Ball + 23)
    00000BC8 DD 7E FE         [19] 2778 	ld	a, -2 (ix)
    00000BCB 77               [ 7] 2779 	ld	(hl), a
    00000BCC 23               [ 6] 2780 	inc	hl
    00000BCD DD 7E FF         [19] 2781 	ld	a, -1 (ix)
    00000BD0 77               [ 7] 2782 	ld	(hl), a
                                   2783 ;E:\Dropbox\FAUSTO\SVILUPPI\MSX\CODE\C\MSXgl\projects\soccerlg/soccerlg_s4_b1.c:492: g_Ball.TargetY = targetY;
    00000BD1 21r19r00         [10] 2784 	ld	hl, #(_g_Ball + 25)
    00000BD4 DD 7E FC         [19] 2785 	ld	a, -4 (ix)
    00000BD7 77               [ 7] 2786 	ld	(hl), a
    00000BD8 23               [ 6] 2787 	inc	hl
    00000BD9 DD 7E FD         [19] 2788 	ld	a, -3 (ix)
    00000BDC 77               [ 7] 2789 	ld	(hl), a
                                   2790 ;E:\Dropbox\FAUSTO\SVILUPPI\MSX\CODE\C\MSXgl\projects\soccerlg/soccerlg_s4_b1.c:493: g_Ball.PassStartX = g_Ball.X;
    00000BDD ED 4Br02r00      [20] 2791 	ld	bc, (#_g_Ball + 2)
    00000BE1 ED 43r11r00      [20] 2792 	ld	((_g_Ball + 17)), bc
                                   2793 ;E:\Dropbox\FAUSTO\SVILUPPI\MSX\CODE\C\MSXgl\projects\soccerlg/soccerlg_s4_b1.c:494: g_Ball.PassStartY = g_Ball.Y;
    00000BE5 ED 4Br00r00      [20] 2794 	ld	bc, (#_g_Ball + 0)
    00000BE9 ED 43r13r00      [20] 2795 	ld	((_g_Ball + 19)), bc
                                   2796 ;E:\Dropbox\FAUSTO\SVILUPPI\MSX\CODE\C\MSXgl\projects\soccerlg/soccerlg_s4_b1.c:497: i16 arcDy = dy;
    00000BED DD 4E F2         [19] 2797 	ld	c, -14 (ix)
    00000BF0 DD 46 F3         [19] 2798 	ld	b, -13 (ix)
                                   2799 ;E:\Dropbox\FAUSTO\SVILUPPI\MSX\CODE\C\MSXgl\projects\soccerlg/soccerlg_s4_b1.c:498: if (targetY < FIELD_BOUND_Y_TOP) { // Shooting UP
    00000BF3 DD 5E FC         [19] 2800 	ld	e, -4 (ix)
    00000BF6 DD 56 FD         [19] 2801 	ld	d, -3 (ix)
    00000BF9 7B               [ 4] 2802 	ld	a, e
    00000BFA D6 32            [ 7] 2803 	sub	a, #0x32
    00000BFC 7A               [ 4] 2804 	ld	a, d
    00000BFD DE 00            [ 7] 2805 	sbc	a, #0x00
    00000BFF 30 0F            [12] 2806 	jr	NC, 00130$
                                   2807 ;E:\Dropbox\FAUSTO\SVILUPPI\MSX\CODE\C\MSXgl\projects\soccerlg/soccerlg_s4_b1.c:499: arcDy = (i16)FIELD_BOUND_Y_TOP - (i16)g_Players[fromId].Y;
    00000C01 E1               [10] 2808 	pop	hl
    00000C02 E5               [11] 2809 	push	hl
    00000C03 4E               [ 7] 2810 	ld	c, (hl)
    00000C04 23               [ 6] 2811 	inc	hl
    00000C05 46               [ 7] 2812 	ld	b, (hl)
    00000C06 3E 32            [ 7] 2813 	ld	a, #0x32
    00000C08 91               [ 4] 2814 	sub	a, c
    00000C09 4F               [ 4] 2815 	ld	c, a
    00000C0A 9F               [ 4] 2816 	sbc	a, a
    00000C0B 90               [ 4] 2817 	sub	a, b
    00000C0C 47               [ 4] 2818 	ld	b, a
    00000C0D C3r25r0C         [10] 2819 	jp	00131$
    00000C10                       2820 00130$:
                                   2821 ;E:\Dropbox\FAUSTO\SVILUPPI\MSX\CODE\C\MSXgl\projects\soccerlg/soccerlg_s4_b1.c:500: } else if (targetY > FIELD_BOUND_Y_BOTTOM) { // Shooting DOWN
    00000C10 3E AE            [ 7] 2822 	ld	a, #0xae
    00000C12 BB               [ 4] 2823 	cp	a, e
    00000C13 3E 01            [ 7] 2824 	ld	a, #0x01
    00000C15 9A               [ 4] 2825 	sbc	a, d
    00000C16 30 0D            [12] 2826 	jr	NC, 00131$
                                   2827 ;E:\Dropbox\FAUSTO\SVILUPPI\MSX\CODE\C\MSXgl\projects\soccerlg/soccerlg_s4_b1.c:501: arcDy = (i16)FIELD_BOUND_Y_BOTTOM - (i16)g_Players[fromId].Y;
    00000C18 E1               [10] 2828 	pop	hl
    00000C19 E5               [11] 2829 	push	hl
    00000C1A 4E               [ 7] 2830 	ld	c, (hl)
    00000C1B 23               [ 6] 2831 	inc	hl
    00000C1C 46               [ 7] 2832 	ld	b, (hl)
    00000C1D 3E AE            [ 7] 2833 	ld	a, #0xae
    00000C1F 91               [ 4] 2834 	sub	a, c
    00000C20 4F               [ 4] 2835 	ld	c, a
    00000C21 3E 01            [ 7] 2836 	ld	a, #0x01
    00000C23 98               [ 4] 2837 	sbc	a, b
    00000C24 47               [ 4] 2838 	ld	b, a
    00000C25                       2839 00131$:
                                   2840 ;E:\Dropbox\FAUSTO\SVILUPPI\MSX\CODE\C\MSXgl\projects\soccerlg/soccerlg_s4_b1.c:503: g_Ball.PassTotalDist = (u16)(Math_Abs32(dx) + Math_Abs32(arcDy));
    00000C25 DD 5E F0         [19] 2841 	ld	e, -16 (ix)
    00000C28 DD 7E F1         [19] 2842 	ld	a, -15 (ix)
    00000C2B 57               [ 4] 2843 	ld	d, a
    00000C2C 07               [ 4] 2844 	rlca
    00000C2D ED 62            [15] 2845 	sbc	hl, hl
    00000C2F C5               [11] 2846 	push	bc
    00000C30 CDr00r00         [17] 2847 	call	_Math_Abs32
    00000C33 DD 73 F8         [19] 2848 	ld	-8 (ix), e
    00000C36 DD 72 F9         [19] 2849 	ld	-7 (ix), d
    00000C39 DD 75 FA         [19] 2850 	ld	-6 (ix), l
    00000C3C DD 74 FB         [19] 2851 	ld	-5 (ix), h
    00000C3F C1               [10] 2852 	pop	bc
    00000C40 78               [ 4] 2853 	ld	a, b
    00000C41 07               [ 4] 2854 	rlca
    00000C42 ED 62            [15] 2855 	sbc	hl, hl
    00000C44 59               [ 4] 2856 	ld	e, c
    00000C45 50               [ 4] 2857 	ld	d, b
    00000C46 CDr00r00         [17] 2858 	call	_Math_Abs32
    00000C49 DD 4E F8         [19] 2859 	ld	c, -8 (ix)
    00000C4C DD 46 F9         [19] 2860 	ld	b, -7 (ix)
    00000C4F EB               [ 4] 2861 	ex	de, hl
    00000C50 09               [11] 2862 	add	hl, bc
    00000C51 DD 75 FA         [19] 2863 	ld	-6 (ix), l
    00000C54 DD 74 FB         [19] 2864 	ld	-5 (ix), h
    00000C57 21r15r00         [10] 2865 	ld	hl, #(_g_Ball + 21)
    00000C5A DD 7E FA         [19] 2866 	ld	a, -6 (ix)
    00000C5D 77               [ 7] 2867 	ld	(hl), a
    00000C5E 23               [ 6] 2868 	inc	hl
    00000C5F DD 7E FB         [19] 2869 	ld	a, -5 (ix)
    00000C62 77               [ 7] 2870 	ld	(hl), a
    00000C63                       2871 00132$:
                                   2872 ;E:\Dropbox\FAUSTO\SVILUPPI\MSX\CODE\C\MSXgl\projects\soccerlg/soccerlg_s4_b1.c:504: }
    00000C63 DD F9            [10] 2873 	ld	sp, ix
    00000C65 DD E1            [14] 2874 	pop	ix
    00000C67 C9               [10] 2875 	ret
                                   2876 ;E:\Dropbox\FAUSTO\SVILUPPI\MSX\CODE\C\MSXgl\projects\soccerlg/soccerlg_s4_b1.c:506: void TickBallFlying() {
                                   2877 ;	---------------------------------
                                   2878 ; Function TickBallFlying
                                   2879 ; ---------------------------------
    00000C68                       2880 _TickBallFlying::
    00000C68 DD E5            [15] 2881 	push	ix
    00000C6A DD 21 00 00      [14] 2882 	ld	ix,#0
    00000C6E DD 39            [15] 2883 	add	ix,sp
    00000C70 21 E8 FF         [10] 2884 	ld	hl, #-24
    00000C73 39               [11] 2885 	add	hl, sp
    00000C74 F9               [ 6] 2886 	ld	sp, hl
                                   2887 ;E:\Dropbox\FAUSTO\SVILUPPI\MSX\CODE\C\MSXgl\projects\soccerlg/soccerlg_s4_b1.c:508: if(g_MatchStatus == MATCH_BEFORE_THROW_IN || g_MatchStatus == MATCH_THROW_IN || 
    00000C75 3Ar00r00         [13] 2888 	ld	a,(_g_MatchStatus+0)
    00000C78 FE 03            [ 7] 2889 	cp	a,#0x03
    00000C7A CAr7Br15         [10] 2890 	jp	Z,00198$
                                   2891 ;E:\Dropbox\FAUSTO\SVILUPPI\MSX\CODE\C\MSXgl\projects\soccerlg/soccerlg_s4_b1.c:509: g_MatchStatus == MATCH_BEFORE_GOAL_KICK || g_MatchStatus == MATCH_GOAL_KICK ||
    00000C7D FE 08            [ 7] 2892 	cp	a,#0x08
    00000C7F CAr7Br15         [10] 2893 	jp	Z,00198$
    00000C82 FE 05            [ 7] 2894 	cp	a,#0x05
    00000C84 CAr7Br15         [10] 2895 	jp	Z,00198$
                                   2896 ;E:\Dropbox\FAUSTO\SVILUPPI\MSX\CODE\C\MSXgl\projects\soccerlg/soccerlg_s4_b1.c:510: g_MatchStatus == MATCH_BEFORE_CORNER_KICK || g_MatchStatus == MATCH_CORNER_KICK ||
    00000C87 FE 0A            [ 7] 2897 	cp	a,#0x0a
    00000C89 CAr7Br15         [10] 2898 	jp	Z,00198$
    00000C8C FE 02            [ 7] 2899 	cp	a,#0x02
    00000C8E CAr7Br15         [10] 2900 	jp	Z,00198$
                                   2901 ;E:\Dropbox\FAUSTO\SVILUPPI\MSX\CODE\C\MSXgl\projects\soccerlg/soccerlg_s4_b1.c:511: g_MatchStatus == MATCH_BEFORE_KICK_OFF) {
    00000C91 FE 09            [ 7] 2902 	cp	a,#0x09
    00000C93 CAr7Br15         [10] 2903 	jp	Z,00198$
    00000C96 3D               [ 4] 2904 	dec	a
                                   2905 ;E:\Dropbox\FAUSTO\SVILUPPI\MSX\CODE\C\MSXgl\projects\soccerlg/soccerlg_s4_b1.c:512: return;
    00000C97 CAr7Br15         [10] 2906 	jp	Z,00198$
                                   2907 ;E:\Dropbox\FAUSTO\SVILUPPI\MSX\CODE\C\MSXgl\projects\soccerlg/soccerlg_s4_b1.c:516: if (g_Ball.PossessionPlayerId != NO_VALUE) return;
    00000C9A 3Ar06r00         [13] 2908 	ld	a, (#(_g_Ball + 6) + 0)
    00000C9D 3C               [ 4] 2909 	inc	a
    00000C9E C2r7Br15         [10] 2910 	jp	NZ,00198$
                                   2911 ;E:\Dropbox\FAUSTO\SVILUPPI\MSX\CODE\C\MSXgl\projects\soccerlg/soccerlg_s4_b1.c:519: bool isMovingToPlayer = (g_Ball.PassTargetPlayerId != NO_VALUE);
    00000CA1 21r10r00         [10] 2912 	ld	hl, #(_g_Ball + 16)
    00000CA4 4E               [ 7] 2913 	ld	c, (hl)
    00000CA5 79               [ 4] 2914 	ld	a, c
    00000CA6 3C               [ 4] 2915 	inc	a
    00000CA7 3E 01            [ 7] 2916 	ld	a, #0x01
    00000CA9 28 01            [12] 2917 	jr	Z, 00483$
    00000CAB AF               [ 4] 2918 	xor	a, a
    00000CAC                       2919 00483$:
    00000CAC EE 01            [ 7] 2920 	xor	a, #0x01
    00000CAE DD 77 EA         [19] 2921 	ld	-22 (ix), a
                                   2922 ;E:\Dropbox\FAUSTO\SVILUPPI\MSX\CODE\C\MSXgl\projects\soccerlg/soccerlg_s4_b1.c:520: bool isFreeMoving = (g_Ball.ShotActive != 0);
    00000CB1 3Ar1Br00         [13] 2923 	ld	a, (#(_g_Ball + 27) + 0)
    00000CB4 DD 77 EB         [19] 2924 	ld	-21 (ix), a
    00000CB7 D6 01            [ 7] 2925 	sub	a,#0x01
    00000CB9 3E 00            [ 7] 2926 	ld	a, #0x00
    00000CBB 17               [ 4] 2927 	rla
    00000CBC EE 01            [ 7] 2928 	xor	a, #0x01
    00000CBE 47               [ 4] 2929 	ld	b, a
                                   2930 ;E:\Dropbox\FAUSTO\SVILUPPI\MSX\CODE\C\MSXgl\projects\soccerlg/soccerlg_s4_b1.c:522: if (!isMovingToPlayer && !isFreeMoving) return;
    00000CBF DD 7E EA         [19] 2931 	ld	a, -22 (ix)
    00000CC2 B7               [ 4] 2932 	or	a,a
    00000CC3 20 04            [12] 2933 	jr	NZ, 00112$
    00000CC5 B0               [ 4] 2934 	or	a,b
    00000CC6 CAr7Br15         [10] 2935 	jp	Z,00198$
    00000CC9                       2936 00112$:
                                   2937 ;E:\Dropbox\FAUSTO\SVILUPPI\MSX\CODE\C\MSXgl\projects\soccerlg/soccerlg_s4_b1.c:526: if (isMovingToPlayer) {
    00000CC9 DD 7E EA         [19] 2938 	ld	a, -22 (ix)
    00000CCC B7               [ 4] 2939 	or	a, a
    00000CCD 28 21            [12] 2940 	jr	Z, 00115$
                                   2941 ;E:\Dropbox\FAUSTO\SVILUPPI\MSX\CODE\C\MSXgl\projects\soccerlg/soccerlg_s4_b1.c:527: tx = g_Players[g_Ball.PassTargetPlayerId].X;
    00000CCF 11r00r00         [10] 2942 	ld	de, #_g_Players+0
    00000CD2 06 00            [ 7] 2943 	ld	b, #0x00
    00000CD4 69               [ 4] 2944 	ld	l, c
    00000CD5 60               [ 4] 2945 	ld	h, b
    00000CD6 29               [11] 2946 	add	hl, hl
    00000CD7 29               [11] 2947 	add	hl, hl
    00000CD8 09               [11] 2948 	add	hl, bc
    00000CD9 29               [11] 2949 	add	hl, hl
    00000CDA 29               [11] 2950 	add	hl, hl
    00000CDB 09               [11] 2951 	add	hl, bc
    00000CDC 19               [11] 2952 	add	hl, de
                                   2953 ;	spillPairReg hl
                                   2954 ;	spillPairReg hl
    00000CDD 5D               [ 4] 2955 	ld	e, l
    00000CDE 54               [ 4] 2956 	ld	d, h
                                   2957 ;	spillPairReg hl
                                   2958 ;	spillPairReg hl
    00000CDF 23               [ 6] 2959 	inc	hl
    00000CE0 23               [ 6] 2960 	inc	hl
    00000CE1 4E               [ 7] 2961 	ld	c, (hl)
    00000CE2 23               [ 6] 2962 	inc	hl
    00000CE3 46               [ 7] 2963 	ld	b, (hl)
                                   2964 ;E:\Dropbox\FAUSTO\SVILUPPI\MSX\CODE\C\MSXgl\projects\soccerlg/soccerlg_s4_b1.c:528: ty = g_Players[g_Ball.PassTargetPlayerId].Y;
    00000CE4 1A               [ 7] 2965 	ld	a, (de)
    00000CE5 DD 77 EC         [19] 2966 	ld	-20 (ix), a
    00000CE8 13               [ 6] 2967 	inc	de
    00000CE9 1A               [ 7] 2968 	ld	a, (de)
    00000CEA DD 77 ED         [19] 2969 	ld	-19 (ix), a
    00000CED C3r00r0D         [10] 2970 	jp	00116$
    00000CF0                       2971 00115$:
                                   2972 ;E:\Dropbox\FAUSTO\SVILUPPI\MSX\CODE\C\MSXgl\projects\soccerlg/soccerlg_s4_b1.c:530: tx = g_Ball.TargetX;
    00000CF0 ED 4Br17r00      [20] 2973 	ld	bc, (#_g_Ball + 23)
                                   2974 ;E:\Dropbox\FAUSTO\SVILUPPI\MSX\CODE\C\MSXgl\projects\soccerlg/soccerlg_s4_b1.c:531: ty = g_Ball.TargetY;
    00000CF4 21r19r00         [10] 2975 	ld	hl, #_g_Ball + 25
    00000CF7 7E               [ 7] 2976 	ld	a, (hl)
    00000CF8 DD 77 EC         [19] 2977 	ld	-20 (ix), a
    00000CFB 23               [ 6] 2978 	inc	hl
    00000CFC 7E               [ 7] 2979 	ld	a, (hl)
    00000CFD DD 77 ED         [19] 2980 	ld	-19 (ix), a
    00000D00                       2981 00116$:
                                   2982 ;E:\Dropbox\FAUSTO\SVILUPPI\MSX\CODE\C\MSXgl\projects\soccerlg/soccerlg_s4_b1.c:535: i16 dx = tx - (i16)g_Ball.X;
    00000D00 21r02r00         [10] 2983 	ld	hl, #(_g_Ball + 2)
    00000D03 7E               [ 7] 2984 	ld	a, (hl)
    00000D04 DD 77 EE         [19] 2985 	ld	-18 (ix), a
    00000D07 23               [ 6] 2986 	inc	hl
    00000D08 7E               [ 7] 2987 	ld	a, (hl)
    00000D09 DD 77 EF         [19] 2988 	ld	-17 (ix), a
    00000D0C DD 5E EE         [19] 2989 	ld	e, -18 (ix)
    00000D0F DD 56 EF         [19] 2990 	ld	d, -17 (ix)
    00000D12 79               [ 4] 2991 	ld	a, c
    00000D13 93               [ 4] 2992 	sub	a, e
    00000D14 4F               [ 4] 2993 	ld	c, a
    00000D15 78               [ 4] 2994 	ld	a, b
    00000D16 9A               [ 4] 2995 	sbc	a, d
    00000D17 DD 71 F0         [19] 2996 	ld	-16 (ix), c
    00000D1A DD 77 F1         [19] 2997 	ld	-15 (ix), a
                                   2998 ;E:\Dropbox\FAUSTO\SVILUPPI\MSX\CODE\C\MSXgl\projects\soccerlg/soccerlg_s4_b1.c:536: i16 dy = ty - (i16)g_Ball.Y;
    00000D1D 2Ar00r00         [16] 2999 	ld	hl, (#_g_Ball + 0)
    00000D20 DD 7E EC         [19] 3000 	ld	a, -20 (ix)
    00000D23 95               [ 4] 3001 	sub	a, l
    00000D24 4F               [ 4] 3002 	ld	c, a
    00000D25 DD 7E ED         [19] 3003 	ld	a, -19 (ix)
    00000D28 9C               [ 4] 3004 	sbc	a, h
    00000D29 DD 71 F2         [19] 3005 	ld	-14 (ix), c
    00000D2C DD 77 F3         [19] 3006 	ld	-13 (ix), a
                                   3007 ;E:\Dropbox\FAUSTO\SVILUPPI\MSX\CODE\C\MSXgl\projects\soccerlg/soccerlg_s4_b1.c:539: u8 speed = 3; 
    00000D2F DD 36 F4 03      [19] 3008 	ld	-12 (ix), #0x03
                                   3009 ;E:\Dropbox\FAUSTO\SVILUPPI\MSX\CODE\C\MSXgl\projects\soccerlg/soccerlg_s4_b1.c:540: if (g_Ball.ShotActive == 1) speed = 5; // Fast High Shot/Kick
    00000D33 DD 7E EB         [19] 3010 	ld	a, -21 (ix)
    00000D36 3D               [ 4] 3011 	dec	a
    00000D37 3E 01            [ 7] 3012 	ld	a, #0x01
    00000D39 28 01            [12] 3013 	jr	Z, 00485$
    00000D3B AF               [ 4] 3014 	xor	a, a
    00000D3C                       3015 00485$:
    00000D3C DD 77 F5         [19] 3016 	ld	-11 (ix), a
    00000D3F B7               [ 4] 3017 	or	a, a
    00000D40 28 07            [12] 3018 	jr	Z, 00123$
    00000D42 DD 36 F4 05      [19] 3019 	ld	-12 (ix), #0x05
    00000D46 C3r62r0D         [10] 3020 	jp	00124$
    00000D49                       3021 00123$:
                                   3022 ;E:\Dropbox\FAUSTO\SVILUPPI\MSX\CODE\C\MSXgl\projects\soccerlg/soccerlg_s4_b1.c:541: else if (g_Ball.ShotActive == 2) speed = 3; // Slower Bounce
    00000D49 DD 7E EB         [19] 3023 	ld	a, -21 (ix)
    00000D4C D6 02            [ 7] 3024 	sub	a, #0x02
    00000D4E 20 07            [12] 3025 	jr	NZ, 00120$
    00000D50 DD 36 F4 03      [19] 3026 	ld	-12 (ix), #0x03
    00000D54 C3r62r0D         [10] 3027 	jp	00124$
    00000D57                       3028 00120$:
                                   3029 ;E:\Dropbox\FAUSTO\SVILUPPI\MSX\CODE\C\MSXgl\projects\soccerlg/soccerlg_s4_b1.c:542: else if (g_Ball.ShotActive == 3) speed = 2; // Rolling
    00000D57 DD 7E EB         [19] 3030 	ld	a, -21 (ix)
    00000D5A D6 03            [ 7] 3031 	sub	a, #0x03
    00000D5C 20 04            [12] 3032 	jr	NZ, 00124$
    00000D5E DD 36 F4 02      [19] 3033 	ld	-12 (ix), #0x02
    00000D62                       3034 00124$:
                                   3035 ;E:\Dropbox\FAUSTO\SVILUPPI\MSX\CODE\C\MSXgl\projects\soccerlg/soccerlg_s4_b1.c:545: if (dx > -speed && dx < speed && dy > -speed && dy < speed) {
    00000D62 DD 7E F4         [19] 3036 	ld	a, -12 (ix)
    00000D65 DD 77 F6         [19] 3037 	ld	-10 (ix), a
    00000D68 DD 36 F7 00      [19] 3038 	ld	-9 (ix), #0x00
    00000D6C AF               [ 4] 3039 	xor	a, a
    00000D6D DD 96 F6         [19] 3040 	sub	a, -10 (ix)
    00000D70 DD 77 F8         [19] 3041 	ld	-8 (ix), a
    00000D73 9F               [ 4] 3042 	sbc	a, a
    00000D74 DD 96 F7         [19] 3043 	sub	a, -9 (ix)
    00000D77 DD 77 F9         [19] 3044 	ld	-7 (ix), a
    00000D7A DD 7E F0         [19] 3045 	ld	a, -16 (ix)
    00000D7D DD 77 FA         [19] 3046 	ld	-6 (ix), a
    00000D80 DD 7E F1         [19] 3047 	ld	a, -15 (ix)
    00000D83 DD 77 FB         [19] 3048 	ld	-5 (ix), a
    00000D86 DD 7E F8         [19] 3049 	ld	a, -8 (ix)
    00000D89 DD 96 FA         [19] 3050 	sub	a, -6 (ix)
    00000D8C DD 7E F9         [19] 3051 	ld	a, -7 (ix)
    00000D8F DD 9E FB         [19] 3052 	sbc	a, -5 (ix)
    00000D92 E2r97r0D         [10] 3053 	jp	PO, 00490$
    00000D95 EE 80            [ 7] 3054 	xor	a, #0x80
    00000D97                       3055 00490$:
    00000D97 F2rBAr12         [10] 3056 	jp	P, 00160$
    00000D9A DD 7E F4         [19] 3057 	ld	a, -12 (ix)
    00000D9D DD 77 FC         [19] 3058 	ld	-4 (ix), a
    00000DA0 DD 36 FD 00      [19] 3059 	ld	-3 (ix), #0x00
    00000DA4 DD 7E F0         [19] 3060 	ld	a, -16 (ix)
    00000DA7 DD 96 FC         [19] 3061 	sub	a, -4 (ix)
    00000DAA DD 7E F1         [19] 3062 	ld	a, -15 (ix)
    00000DAD DD 9E FD         [19] 3063 	sbc	a, -3 (ix)
    00000DB0 E2rB5r0D         [10] 3064 	jp	PO, 00491$
    00000DB3 EE 80            [ 7] 3065 	xor	a, #0x80
    00000DB5                       3066 00491$:
    00000DB5 F2rBAr12         [10] 3067 	jp	P, 00160$
    00000DB8 DD 7E F2         [19] 3068 	ld	a, -14 (ix)
    00000DBB DD 77 FE         [19] 3069 	ld	-2 (ix), a
    00000DBE DD 7E F3         [19] 3070 	ld	a, -13 (ix)
    00000DC1 DD 77 FF         [19] 3071 	ld	-1 (ix), a
    00000DC4 DD 7E F8         [19] 3072 	ld	a, -8 (ix)
    00000DC7 DD 96 FE         [19] 3073 	sub	a, -2 (ix)
    00000DCA DD 7E F9         [19] 3074 	ld	a, -7 (ix)
    00000DCD DD 9E FF         [19] 3075 	sbc	a, -1 (ix)
    00000DD0 E2rD5r0D         [10] 3076 	jp	PO, 00492$
    00000DD3 EE 80            [ 7] 3077 	xor	a, #0x80
    00000DD5                       3078 00492$:
    00000DD5 F2rBAr12         [10] 3079 	jp	P, 00160$
    00000DD8 DD 7E F2         [19] 3080 	ld	a, -14 (ix)
    00000DDB DD 96 FC         [19] 3081 	sub	a, -4 (ix)
    00000DDE DD 7E F3         [19] 3082 	ld	a, -13 (ix)
    00000DE1 DD 9E FD         [19] 3083 	sbc	a, -3 (ix)
    00000DE4 E2rE9r0D         [10] 3084 	jp	PO, 00493$
    00000DE7 EE 80            [ 7] 3085 	xor	a, #0x80
    00000DE9                       3086 00493$:
    00000DE9 F2rBAr12         [10] 3087 	jp	P, 00160$
                                   3088 ;E:\Dropbox\FAUSTO\SVILUPPI\MSX\CODE\C\MSXgl\projects\soccerlg/soccerlg_s4_b1.c:549: if (isMovingToPlayer) {
    00000DEC DD 7E EA         [19] 3089 	ld	a, -22 (ix)
    00000DEF B7               [ 4] 3090 	or	a, a
    00000DF0 28 1F            [12] 3091 	jr	Z, 00157$
                                   3092 ;E:\Dropbox\FAUSTO\SVILUPPI\MSX\CODE\C\MSXgl\projects\soccerlg/soccerlg_s4_b1.c:551: g_Ball.KickMoveState = 3; // Force ball to snap to feet immediately (No visual lag)
    00000DF2 21r0Dr00         [10] 3093 	ld	hl, #(_g_Ball + 13)
    00000DF5 36 03            [10] 3094 	ld	(hl), #0x03
                                   3095 ;E:\Dropbox\FAUSTO\SVILUPPI\MSX\CODE\C\MSXgl\projects\soccerlg/soccerlg_s4_b1.c:552: Trampoline_VOID_P1(2,PutBallOnPlayerFeet,g_Ball.PassTargetPlayerId);
    00000DF7 3Ar10r00         [13] 3096 	ld	a, (#(_g_Ball + 16) + 0)
    00000DFA F5               [11] 3097 	push	af
    00000DFB 33               [ 6] 3098 	inc	sp
    00000DFC 11r00r00         [10] 3099 	ld	de, #_PutBallOnPlayerFeet
    00000DFF 3E 02            [ 7] 3100 	ld	a, #0x02
    00000E01 CDr00r00         [17] 3101 	call	_Trampoline_VOID_P1
                                   3102 ;E:\Dropbox\FAUSTO\SVILUPPI\MSX\CODE\C\MSXgl\projects\soccerlg/soccerlg_s4_b1.c:553: g_Ball.PassTargetPlayerId = NO_VALUE;
    00000E04 21r10r00         [10] 3103 	ld	hl, #(_g_Ball + 16)
    00000E07 36 FF            [10] 3104 	ld	(hl), #0xff
                                   3105 ;E:\Dropbox\FAUSTO\SVILUPPI\MSX\CODE\C\MSXgl\projects\soccerlg/soccerlg_s4_b1.c:554: g_Ball.Size = 1;
    00000E09 21r04r00         [10] 3106 	ld	hl, #(_g_Ball + 4)
    00000E0C 36 01            [10] 3107 	ld	(hl), #0x01
                                   3108 ;E:\Dropbox\FAUSTO\SVILUPPI\MSX\CODE\C\MSXgl\projects\soccerlg/soccerlg_s4_b1.c:555: return;
    00000E0E C3r7Br15         [10] 3109 	jp	00198$
    00000E11                       3110 00157$:
                                   3111 ;E:\Dropbox\FAUSTO\SVILUPPI\MSX\CODE\C\MSXgl\projects\soccerlg/soccerlg_s4_b1.c:561: if (g_Ball.ShotActive == 1) {
    00000E11 DD 7E F5         [19] 3112 	ld	a, -11 (ix)
    00000E14 B7               [ 4] 3113 	or	a, a
    00000E15 CArD2r10         [10] 3114 	jp	Z, 00154$
                                   3115 ;E:\Dropbox\FAUSTO\SVILUPPI\MSX\CODE\C\MSXgl\projects\soccerlg/soccerlg_s4_b1.c:565: bool isInsideField = (ty >= FIELD_BOUND_Y_TOP && ty <= FIELD_BOUND_Y_BOTTOM);
    00000E18 DD 7E EC         [19] 3116 	ld	a, -20 (ix)
    00000E1B DD 77 FE         [19] 3117 	ld	-2 (ix), a
    00000E1E DD 7E ED         [19] 3118 	ld	a, -19 (ix)
    00000E21 DD 77 FF         [19] 3119 	ld	-1 (ix), a
    00000E24 DD 7E FE         [19] 3120 	ld	a, -2 (ix)
    00000E27 D6 32            [ 7] 3121 	sub	a, #0x32
    00000E29 DD 7E FF         [19] 3122 	ld	a, -1 (ix)
    00000E2C 17               [ 4] 3123 	rla
    00000E2D 3F               [ 4] 3124 	ccf
    00000E2E 1F               [ 4] 3125 	rra
    00000E2F DE 80            [ 7] 3126 	sbc	a, #0x80
    00000E31 38 12            [12] 3127 	jr	C, 00200$
    00000E33 3E AE            [ 7] 3128 	ld	a, #0xae
    00000E35 DD BE FE         [19] 3129 	cp	a, -2 (ix)
    00000E38 3E 01            [ 7] 3130 	ld	a, #0x01
    00000E3A DD 9E FF         [19] 3131 	sbc	a, -1 (ix)
    00000E3D E2r42r0E         [10] 3132 	jp	PO, 00494$
    00000E40 EE 80            [ 7] 3133 	xor	a, #0x80
    00000E42                       3134 00494$:
    00000E42 F2r4Cr0E         [10] 3135 	jp	P, 00201$
    00000E45                       3136 00200$:
    00000E45 DD 36 FF 00      [19] 3137 	ld	-1 (ix), #0x00
    00000E49 C3r50r0E         [10] 3138 	jp	00202$
    00000E4C                       3139 00201$:
    00000E4C DD 36 FF 01      [19] 3140 	ld	-1 (ix), #0x01
    00000E50                       3141 00202$:
                                   3142 ;E:\Dropbox\FAUSTO\SVILUPPI\MSX\CODE\C\MSXgl\projects\soccerlg/soccerlg_s4_b1.c:567: if (isInsideField) {
    00000E50 DD 7E FF         [19] 3143 	ld	a, -1 (ix)
    00000E53 B7               [ 4] 3144 	or	a, a
    00000E54 CArA3r12         [10] 3145 	jp	Z, 00155$
                                   3146 ;E:\Dropbox\FAUSTO\SVILUPPI\MSX\CODE\C\MSXgl\projects\soccerlg/soccerlg_s4_b1.c:571: i16 totalVectorX = (i16)g_Ball.TargetX - (i16)g_Ball.PassStartX;
    00000E57 21r17r00         [10] 3147 	ld	hl, #(_g_Ball + 23)
    00000E5A 7E               [ 7] 3148 	ld	a, (hl)
    00000E5B DD 77 FE         [19] 3149 	ld	-2 (ix), a
    00000E5E 23               [ 6] 3150 	inc	hl
    00000E5F 7E               [ 7] 3151 	ld	a, (hl)
    00000E60 DD 77 FF         [19] 3152 	ld	-1 (ix), a
    00000E63 DD 7E FE         [19] 3153 	ld	a, -2 (ix)
    00000E66 DD 77 FA         [19] 3154 	ld	-6 (ix), a
    00000E69 DD 7E FF         [19] 3155 	ld	a, -1 (ix)
    00000E6C DD 77 FB         [19] 3156 	ld	-5 (ix), a
    00000E6F 21r11r00         [10] 3157 	ld	hl, #(_g_Ball + 17)
    00000E72 7E               [ 7] 3158 	ld	a, (hl)
    00000E73 DD 77 FE         [19] 3159 	ld	-2 (ix), a
    00000E76 23               [ 6] 3160 	inc	hl
    00000E77 7E               [ 7] 3161 	ld	a, (hl)
    00000E78 DD 77 FF         [19] 3162 	ld	-1 (ix), a
    00000E7B DD 7E FE         [19] 3163 	ld	a, -2 (ix)
    00000E7E DD 77 FC         [19] 3164 	ld	-4 (ix), a
    00000E81 DD 7E FF         [19] 3165 	ld	a, -1 (ix)
    00000E84 DD 77 FD         [19] 3166 	ld	-3 (ix), a
    00000E87 DD 7E FA         [19] 3167 	ld	a, -6 (ix)
    00000E8A DD 96 FC         [19] 3168 	sub	a, -4 (ix)
    00000E8D DD 77 FE         [19] 3169 	ld	-2 (ix), a
    00000E90 DD 7E FB         [19] 3170 	ld	a, -5 (ix)
    00000E93 DD 9E FD         [19] 3171 	sbc	a, -3 (ix)
    00000E96 DD 77 FF         [19] 3172 	ld	-1 (ix), a
    00000E99 DD 7E FE         [19] 3173 	ld	a, -2 (ix)
    00000E9C DD 77 FC         [19] 3174 	ld	-4 (ix), a
    00000E9F DD 7E FF         [19] 3175 	ld	a, -1 (ix)
    00000EA2 DD 77 FD         [19] 3176 	ld	-3 (ix), a
                                   3177 ;E:\Dropbox\FAUSTO\SVILUPPI\MSX\CODE\C\MSXgl\projects\soccerlg/soccerlg_s4_b1.c:572: i16 totalVectorY = (i16)g_Ball.TargetY - (i16)g_Ball.PassStartY;
    00000EA5 21r19r00         [10] 3178 	ld	hl, #(_g_Ball + 25)
    00000EA8 7E               [ 7] 3179 	ld	a, (hl)
    00000EA9 DD 77 FE         [19] 3180 	ld	-2 (ix), a
    00000EAC 23               [ 6] 3181 	inc	hl
    00000EAD 7E               [ 7] 3182 	ld	a, (hl)
    00000EAE DD 77 FF         [19] 3183 	ld	-1 (ix), a
    00000EB1 DD 7E FE         [19] 3184 	ld	a, -2 (ix)
    00000EB4 DD 77 F8         [19] 3185 	ld	-8 (ix), a
    00000EB7 DD 7E FF         [19] 3186 	ld	a, -1 (ix)
    00000EBA DD 77 F9         [19] 3187 	ld	-7 (ix), a
    00000EBD 21r13r00         [10] 3188 	ld	hl, #(_g_Ball + 19)
    00000EC0 7E               [ 7] 3189 	ld	a, (hl)
    00000EC1 DD 77 FE         [19] 3190 	ld	-2 (ix), a
    00000EC4 23               [ 6] 3191 	inc	hl
    00000EC5 7E               [ 7] 3192 	ld	a, (hl)
    00000EC6 DD 77 FF         [19] 3193 	ld	-1 (ix), a
    00000EC9 DD 7E FE         [19] 3194 	ld	a, -2 (ix)
    00000ECC DD 77 FA         [19] 3195 	ld	-6 (ix), a
    00000ECF DD 7E FF         [19] 3196 	ld	a, -1 (ix)
    00000ED2 DD 77 FB         [19] 3197 	ld	-5 (ix), a
    00000ED5 DD 7E F8         [19] 3198 	ld	a, -8 (ix)
    00000ED8 DD 96 FA         [19] 3199 	sub	a, -6 (ix)
    00000EDB DD 77 FE         [19] 3200 	ld	-2 (ix), a
    00000EDE DD 7E F9         [19] 3201 	ld	a, -7 (ix)
    00000EE1 DD 9E FB         [19] 3202 	sbc	a, -5 (ix)
    00000EE4 DD 77 FF         [19] 3203 	ld	-1 (ix), a
                                   3204 ;E:\Dropbox\FAUSTO\SVILUPPI\MSX\CODE\C\MSXgl\projects\soccerlg/soccerlg_s4_b1.c:575: g_Ball.PassStartX = g_Ball.X;
    00000EE7 21r11r00         [10] 3205 	ld	hl, #(_g_Ball + 17)
    00000EEA DD 7E EE         [19] 3206 	ld	a, -18 (ix)
    00000EED 77               [ 7] 3207 	ld	(hl), a
    00000EEE 23               [ 6] 3208 	inc	hl
    00000EEF DD 7E EF         [19] 3209 	ld	a, -17 (ix)
    00000EF2 77               [ 7] 3210 	ld	(hl), a
                                   3211 ;E:\Dropbox\FAUSTO\SVILUPPI\MSX\CODE\C\MSXgl\projects\soccerlg/soccerlg_s4_b1.c:576: g_Ball.PassStartY = g_Ball.Y;
    00000EF3 21r00r00         [10] 3212 	ld	hl, #_g_Ball
    00000EF6 7E               [ 7] 3213 	ld	a, (hl)
    00000EF7 DD 77 FA         [19] 3214 	ld	-6 (ix), a
    00000EFA 23               [ 6] 3215 	inc	hl
    00000EFB 7E               [ 7] 3216 	ld	a, (hl)
    00000EFC DD 77 FB         [19] 3217 	ld	-5 (ix), a
    00000EFF 21r13r00         [10] 3218 	ld	hl, #(_g_Ball + 19)
    00000F02 DD 7E FA         [19] 3219 	ld	a, -6 (ix)
    00000F05 77               [ 7] 3220 	ld	(hl), a
    00000F06 23               [ 6] 3221 	inc	hl
    00000F07 DD 7E FB         [19] 3222 	ld	a, -5 (ix)
    00000F0A 77               [ 7] 3223 	ld	(hl), a
                                   3224 ;E:\Dropbox\FAUSTO\SVILUPPI\MSX\CODE\C\MSXgl\projects\soccerlg/soccerlg_s4_b1.c:579: i16 bounceDx = totalVectorX / 4; 
    00000F0B DD 7E FC         [19] 3225 	ld	a, -4 (ix)
    00000F0E DD 77 F9         [19] 3226 	ld	-7 (ix), a
    00000F11 DD 7E FD         [19] 3227 	ld	a, -3 (ix)
    00000F14 DD 77 FA         [19] 3228 	ld	-6 (ix), a
    00000F17 DD 7E F9         [19] 3229 	ld	a, -7 (ix)
    00000F1A DD 77 FC         [19] 3230 	ld	-4 (ix), a
    00000F1D DD 7E FA         [19] 3231 	ld	a, -6 (ix)
    00000F20 DD 77 FD         [19] 3232 	ld	-3 (ix), a
    00000F23 DD CB FA 7E      [20] 3233 	bit	7, -6 (ix)
    00000F27 28 10            [12] 3234 	jr	Z, 00203$
    00000F29 DD 7E F9         [19] 3235 	ld	a, -7 (ix)
    00000F2C C6 03            [ 7] 3236 	add	a, #0x03
    00000F2E DD 77 FC         [19] 3237 	ld	-4 (ix), a
    00000F31 DD 7E FA         [19] 3238 	ld	a, -6 (ix)
    00000F34 CE 00            [ 7] 3239 	adc	a, #0x00
    00000F36 DD 77 FD         [19] 3240 	ld	-3 (ix), a
    00000F39                       3241 00203$:
    00000F39 DD CB FD 2E      [23] 3242 	sra	-3 (ix)
    00000F3D DD CB FC 1E      [23] 3243 	rr	-4 (ix)
    00000F41 DD CB FD 2E      [23] 3244 	sra	-3 (ix)
    00000F45 DD CB FC 1E      [23] 3245 	rr	-4 (ix)
    00000F49 DD 7E FC         [19] 3246 	ld	a, -4 (ix)
    00000F4C DD 77 F6         [19] 3247 	ld	-10 (ix), a
    00000F4F DD 7E FD         [19] 3248 	ld	a, -3 (ix)
    00000F52 DD 77 F7         [19] 3249 	ld	-9 (ix), a
                                   3250 ;E:\Dropbox\FAUSTO\SVILUPPI\MSX\CODE\C\MSXgl\projects\soccerlg/soccerlg_s4_b1.c:580: i16 bounceDy = totalVectorY / 4; 
    00000F55 DD 7E FE         [19] 3251 	ld	a, -2 (ix)
    00000F58 DD 77 FB         [19] 3252 	ld	-5 (ix), a
    00000F5B DD 7E FF         [19] 3253 	ld	a, -1 (ix)
    00000F5E DD 77 FC         [19] 3254 	ld	-4 (ix), a
    00000F61 DD 7E FB         [19] 3255 	ld	a, -5 (ix)
    00000F64 DD 77 FE         [19] 3256 	ld	-2 (ix), a
    00000F67 DD 7E FC         [19] 3257 	ld	a, -4 (ix)
    00000F6A DD 77 FF         [19] 3258 	ld	-1 (ix), a
    00000F6D DD CB FC 7E      [20] 3259 	bit	7, -4 (ix)
    00000F71 28 10            [12] 3260 	jr	Z, 00204$
    00000F73 DD 7E FB         [19] 3261 	ld	a, -5 (ix)
    00000F76 C6 03            [ 7] 3262 	add	a, #0x03
    00000F78 DD 77 FE         [19] 3263 	ld	-2 (ix), a
    00000F7B DD 7E FC         [19] 3264 	ld	a, -4 (ix)
    00000F7E CE 00            [ 7] 3265 	adc	a, #0x00
    00000F80 DD 77 FF         [19] 3266 	ld	-1 (ix), a
    00000F83                       3267 00204$:
    00000F83 DD CB FF 2E      [23] 3268 	sra	-1 (ix)
    00000F87 DD CB FE 1E      [23] 3269 	rr	-2 (ix)
    00000F8B DD CB FF 2E      [23] 3270 	sra	-1 (ix)
    00000F8F DD CB FE 1E      [23] 3271 	rr	-2 (ix)
    00000F93 DD 7E FE         [19] 3272 	ld	a, -2 (ix)
    00000F96 DD 77 F8         [19] 3273 	ld	-8 (ix), a
    00000F99 DD 7E FF         [19] 3274 	ld	a, -1 (ix)
    00000F9C DD 77 F9         [19] 3275 	ld	-7 (ix), a
                                   3276 ;E:\Dropbox\FAUSTO\SVILUPPI\MSX\CODE\C\MSXgl\projects\soccerlg/soccerlg_s4_b1.c:583: i16 newTx = (i16)g_Ball.X + bounceDx;
    00000F9F 21r02r00         [10] 3277 	ld	hl, #(_g_Ball + 2)
    00000FA2 7E               [ 7] 3278 	ld	a, (hl)
    00000FA3 DD 77 FE         [19] 3279 	ld	-2 (ix), a
    00000FA6 23               [ 6] 3280 	inc	hl
    00000FA7 7E               [ 7] 3281 	ld	a, (hl)
    00000FA8 DD 77 FF         [19] 3282 	ld	-1 (ix), a
    00000FAB DD 7E FE         [19] 3283 	ld	a, -2 (ix)
    00000FAE DD 77 FC         [19] 3284 	ld	-4 (ix), a
    00000FB1 DD 7E FF         [19] 3285 	ld	a, -1 (ix)
    00000FB4 DD 77 FD         [19] 3286 	ld	-3 (ix), a
    00000FB7 DD 7E F6         [19] 3287 	ld	a, -10 (ix)
    00000FBA DD 86 FC         [19] 3288 	add	a, -4 (ix)
    00000FBD DD 77 FE         [19] 3289 	ld	-2 (ix), a
    00000FC0 DD 7E F7         [19] 3290 	ld	a, -9 (ix)
    00000FC3 DD 8E FD         [19] 3291 	adc	a, -3 (ix)
    00000FC6 DD 77 FF         [19] 3292 	ld	-1 (ix), a
    00000FC9 DD 7E FE         [19] 3293 	ld	a, -2 (ix)
    00000FCC DD 77 FA         [19] 3294 	ld	-6 (ix), a
    00000FCF DD 7E FF         [19] 3295 	ld	a, -1 (ix)
    00000FD2 DD 77 FB         [19] 3296 	ld	-5 (ix), a
                                   3297 ;E:\Dropbox\FAUSTO\SVILUPPI\MSX\CODE\C\MSXgl\projects\soccerlg/soccerlg_s4_b1.c:584: i16 newTy = (i16)g_Ball.Y + bounceDy;
    00000FD5 21r00r00         [10] 3298 	ld	hl, #_g_Ball
    00000FD8 7E               [ 7] 3299 	ld	a, (hl)
    00000FD9 DD 77 FE         [19] 3300 	ld	-2 (ix), a
    00000FDC 23               [ 6] 3301 	inc	hl
    00000FDD 7E               [ 7] 3302 	ld	a, (hl)
    00000FDE DD 77 FF         [19] 3303 	ld	-1 (ix), a
    00000FE1 DD 7E FE         [19] 3304 	ld	a, -2 (ix)
    00000FE4 DD 77 FC         [19] 3305 	ld	-4 (ix), a
    00000FE7 DD 7E FF         [19] 3306 	ld	a, -1 (ix)
    00000FEA DD 77 FD         [19] 3307 	ld	-3 (ix), a
    00000FED DD 7E F8         [19] 3308 	ld	a, -8 (ix)
    00000FF0 DD 86 FC         [19] 3309 	add	a, -4 (ix)
    00000FF3 DD 77 FE         [19] 3310 	ld	-2 (ix), a
    00000FF6 DD 7E F9         [19] 3311 	ld	a, -7 (ix)
    00000FF9 DD 8E FD         [19] 3312 	adc	a, -3 (ix)
    00000FFC DD 77 FF         [19] 3313 	ld	-1 (ix), a
    00000FFF DD 7E FE         [19] 3314 	ld	a, -2 (ix)
    00001002 DD 77 FC         [19] 3315 	ld	-4 (ix), a
    00001005 DD 7E FF         [19] 3316 	ld	a, -1 (ix)
    00001008 DD 77 FD         [19] 3317 	ld	-3 (ix), a
                                   3318 ;E:\Dropbox\FAUSTO\SVILUPPI\MSX\CODE\C\MSXgl\projects\soccerlg/soccerlg_s4_b1.c:587: if (newTx < FIELD_BOUND_X_LEFT) newTx = FIELD_BOUND_X_LEFT;
    0000100B DD 7E FA         [19] 3319 	ld	a, -6 (ix)
    0000100E DD 77 FE         [19] 3320 	ld	-2 (ix), a
    00001011 DD 7E FB         [19] 3321 	ld	a, -5 (ix)
    00001014 DD 77 FF         [19] 3322 	ld	-1 (ix), a
    00001017 DD 7E FE         [19] 3323 	ld	a, -2 (ix)
    0000101A D6 0A            [ 7] 3324 	sub	a, #0x0a
    0000101C DD 7E FF         [19] 3325 	ld	a, -1 (ix)
    0000101F 17               [ 4] 3326 	rla
    00001020 3F               [ 4] 3327 	ccf
    00001021 1F               [ 4] 3328 	rra
    00001022 DE 80            [ 7] 3329 	sbc	a, #0x80
    00001024 30 0B            [12] 3330 	jr	NC, 00128$
    00001026 DD 36 FA 0A      [19] 3331 	ld	-6 (ix), #0x0a
    0000102A DD 36 FB 00      [19] 3332 	ld	-5 (ix), #0
    0000102E C3r4Br10         [10] 3333 	jp	00129$
    00001031                       3334 00128$:
                                   3335 ;E:\Dropbox\FAUSTO\SVILUPPI\MSX\CODE\C\MSXgl\projects\soccerlg/soccerlg_s4_b1.c:588: else if (newTx > FIELD_BOUND_X_RIGHT) newTx = FIELD_BOUND_X_RIGHT;
    00001031 3E EC            [ 7] 3336 	ld	a, #0xec
    00001033 DD BE FE         [19] 3337 	cp	a, -2 (ix)
    00001036 3E 00            [ 7] 3338 	ld	a, #0x00
    00001038 DD 9E FF         [19] 3339 	sbc	a, -1 (ix)
    0000103B E2r40r10         [10] 3340 	jp	PO, 00495$
    0000103E EE 80            [ 7] 3341 	xor	a, #0x80
    00001040                       3342 00495$:
    00001040 F2r4Br10         [10] 3343 	jp	P, 00129$
    00001043 DD 36 FA EC      [19] 3344 	ld	-6 (ix), #0xec
    00001047 DD 36 FB 00      [19] 3345 	ld	-5 (ix), #0
    0000104B                       3346 00129$:
                                   3347 ;E:\Dropbox\FAUSTO\SVILUPPI\MSX\CODE\C\MSXgl\projects\soccerlg/soccerlg_s4_b1.c:590: if (newTy < FIELD_BOUND_Y_TOP) newTy = FIELD_BOUND_Y_TOP;
    0000104B DD 4E FC         [19] 3348 	ld	c, -4 (ix)
    0000104E DD 46 FD         [19] 3349 	ld	b, -3 (ix)
    00001051 79               [ 4] 3350 	ld	a, c
    00001052 D6 32            [ 7] 3351 	sub	a, #0x32
    00001054 78               [ 4] 3352 	ld	a, b
    00001055 17               [ 4] 3353 	rla
    00001056 3F               [ 4] 3354 	ccf
    00001057 1F               [ 4] 3355 	rra
    00001058 DE 80            [ 7] 3356 	sbc	a, #0x80
    0000105A 30 0B            [12] 3357 	jr	NC, 00133$
    0000105C DD 36 FC 32      [19] 3358 	ld	-4 (ix), #0x32
    00001060 DD 36 FD 00      [19] 3359 	ld	-3 (ix), #0
    00001064 C3r7Dr10         [10] 3360 	jp	00134$
    00001067                       3361 00133$:
                                   3362 ;E:\Dropbox\FAUSTO\SVILUPPI\MSX\CODE\C\MSXgl\projects\soccerlg/soccerlg_s4_b1.c:591: else if (newTy > FIELD_BOUND_Y_BOTTOM) newTy = FIELD_BOUND_Y_BOTTOM;
    00001067 3E AE            [ 7] 3363 	ld	a, #0xae
    00001069 B9               [ 4] 3364 	cp	a, c
    0000106A 3E 01            [ 7] 3365 	ld	a, #0x01
    0000106C 98               [ 4] 3366 	sbc	a, b
    0000106D E2r72r10         [10] 3367 	jp	PO, 00496$
    00001070 EE 80            [ 7] 3368 	xor	a, #0x80
    00001072                       3369 00496$:
    00001072 F2r7Dr10         [10] 3370 	jp	P, 00134$
    00001075 DD 36 FC AE      [19] 3371 	ld	-4 (ix), #0xae
    00001079 DD 36 FD 01      [19] 3372 	ld	-3 (ix), #0x01
    0000107D                       3373 00134$:
                                   3374 ;E:\Dropbox\FAUSTO\SVILUPPI\MSX\CODE\C\MSXgl\projects\soccerlg/soccerlg_s4_b1.c:593: g_Ball.TargetX = newTx;
    0000107D 21r17r00         [10] 3375 	ld	hl, #(_g_Ball + 23)
    00001080 DD 7E FA         [19] 3376 	ld	a, -6 (ix)
    00001083 77               [ 7] 3377 	ld	(hl), a
    00001084 23               [ 6] 3378 	inc	hl
    00001085 DD 7E FB         [19] 3379 	ld	a, -5 (ix)
    00001088 77               [ 7] 3380 	ld	(hl), a
                                   3381 ;E:\Dropbox\FAUSTO\SVILUPPI\MSX\CODE\C\MSXgl\projects\soccerlg/soccerlg_s4_b1.c:594: g_Ball.TargetY = newTy;
    00001089 21r19r00         [10] 3382 	ld	hl, #(_g_Ball + 25)
    0000108C DD 7E FC         [19] 3383 	ld	a, -4 (ix)
    0000108F 77               [ 7] 3384 	ld	(hl), a
    00001090 23               [ 6] 3385 	inc	hl
    00001091 DD 7E FD         [19] 3386 	ld	a, -3 (ix)
    00001094 77               [ 7] 3387 	ld	(hl), a
                                   3388 ;E:\Dropbox\FAUSTO\SVILUPPI\MSX\CODE\C\MSXgl\projects\soccerlg/soccerlg_s4_b1.c:597: g_Ball.PassTotalDist = (u16)(Math_Abs32(bounceDx) + Math_Abs32(bounceDy));
    00001095 DD 5E F6         [19] 3389 	ld	e, -10 (ix)
    00001098 DD 7E F7         [19] 3390 	ld	a, -9 (ix)
    0000109B 57               [ 4] 3391 	ld	d, a
    0000109C 07               [ 4] 3392 	rlca
    0000109D ED 62            [15] 3393 	sbc	hl, hl
    0000109F CDr00r00         [17] 3394 	call	_Math_Abs32
    000010A2 E5               [11] 3395 	push	hl
    000010A3 FD E1            [14] 3396 	pop	iy
    000010A5 4B               [ 4] 3397 	ld	c, e
    000010A6 42               [ 4] 3398 	ld	b, d
    000010A7 DD 5E F8         [19] 3399 	ld	e, -8 (ix)
    000010AA DD 7E F9         [19] 3400 	ld	a, -7 (ix)
    000010AD 57               [ 4] 3401 	ld	d, a
    000010AE 07               [ 4] 3402 	rlca
    000010AF ED 62            [15] 3403 	sbc	hl, hl
    000010B1 C5               [11] 3404 	push	bc
    000010B2 FD E5            [15] 3405 	push	iy
    000010B4 CDr00r00         [17] 3406 	call	_Math_Abs32
    000010B7 FD E1            [14] 3407 	pop	iy
    000010B9 C1               [10] 3408 	pop	bc
    000010BA EB               [ 4] 3409 	ex	de, hl
    000010BB 09               [11] 3410 	add	hl, bc
    000010BC EB               [ 4] 3411 	ex	de, hl
    000010BD ED 53r15r00      [20] 3412 	ld	((_g_Ball + 21)), de
                                   3413 ;E:\Dropbox\FAUSTO\SVILUPPI\MSX\CODE\C\MSXgl\projects\soccerlg/soccerlg_s4_b1.c:599: if (g_Ball.PassTotalDist > 5) {
    000010C1 3E 05            [ 7] 3414 	ld	a, #0x05
    000010C3 BB               [ 4] 3415 	cp	a, e
    000010C4 3E 00            [ 7] 3416 	ld	a, #0x00
    000010C6 9A               [ 4] 3417 	sbc	a, d
    000010C7 D2rA3r12         [10] 3418 	jp	NC, 00155$
                                   3419 ;E:\Dropbox\FAUSTO\SVILUPPI\MSX\CODE\C\MSXgl\projects\soccerlg/soccerlg_s4_b1.c:600: g_Ball.ShotActive = 2; // Enter Bounce State
    000010CA 21r1Br00         [10] 3420 	ld	hl, #(_g_Ball + 27)
    000010CD 36 02            [10] 3421 	ld	(hl), #0x02
                                   3422 ;E:\Dropbox\FAUSTO\SVILUPPI\MSX\CODE\C\MSXgl\projects\soccerlg/soccerlg_s4_b1.c:601: return; 
    000010CF C3r7Br15         [10] 3423 	jp	00198$
    000010D2                       3424 00154$:
                                   3425 ;E:\Dropbox\FAUSTO\SVILUPPI\MSX\CODE\C\MSXgl\projects\soccerlg/soccerlg_s4_b1.c:604: } else if (g_Ball.ShotActive == 2) {
    000010D2 DD 7E EB         [19] 3426 	ld	a, -21 (ix)
    000010D5 D6 02            [ 7] 3427 	sub	a, #0x02
    000010D7 C2rA3r12         [10] 3428 	jp	NZ,00155$
                                   3429 ;E:\Dropbox\FAUSTO\SVILUPPI\MSX\CODE\C\MSXgl\projects\soccerlg/soccerlg_s4_b1.c:608: i16 vecX = (i16)g_Ball.TargetX - (i16)g_Ball.PassStartX;
    000010DA ED 4Br17r00      [20] 3430 	ld	bc, (#(_g_Ball + 23) + 0)
    000010DE 2Ar11r00         [16] 3431 	ld	hl, (#(_g_Ball + 17) + 0)
    000010E1 79               [ 4] 3432 	ld	a, c
    000010E2 95               [ 4] 3433 	sub	a, l
    000010E3 4F               [ 4] 3434 	ld	c, a
    000010E4 78               [ 4] 3435 	ld	a, b
    000010E5 9C               [ 4] 3436 	sbc	a, h
    000010E6 47               [ 4] 3437 	ld	b, a
                                   3438 ;E:\Dropbox\FAUSTO\SVILUPPI\MSX\CODE\C\MSXgl\projects\soccerlg/soccerlg_s4_b1.c:609: i16 vecY = (i16)g_Ball.TargetY - (i16)g_Ball.PassStartY;
    000010E7 ED 5Br19r00      [20] 3439 	ld	de, (#(_g_Ball + 25) + 0)
    000010EB 2Ar13r00         [16] 3440 	ld	hl, (#(_g_Ball + 19) + 0)
    000010EE 7B               [ 4] 3441 	ld	a, e
    000010EF 95               [ 4] 3442 	sub	a, l
    000010F0 5F               [ 4] 3443 	ld	e, a
    000010F1 7A               [ 4] 3444 	ld	a, d
    000010F2 9C               [ 4] 3445 	sbc	a, h
    000010F3 57               [ 4] 3446 	ld	d, a
    000010F4 DD 73 FE         [19] 3447 	ld	-2 (ix), e
    000010F7 DD 72 FF         [19] 3448 	ld	-1 (ix), d
                                   3449 ;E:\Dropbox\FAUSTO\SVILUPPI\MSX\CODE\C\MSXgl\projects\soccerlg/soccerlg_s4_b1.c:611: g_Ball.PassStartX = g_Ball.X;
    000010FA 21r11r00         [10] 3450 	ld	hl, #(_g_Ball + 17)
    000010FD DD 7E EE         [19] 3451 	ld	a, -18 (ix)
    00001100 77               [ 7] 3452 	ld	(hl), a
    00001101 23               [ 6] 3453 	inc	hl
    00001102 DD 7E EF         [19] 3454 	ld	a, -17 (ix)
    00001105 77               [ 7] 3455 	ld	(hl), a
                                   3456 ;E:\Dropbox\FAUSTO\SVILUPPI\MSX\CODE\C\MSXgl\projects\soccerlg/soccerlg_s4_b1.c:612: g_Ball.PassStartY = g_Ball.Y;
    00001106 ED 5Br00r00      [20] 3457 	ld	de, (#_g_Ball + 0)
    0000110A ED 53r13r00      [20] 3458 	ld	((_g_Ball + 19)), de
                                   3459 ;E:\Dropbox\FAUSTO\SVILUPPI\MSX\CODE\C\MSXgl\projects\soccerlg/soccerlg_s4_b1.c:615: i16 rollDx = vecX / 4; 
    0000110E 59               [ 4] 3460 	ld	e, c
    0000110F 50               [ 4] 3461 	ld	d, b
    00001110 CB 78            [ 8] 3462 	bit	7, b
    00001112 28 05            [12] 3463 	jr	Z, 00205$
    00001114 59               [ 4] 3464 	ld	e, c
    00001115 50               [ 4] 3465 	ld	d, b
    00001116 13               [ 6] 3466 	inc	de
    00001117 13               [ 6] 3467 	inc	de
    00001118 13               [ 6] 3468 	inc	de
    00001119                       3469 00205$:
    00001119 CB 2A            [ 8] 3470 	sra	d
    0000111B CB 1B            [ 8] 3471 	rr	e
    0000111D CB 2A            [ 8] 3472 	sra	d
    0000111F CB 1B            [ 8] 3473 	rr	e
    00001121 DD 73 F6         [19] 3474 	ld	-10 (ix), e
    00001124 DD 72 F7         [19] 3475 	ld	-9 (ix), d
                                   3476 ;E:\Dropbox\FAUSTO\SVILUPPI\MSX\CODE\C\MSXgl\projects\soccerlg/soccerlg_s4_b1.c:616: i16 rollDy = vecY / 4; 
    00001127 DD 7E FE         [19] 3477 	ld	a, -2 (ix)
    0000112A DD 77 FC         [19] 3478 	ld	-4 (ix), a
    0000112D DD 7E FF         [19] 3479 	ld	a, -1 (ix)
    00001130 DD 77 FD         [19] 3480 	ld	-3 (ix), a
    00001133 DD 7E FC         [19] 3481 	ld	a, -4 (ix)
    00001136 DD 77 FE         [19] 3482 	ld	-2 (ix), a
    00001139 DD 7E FD         [19] 3483 	ld	a, -3 (ix)
    0000113C DD 77 FF         [19] 3484 	ld	-1 (ix), a
    0000113F DD CB FD 7E      [20] 3485 	bit	7, -3 (ix)
    00001143 28 10            [12] 3486 	jr	Z, 00206$
    00001145 DD 7E FC         [19] 3487 	ld	a, -4 (ix)
    00001148 C6 03            [ 7] 3488 	add	a, #0x03
    0000114A DD 77 FE         [19] 3489 	ld	-2 (ix), a
    0000114D DD 7E FD         [19] 3490 	ld	a, -3 (ix)
    00001150 CE 00            [ 7] 3491 	adc	a, #0x00
    00001152 DD 77 FF         [19] 3492 	ld	-1 (ix), a
    00001155                       3493 00206$:
    00001155 DD CB FF 2E      [23] 3494 	sra	-1 (ix)
    00001159 DD CB FE 1E      [23] 3495 	rr	-2 (ix)
    0000115D DD CB FF 2E      [23] 3496 	sra	-1 (ix)
    00001161 DD CB FE 1E      [23] 3497 	rr	-2 (ix)
    00001165 DD 7E FE         [19] 3498 	ld	a, -2 (ix)
    00001168 DD 77 F8         [19] 3499 	ld	-8 (ix), a
    0000116B DD 7E FF         [19] 3500 	ld	a, -1 (ix)
    0000116E DD 77 F9         [19] 3501 	ld	-7 (ix), a
                                   3502 ;E:\Dropbox\FAUSTO\SVILUPPI\MSX\CODE\C\MSXgl\projects\soccerlg/soccerlg_s4_b1.c:621: i16 rollTx = (i16)g_Ball.X + rollDx;
    00001171 21r02r00         [10] 3503 	ld	hl, #(_g_Ball + 2)
    00001174 7E               [ 7] 3504 	ld	a, (hl)
    00001175 DD 77 FE         [19] 3505 	ld	-2 (ix), a
    00001178 23               [ 6] 3506 	inc	hl
    00001179 7E               [ 7] 3507 	ld	a, (hl)
    0000117A DD 77 FF         [19] 3508 	ld	-1 (ix), a
    0000117D DD 7E FE         [19] 3509 	ld	a, -2 (ix)
    00001180 DD 77 FC         [19] 3510 	ld	-4 (ix), a
    00001183 DD 7E FF         [19] 3511 	ld	a, -1 (ix)
    00001186 DD 77 FD         [19] 3512 	ld	-3 (ix), a
    00001189 DD 7E F6         [19] 3513 	ld	a, -10 (ix)
    0000118C DD 86 FC         [19] 3514 	add	a, -4 (ix)
    0000118F DD 77 FE         [19] 3515 	ld	-2 (ix), a
    00001192 DD 7E F7         [19] 3516 	ld	a, -9 (ix)
    00001195 DD 8E FD         [19] 3517 	adc	a, -3 (ix)
    00001198 DD 77 FF         [19] 3518 	ld	-1 (ix), a
    0000119B DD 7E FE         [19] 3519 	ld	a, -2 (ix)
    0000119E DD 77 FA         [19] 3520 	ld	-6 (ix), a
    000011A1 DD 7E FF         [19] 3521 	ld	a, -1 (ix)
    000011A4 DD 77 FB         [19] 3522 	ld	-5 (ix), a
                                   3523 ;E:\Dropbox\FAUSTO\SVILUPPI\MSX\CODE\C\MSXgl\projects\soccerlg/soccerlg_s4_b1.c:622: i16 rollTy = (i16)g_Ball.Y + rollDy;
    000011A7 21r00r00         [10] 3524 	ld	hl, #_g_Ball
    000011AA 7E               [ 7] 3525 	ld	a, (hl)
    000011AB DD 77 FE         [19] 3526 	ld	-2 (ix), a
    000011AE 23               [ 6] 3527 	inc	hl
    000011AF 7E               [ 7] 3528 	ld	a, (hl)
    000011B0 DD 77 FF         [19] 3529 	ld	-1 (ix), a
    000011B3 DD 7E FE         [19] 3530 	ld	a, -2 (ix)
    000011B6 DD 77 FC         [19] 3531 	ld	-4 (ix), a
    000011B9 DD 7E FF         [19] 3532 	ld	a, -1 (ix)
    000011BC DD 77 FD         [19] 3533 	ld	-3 (ix), a
    000011BF DD 7E F8         [19] 3534 	ld	a, -8 (ix)
    000011C2 DD 86 FC         [19] 3535 	add	a, -4 (ix)
    000011C5 DD 77 FE         [19] 3536 	ld	-2 (ix), a
    000011C8 DD 7E F9         [19] 3537 	ld	a, -7 (ix)
    000011CB DD 8E FD         [19] 3538 	adc	a, -3 (ix)
    000011CE DD 77 FF         [19] 3539 	ld	-1 (ix), a
    000011D1 DD 7E FE         [19] 3540 	ld	a, -2 (ix)
    000011D4 DD 77 FC         [19] 3541 	ld	-4 (ix), a
    000011D7 DD 7E FF         [19] 3542 	ld	a, -1 (ix)
    000011DA DD 77 FD         [19] 3543 	ld	-3 (ix), a
                                   3544 ;E:\Dropbox\FAUSTO\SVILUPPI\MSX\CODE\C\MSXgl\projects\soccerlg/soccerlg_s4_b1.c:625: if (rollTx < FIELD_BOUND_X_LEFT) rollTx = FIELD_BOUND_X_LEFT;
    000011DD DD 7E FA         [19] 3545 	ld	a, -6 (ix)
    000011E0 DD 77 FE         [19] 3546 	ld	-2 (ix), a
    000011E3 DD 7E FB         [19] 3547 	ld	a, -5 (ix)
    000011E6 DD 77 FF         [19] 3548 	ld	-1 (ix), a
    000011E9 DD 7E FE         [19] 3549 	ld	a, -2 (ix)
    000011EC D6 0A            [ 7] 3550 	sub	a, #0x0a
    000011EE DD 7E FF         [19] 3551 	ld	a, -1 (ix)
    000011F1 17               [ 4] 3552 	rla
    000011F2 3F               [ 4] 3553 	ccf
    000011F3 1F               [ 4] 3554 	rra
    000011F4 DE 80            [ 7] 3555 	sbc	a, #0x80
    000011F6 30 0B            [12] 3556 	jr	NC, 00142$
    000011F8 DD 36 FA 0A      [19] 3557 	ld	-6 (ix), #0x0a
    000011FC DD 36 FB 00      [19] 3558 	ld	-5 (ix), #0
    00001200 C3r1Dr12         [10] 3559 	jp	00143$
    00001203                       3560 00142$:
                                   3561 ;E:\Dropbox\FAUSTO\SVILUPPI\MSX\CODE\C\MSXgl\projects\soccerlg/soccerlg_s4_b1.c:626: else if (rollTx > FIELD_BOUND_X_RIGHT) rollTx = FIELD_BOUND_X_RIGHT;
    00001203 3E EC            [ 7] 3562 	ld	a, #0xec
    00001205 DD BE FE         [19] 3563 	cp	a, -2 (ix)
    00001208 3E 00            [ 7] 3564 	ld	a, #0x00
    0000120A DD 9E FF         [19] 3565 	sbc	a, -1 (ix)
    0000120D E2r12r12         [10] 3566 	jp	PO, 00499$
    00001210 EE 80            [ 7] 3567 	xor	a, #0x80
    00001212                       3568 00499$:
    00001212 F2r1Dr12         [10] 3569 	jp	P, 00143$
    00001215 DD 36 FA EC      [19] 3570 	ld	-6 (ix), #0xec
    00001219 DD 36 FB 00      [19] 3571 	ld	-5 (ix), #0
    0000121D                       3572 00143$:
                                   3573 ;E:\Dropbox\FAUSTO\SVILUPPI\MSX\CODE\C\MSXgl\projects\soccerlg/soccerlg_s4_b1.c:627: if (rollTy < FIELD_BOUND_Y_TOP) rollTy = FIELD_BOUND_Y_TOP;
    0000121D DD 4E FC         [19] 3574 	ld	c, -4 (ix)
    00001220 DD 46 FD         [19] 3575 	ld	b, -3 (ix)
    00001223 79               [ 4] 3576 	ld	a, c
    00001224 D6 32            [ 7] 3577 	sub	a, #0x32
    00001226 78               [ 4] 3578 	ld	a, b
    00001227 17               [ 4] 3579 	rla
    00001228 3F               [ 4] 3580 	ccf
    00001229 1F               [ 4] 3581 	rra
    0000122A DE 80            [ 7] 3582 	sbc	a, #0x80
    0000122C 30 0B            [12] 3583 	jr	NC, 00147$
    0000122E DD 36 FC 32      [19] 3584 	ld	-4 (ix), #0x32
    00001232 DD 36 FD 00      [19] 3585 	ld	-3 (ix), #0
    00001236 C3r4Fr12         [10] 3586 	jp	00148$
    00001239                       3587 00147$:
                                   3588 ;E:\Dropbox\FAUSTO\SVILUPPI\MSX\CODE\C\MSXgl\projects\soccerlg/soccerlg_s4_b1.c:628: else if (rollTy > FIELD_BOUND_Y_BOTTOM) rollTy = FIELD_BOUND_Y_BOTTOM;
    00001239 3E AE            [ 7] 3589 	ld	a, #0xae
    0000123B B9               [ 4] 3590 	cp	a, c
    0000123C 3E 01            [ 7] 3591 	ld	a, #0x01
    0000123E 98               [ 4] 3592 	sbc	a, b
    0000123F E2r44r12         [10] 3593 	jp	PO, 00500$
    00001242 EE 80            [ 7] 3594 	xor	a, #0x80
    00001244                       3595 00500$:
    00001244 F2r4Fr12         [10] 3596 	jp	P, 00148$
    00001247 DD 36 FC AE      [19] 3597 	ld	-4 (ix), #0xae
    0000124B DD 36 FD 01      [19] 3598 	ld	-3 (ix), #0x01
    0000124F                       3599 00148$:
                                   3600 ;E:\Dropbox\FAUSTO\SVILUPPI\MSX\CODE\C\MSXgl\projects\soccerlg/soccerlg_s4_b1.c:630: g_Ball.TargetX = rollTx;
    0000124F 21r17r00         [10] 3601 	ld	hl, #(_g_Ball + 23)
    00001252 DD 7E FA         [19] 3602 	ld	a, -6 (ix)
    00001255 77               [ 7] 3603 	ld	(hl), a
    00001256 23               [ 6] 3604 	inc	hl
    00001257 DD 7E FB         [19] 3605 	ld	a, -5 (ix)
    0000125A 77               [ 7] 3606 	ld	(hl), a
                                   3607 ;E:\Dropbox\FAUSTO\SVILUPPI\MSX\CODE\C\MSXgl\projects\soccerlg/soccerlg_s4_b1.c:631: g_Ball.TargetY = rollTy;
    0000125B 21r19r00         [10] 3608 	ld	hl, #(_g_Ball + 25)
    0000125E DD 7E FC         [19] 3609 	ld	a, -4 (ix)
    00001261 77               [ 7] 3610 	ld	(hl), a
    00001262 23               [ 6] 3611 	inc	hl
    00001263 DD 7E FD         [19] 3612 	ld	a, -3 (ix)
    00001266 77               [ 7] 3613 	ld	(hl), a
                                   3614 ;E:\Dropbox\FAUSTO\SVILUPPI\MSX\CODE\C\MSXgl\projects\soccerlg/soccerlg_s4_b1.c:632: g_Ball.PassTotalDist = (u16)(Math_Abs32(rollDx) + Math_Abs32(rollDy));
    00001267 DD 5E F6         [19] 3615 	ld	e, -10 (ix)
    0000126A DD 7E F7         [19] 3616 	ld	a, -9 (ix)
    0000126D 57               [ 4] 3617 	ld	d, a
    0000126E 07               [ 4] 3618 	rlca
    0000126F ED 62            [15] 3619 	sbc	hl, hl
    00001271 CDr00r00         [17] 3620 	call	_Math_Abs32
    00001274 E5               [11] 3621 	push	hl
    00001275 FD E1            [14] 3622 	pop	iy
    00001277 4B               [ 4] 3623 	ld	c, e
    00001278 42               [ 4] 3624 	ld	b, d
    00001279 DD 5E F8         [19] 3625 	ld	e, -8 (ix)
    0000127C DD 7E F9         [19] 3626 	ld	a, -7 (ix)
    0000127F 57               [ 4] 3627 	ld	d, a
    00001280 07               [ 4] 3628 	rlca
    00001281 ED 62            [15] 3629 	sbc	hl, hl
    00001283 C5               [11] 3630 	push	bc
    00001284 FD E5            [15] 3631 	push	iy
    00001286 CDr00r00         [17] 3632 	call	_Math_Abs32
    00001289 FD E1            [14] 3633 	pop	iy
    0000128B C1               [10] 3634 	pop	bc
    0000128C EB               [ 4] 3635 	ex	de, hl
    0000128D 09               [11] 3636 	add	hl, bc
    0000128E EB               [ 4] 3637 	ex	de, hl
    0000128F ED 53r15r00      [20] 3638 	ld	((_g_Ball + 21)), de
                                   3639 ;E:\Dropbox\FAUSTO\SVILUPPI\MSX\CODE\C\MSXgl\projects\soccerlg/soccerlg_s4_b1.c:634: if (g_Ball.PassTotalDist > 2) {
    00001293 3E 02            [ 7] 3640 	ld	a, #0x02
    00001295 BB               [ 4] 3641 	cp	a, e
    00001296 3E 00            [ 7] 3642 	ld	a, #0x00
    00001298 9A               [ 4] 3643 	sbc	a, d
    00001299 30 08            [12] 3644 	jr	NC, 00155$
                                   3645 ;E:\Dropbox\FAUSTO\SVILUPPI\MSX\CODE\C\MSXgl\projects\soccerlg/soccerlg_s4_b1.c:635: g_Ball.ShotActive = 3; // ROLLING
    0000129B 21r1Br00         [10] 3646 	ld	hl, #(_g_Ball + 27)
    0000129E 36 03            [10] 3647 	ld	(hl), #0x03
                                   3648 ;E:\Dropbox\FAUSTO\SVILUPPI\MSX\CODE\C\MSXgl\projects\soccerlg/soccerlg_s4_b1.c:636: return;
    000012A0 C3r7Br15         [10] 3649 	jp	00198$
    000012A3                       3650 00155$:
                                   3651 ;E:\Dropbox\FAUSTO\SVILUPPI\MSX\CODE\C\MSXgl\projects\soccerlg/soccerlg_s4_b1.c:641: g_Ball.ShotActive = 0;
    000012A3 21r1Br00         [10] 3652 	ld	hl, #(_g_Ball + 27)
    000012A6 36 00            [10] 3653 	ld	(hl), #0x00
                                   3654 ;E:\Dropbox\FAUSTO\SVILUPPI\MSX\CODE\C\MSXgl\projects\soccerlg/soccerlg_s4_b1.c:642: g_Ball.PassTargetPlayerId = NO_VALUE;
    000012A8 21r10r00         [10] 3655 	ld	hl, #(_g_Ball + 16)
    000012AB 36 FF            [10] 3656 	ld	(hl), #0xff
                                   3657 ;E:\Dropbox\FAUSTO\SVILUPPI\MSX\CODE\C\MSXgl\projects\soccerlg/soccerlg_s4_b1.c:643: g_Ball.PossessionPlayerId = NO_VALUE;
    000012AD 21r06r00         [10] 3658 	ld	hl, #(_g_Ball + 6)
    000012B0 36 FF            [10] 3659 	ld	(hl), #0xff
                                   3660 ;E:\Dropbox\FAUSTO\SVILUPPI\MSX\CODE\C\MSXgl\projects\soccerlg/soccerlg_s4_b1.c:644: g_Ball.Size = 1;
    000012B2 21r04r00         [10] 3661 	ld	hl, #(_g_Ball + 4)
    000012B5 36 01            [10] 3662 	ld	(hl), #0x01
                                   3663 ;E:\Dropbox\FAUSTO\SVILUPPI\MSX\CODE\C\MSXgl\projects\soccerlg/soccerlg_s4_b1.c:646: return;
    000012B7 C3r7Br15         [10] 3664 	jp	00198$
    000012BA                       3665 00160$:
                                   3666 ;E:\Dropbox\FAUSTO\SVILUPPI\MSX\CODE\C\MSXgl\projects\soccerlg/soccerlg_s4_b1.c:651: if (Math_Abs32(dx) > Math_Abs32(dy)) {
    000012BA DD 7E F0         [19] 3667 	ld	a, -16 (ix)
    000012BD DD 77 E8         [19] 3668 	ld	-24 (ix), a
    000012C0 DD 7E F1         [19] 3669 	ld	a, -15 (ix)
    000012C3 DD 77 E9         [19] 3670 	ld	-23 (ix), a
    000012C6 07               [ 4] 3671 	rlca
    000012C7 9F               [ 4] 3672 	sbc	a, a
    000012C8 DD 77 EA         [19] 3673 	ld	-22 (ix), a
    000012CB DD 77 EB         [19] 3674 	ld	-21 (ix), a
    000012CE D1               [10] 3675 	pop	de
    000012CF D5               [11] 3676 	push	de
    000012D0 DD 6E EA         [19] 3677 	ld	l, -22 (ix)
                                   3678 ;	spillPairReg hl
                                   3679 ;	spillPairReg hl
    000012D3 DD 66 EB         [19] 3680 	ld	h, -21 (ix)
                                   3681 ;	spillPairReg hl
                                   3682 ;	spillPairReg hl
    000012D6 CDr00r00         [17] 3683 	call	_Math_Abs32
    000012D9 4B               [ 4] 3684 	ld	c, e
    000012DA 42               [ 4] 3685 	ld	b, d
    000012DB DD 7E F2         [19] 3686 	ld	a, -14 (ix)
    000012DE DD 77 EC         [19] 3687 	ld	-20 (ix), a
    000012E1 DD 7E F3         [19] 3688 	ld	a, -13 (ix)
    000012E4 DD 77 ED         [19] 3689 	ld	-19 (ix), a
    000012E7 07               [ 4] 3690 	rlca
    000012E8 9F               [ 4] 3691 	sbc	a, a
    000012E9 DD 77 EE         [19] 3692 	ld	-18 (ix), a
    000012EC DD 77 EF         [19] 3693 	ld	-17 (ix), a
    000012EF E5               [11] 3694 	push	hl
    000012F0 C5               [11] 3695 	push	bc
    000012F1 DD 5E EC         [19] 3696 	ld	e, -20 (ix)
    000012F4 DD 56 ED         [19] 3697 	ld	d, -19 (ix)
    000012F7 DD 6E EE         [19] 3698 	ld	l, -18 (ix)
                                   3699 ;	spillPairReg hl
                                   3700 ;	spillPairReg hl
    000012FA DD 66 EF         [19] 3701 	ld	h, -17 (ix)
                                   3702 ;	spillPairReg hl
                                   3703 ;	spillPairReg hl
    000012FD CDr00r00         [17] 3704 	call	_Math_Abs32
    00001300 DD 73 FC         [19] 3705 	ld	-4 (ix), e
    00001303 DD 72 FD         [19] 3706 	ld	-3 (ix), d
    00001306 DD 75 FE         [19] 3707 	ld	-2 (ix), l
    00001309 DD 74 FF         [19] 3708 	ld	-1 (ix), h
    0000130C C1               [10] 3709 	pop	bc
    0000130D E1               [10] 3710 	pop	hl
    0000130E DD 7E FC         [19] 3711 	ld	a, -4 (ix)
    00001311 91               [ 4] 3712 	sub	a, c
    00001312 DD 7E FD         [19] 3713 	ld	a, -3 (ix)
    00001315 98               [ 4] 3714 	sbc	a, b
    00001316 DD 7E FE         [19] 3715 	ld	a, -2 (ix)
    00001319 9D               [ 4] 3716 	sbc	a, l
    0000131A DD 7E FF         [19] 3717 	ld	a, -1 (ix)
    0000131D 9C               [ 4] 3718 	sbc	a, h
    0000131E E2r23r13         [10] 3719 	jp	PO, 00501$
    00001321 EE 80            [ 7] 3720 	xor	a, #0x80
    00001323                       3721 00501$:
    00001323 F2rAFr13         [10] 3722 	jp	P, 00169$
                                   3723 ;E:\Dropbox\FAUSTO\SVILUPPI\MSX\CODE\C\MSXgl\projects\soccerlg/soccerlg_s4_b1.c:652: g_Ball.X += (dx > 0 ? speed : -speed);
    00001326 ED 4Br02r00      [20] 3724 	ld	bc, (#(_g_Ball + 2) + 0)
    0000132A AF               [ 4] 3725 	xor	a, a
    0000132B DD BE FA         [19] 3726 	cp	a, -6 (ix)
    0000132E DD 9E FB         [19] 3727 	sbc	a, -5 (ix)
    00001331 E2r36r13         [10] 3728 	jp	PO, 00502$
    00001334 EE 80            [ 7] 3729 	xor	a, #0x80
    00001336                       3730 00502$:
    00001336 F2r42r13         [10] 3731 	jp	P, 00207$
    00001339 DD 5E F6         [19] 3732 	ld	e, -10 (ix)
    0000133C DD 56 F7         [19] 3733 	ld	d, -9 (ix)
    0000133F C3r48r13         [10] 3734 	jp	00208$
    00001342                       3735 00207$:
    00001342 DD 5E F8         [19] 3736 	ld	e, -8 (ix)
    00001345 DD 56 F9         [19] 3737 	ld	d, -7 (ix)
    00001348                       3738 00208$:
    00001348 EB               [ 4] 3739 	ex	de, hl
    00001349 09               [11] 3740 	add	hl, bc
    0000134A EB               [ 4] 3741 	ex	de, hl
    0000134B ED 53r02r00      [20] 3742 	ld	((_g_Ball + 2)), de
                                   3743 ;E:\Dropbox\FAUSTO\SVILUPPI\MSX\CODE\C\MSXgl\projects\soccerlg/soccerlg_s4_b1.c:653: if (dx != 0) g_Ball.Y += (dy * speed) / Math_Abs32(dx);
    0000134F DD 7E F1         [19] 3744 	ld	a, -15 (ix)
    00001352 DD B6 F0         [19] 3745 	or	a, -16 (ix)
    00001355 CAr48r14         [10] 3746 	jp	Z, 00170$
    00001358 ED 4Br00r00      [20] 3747 	ld	bc, (#_g_Ball + 0)
    0000135C DD 5E F4         [19] 3748 	ld	e, -12 (ix)
    0000135F 16 00            [ 7] 3749 	ld	d, #0x00
    00001361 C5               [11] 3750 	push	bc
    00001362 DD 6E F2         [19] 3751 	ld	l, -14 (ix)
                                   3752 ;	spillPairReg hl
                                   3753 ;	spillPairReg hl
    00001365 DD 66 F3         [19] 3754 	ld	h, -13 (ix)
                                   3755 ;	spillPairReg hl
                                   3756 ;	spillPairReg hl
    00001368 CDr00r00         [17] 3757 	call	__mulint
    0000136B D5               [11] 3758 	push	de
    0000136C DD 5E E8         [19] 3759 	ld	e, -24 (ix)
    0000136F DD 56 E9         [19] 3760 	ld	d, -23 (ix)
    00001372 DD 6E EA         [19] 3761 	ld	l, -22 (ix)
                                   3762 ;	spillPairReg hl
                                   3763 ;	spillPairReg hl
    00001375 DD 66 EB         [19] 3764 	ld	h, -21 (ix)
                                   3765 ;	spillPairReg hl
                                   3766 ;	spillPairReg hl
    00001378 CDr00r00         [17] 3767 	call	_Math_Abs32
    0000137B D5               [11] 3768 	push	de
    0000137C FD E1            [14] 3769 	pop	iy
    0000137E D1               [10] 3770 	pop	de
    0000137F C1               [10] 3771 	pop	bc
    00001380 DD 73 FC         [19] 3772 	ld	-4 (ix), e
    00001383 7A               [ 4] 3773 	ld	a, d
    00001384 DD 77 FD         [19] 3774 	ld	-3 (ix), a
    00001387 07               [ 4] 3775 	rlca
    00001388 9F               [ 4] 3776 	sbc	a, a
    00001389 DD 77 FE         [19] 3777 	ld	-2 (ix), a
    0000138C DD 77 FF         [19] 3778 	ld	-1 (ix), a
    0000138F C5               [11] 3779 	push	bc
    00001390 E5               [11] 3780 	push	hl
    00001391 FD E5            [15] 3781 	push	iy
    00001393 DD 5E FC         [19] 3782 	ld	e, -4 (ix)
    00001396 DD 56 FD         [19] 3783 	ld	d, -3 (ix)
    00001399 DD 6E FE         [19] 3784 	ld	l, -2 (ix)
                                   3785 ;	spillPairReg hl
                                   3786 ;	spillPairReg hl
    0000139C DD 66 FF         [19] 3787 	ld	h, -1 (ix)
                                   3788 ;	spillPairReg hl
                                   3789 ;	spillPairReg hl
    0000139F CDr00r00         [17] 3790 	call	__divslong
    000013A2 F1               [10] 3791 	pop	af
    000013A3 F1               [10] 3792 	pop	af
    000013A4 C1               [10] 3793 	pop	bc
    000013A5 EB               [ 4] 3794 	ex	de, hl
    000013A6 09               [11] 3795 	add	hl, bc
    000013A7 EB               [ 4] 3796 	ex	de, hl
    000013A8 ED 53r00r00      [20] 3797 	ld	(_g_Ball), de
    000013AC C3r48r14         [10] 3798 	jp	00170$
    000013AF                       3799 00169$:
                                   3800 ;E:\Dropbox\FAUSTO\SVILUPPI\MSX\CODE\C\MSXgl\projects\soccerlg/soccerlg_s4_b1.c:655: g_Ball.Y += (dy > 0 ? speed : -speed);
    000013AF 11r00r00         [10] 3801 	ld	de, #_g_Ball
    000013B2 21r00r00         [10] 3802 	ld	hl, #_g_Ball
    000013B5 7E               [ 7] 3803 	ld	a, (hl)
    000013B6 DD 77 FE         [19] 3804 	ld	-2 (ix), a
    000013B9 23               [ 6] 3805 	inc	hl
    000013BA 7E               [ 7] 3806 	ld	a, (hl)
    000013BB DD 77 FF         [19] 3807 	ld	-1 (ix), a
    000013BE DD 4E F2         [19] 3808 	ld	c, -14 (ix)
    000013C1 DD 46 F3         [19] 3809 	ld	b, -13 (ix)
    000013C4 AF               [ 4] 3810 	xor	a, a
    000013C5 B9               [ 4] 3811 	cp	a, c
    000013C6 98               [ 4] 3812 	sbc	a, b
    000013C7 E2rCCr13         [10] 3813 	jp	PO, 00503$
    000013CA EE 80            [ 7] 3814 	xor	a, #0x80
    000013CC                       3815 00503$:
    000013CC F2rD8r13         [10] 3816 	jp	P, 00209$
    000013CF DD 6E F6         [19] 3817 	ld	l, -10 (ix)
                                   3818 ;	spillPairReg hl
                                   3819 ;	spillPairReg hl
    000013D2 DD 66 F7         [19] 3820 	ld	h, -9 (ix)
                                   3821 ;	spillPairReg hl
                                   3822 ;	spillPairReg hl
    000013D5 C3rDEr13         [10] 3823 	jp	00210$
    000013D8                       3824 00209$:
    000013D8 DD 6E F8         [19] 3825 	ld	l, -8 (ix)
                                   3826 ;	spillPairReg hl
                                   3827 ;	spillPairReg hl
    000013DB DD 66 F9         [19] 3828 	ld	h, -7 (ix)
                                   3829 ;	spillPairReg hl
                                   3830 ;	spillPairReg hl
    000013DE                       3831 00210$:
    000013DE DD 4E FE         [19] 3832 	ld	c, -2 (ix)
    000013E1 DD 46 FF         [19] 3833 	ld	b, -1 (ix)
    000013E4 09               [11] 3834 	add	hl, bc
    000013E5 4D               [ 4] 3835 	ld	c, l
    000013E6 44               [ 4] 3836 	ld	b, h
    000013E7 79               [ 4] 3837 	ld	a, c
    000013E8 12               [ 7] 3838 	ld	(de), a
    000013E9 13               [ 6] 3839 	inc	de
    000013EA 78               [ 4] 3840 	ld	a, b
    000013EB 12               [ 7] 3841 	ld	(de), a
                                   3842 ;E:\Dropbox\FAUSTO\SVILUPPI\MSX\CODE\C\MSXgl\projects\soccerlg/soccerlg_s4_b1.c:656: if (dy != 0) g_Ball.X += (dx * speed) / Math_Abs32(dy);
    000013EC DD 7E F3         [19] 3843 	ld	a, -13 (ix)
    000013EF DD B6 F2         [19] 3844 	or	a, -14 (ix)
    000013F2 28 54            [12] 3845 	jr	Z, 00170$
    000013F4 ED 4Br02r00      [20] 3846 	ld	bc, (#(_g_Ball + 2) + 0)
    000013F8 DD 5E F4         [19] 3847 	ld	e, -12 (ix)
    000013FB 16 00            [ 7] 3848 	ld	d, #0x00
    000013FD C5               [11] 3849 	push	bc
    000013FE DD 6E F0         [19] 3850 	ld	l, -16 (ix)
                                   3851 ;	spillPairReg hl
                                   3852 ;	spillPairReg hl
    00001401 DD 66 F1         [19] 3853 	ld	h, -15 (ix)
                                   3854 ;	spillPairReg hl
                                   3855 ;	spillPairReg hl
    00001404 CDr00r00         [17] 3856 	call	__mulint
    00001407 D5               [11] 3857 	push	de
    00001408 DD 5E EC         [19] 3858 	ld	e, -20 (ix)
    0000140B DD 56 ED         [19] 3859 	ld	d, -19 (ix)
    0000140E DD 6E EE         [19] 3860 	ld	l, -18 (ix)
                                   3861 ;	spillPairReg hl
                                   3862 ;	spillPairReg hl
    00001411 DD 66 EF         [19] 3863 	ld	h, -17 (ix)
                                   3864 ;	spillPairReg hl
                                   3865 ;	spillPairReg hl
    00001414 CDr00r00         [17] 3866 	call	_Math_Abs32
    00001417 D5               [11] 3867 	push	de
    00001418 FD E1            [14] 3868 	pop	iy
    0000141A D1               [10] 3869 	pop	de
    0000141B C1               [10] 3870 	pop	bc
    0000141C DD 73 FC         [19] 3871 	ld	-4 (ix), e
    0000141F 7A               [ 4] 3872 	ld	a, d
    00001420 DD 77 FD         [19] 3873 	ld	-3 (ix), a
    00001423 07               [ 4] 3874 	rlca
    00001424 9F               [ 4] 3875 	sbc	a, a
    00001425 DD 77 FE         [19] 3876 	ld	-2 (ix), a
    00001428 DD 77 FF         [19] 3877 	ld	-1 (ix), a
    0000142B C5               [11] 3878 	push	bc
    0000142C E5               [11] 3879 	push	hl
    0000142D FD E5            [15] 3880 	push	iy
    0000142F DD 5E FC         [19] 3881 	ld	e, -4 (ix)
    00001432 DD 56 FD         [19] 3882 	ld	d, -3 (ix)
    00001435 DD 6E FE         [19] 3883 	ld	l, -2 (ix)
                                   3884 ;	spillPairReg hl
                                   3885 ;	spillPairReg hl
    00001438 DD 66 FF         [19] 3886 	ld	h, -1 (ix)
                                   3887 ;	spillPairReg hl
                                   3888 ;	spillPairReg hl
    0000143B CDr00r00         [17] 3889 	call	__divslong
    0000143E F1               [10] 3890 	pop	af
    0000143F F1               [10] 3891 	pop	af
    00001440 C1               [10] 3892 	pop	bc
    00001441 EB               [ 4] 3893 	ex	de, hl
    00001442 09               [11] 3894 	add	hl, bc
    00001443 EB               [ 4] 3895 	ex	de, hl
    00001444 ED 53r02r00      [20] 3896 	ld	((_g_Ball + 2)), de
    00001448                       3897 00170$:
                                   3898 ;E:\Dropbox\FAUSTO\SVILUPPI\MSX\CODE\C\MSXgl\projects\soccerlg/soccerlg_s4_b1.c:660: i16 diffStartX = (i16)g_Ball.X - (i16)g_Ball.PassStartX;
    00001448 ED 4Br02r00      [20] 3899 	ld	bc, (#(_g_Ball + 2) + 0)
    0000144C 2Ar11r00         [16] 3900 	ld	hl, (#_g_Ball + 17)
    0000144F 79               [ 4] 3901 	ld	a, c
    00001450 95               [ 4] 3902 	sub	a, l
    00001451 4F               [ 4] 3903 	ld	c, a
    00001452 78               [ 4] 3904 	ld	a, b
    00001453 9C               [ 4] 3905 	sbc	a, h
    00001454 47               [ 4] 3906 	ld	b, a
                                   3907 ;E:\Dropbox\FAUSTO\SVILUPPI\MSX\CODE\C\MSXgl\projects\soccerlg/soccerlg_s4_b1.c:661: i16 diffStartY = (i16)g_Ball.Y - (i16)g_Ball.PassStartY;
    00001455 ED 5Br00r00      [20] 3908 	ld	de, (#_g_Ball + 0)
    00001459 2Ar13r00         [16] 3909 	ld	hl, (#_g_Ball + 19)
    0000145C 7B               [ 4] 3910 	ld	a, e
    0000145D 95               [ 4] 3911 	sub	a, l
    0000145E 5F               [ 4] 3912 	ld	e, a
    0000145F 7A               [ 4] 3913 	ld	a, d
    00001460 9C               [ 4] 3914 	sbc	a, h
    00001461 57               [ 4] 3915 	ld	d, a
                                   3916 ;E:\Dropbox\FAUSTO\SVILUPPI\MSX\CODE\C\MSXgl\projects\soccerlg/soccerlg_s4_b1.c:662: u16 distCovered = (u16)(Math_Abs32(diffStartX) + Math_Abs32(diffStartY));
    00001462 78               [ 4] 3917 	ld	a, b
    00001463 07               [ 4] 3918 	rlca
    00001464 ED 62            [15] 3919 	sbc	hl, hl
    00001466 D5               [11] 3920 	push	de
    00001467 59               [ 4] 3921 	ld	e, c
    00001468 50               [ 4] 3922 	ld	d, b
    00001469 CDr00r00         [17] 3923 	call	_Math_Abs32
    0000146C E5               [11] 3924 	push	hl
    0000146D FD E1            [14] 3925 	pop	iy
    0000146F 4B               [ 4] 3926 	ld	c, e
    00001470 42               [ 4] 3927 	ld	b, d
    00001471 D1               [10] 3928 	pop	de
    00001472 7A               [ 4] 3929 	ld	a, d
    00001473 07               [ 4] 3930 	rlca
    00001474 ED 62            [15] 3931 	sbc	hl, hl
    00001476 C5               [11] 3932 	push	bc
    00001477 FD E5            [15] 3933 	push	iy
    00001479 CDr00r00         [17] 3934 	call	_Math_Abs32
    0000147C FD E1            [14] 3935 	pop	iy
    0000147E C1               [10] 3936 	pop	bc
    0000147F EB               [ 4] 3937 	ex	de, hl
    00001480 09               [11] 3938 	add	hl, bc
    00001481 4D               [ 4] 3939 	ld	c, l
    00001482 44               [ 4] 3940 	ld	b, h
                                   3941 ;E:\Dropbox\FAUSTO\SVILUPPI\MSX\CODE\C\MSXgl\projects\soccerlg/soccerlg_s4_b1.c:664: u16 totalDist = g_Ball.PassTotalDist;
    00001483 21r15r00         [10] 3942 	ld	hl, #_g_Ball + 21
    00001486 7E               [ 7] 3943 	ld	a, (hl)
    00001487 DD 77 FA         [19] 3944 	ld	-6 (ix), a
    0000148A 23               [ 6] 3945 	inc	hl
    0000148B 7E               [ 7] 3946 	ld	a, (hl)
                                   3947 ;E:\Dropbox\FAUSTO\SVILUPPI\MSX\CODE\C\MSXgl\projects\soccerlg/soccerlg_s4_b1.c:665: if (totalDist == 0) totalDist = 1; // Safety
    0000148C DD 77 FB         [19] 3948 	ld	-5 (ix), a
    0000148F DD B6 FA         [19] 3949 	or	a, -6 (ix)
    00001492 20 08            [12] 3950 	jr	NZ, 00172$
    00001494 DD 36 FA 01      [19] 3951 	ld	-6 (ix), #0x01
    00001498 DD 36 FB 00      [19] 3952 	ld	-5 (ix), #0
    0000149C                       3953 00172$:
                                   3954 ;E:\Dropbox\FAUSTO\SVILUPPI\MSX\CODE\C\MSXgl\projects\soccerlg/soccerlg_s4_b1.c:535: i16 dx = tx - (i16)g_Ball.X;
    0000149C ED 5Br02r00      [20] 3955 	ld	de, (#(_g_Ball + 2) + 0)
                                   3956 ;E:\Dropbox\FAUSTO\SVILUPPI\MSX\CODE\C\MSXgl\projects\soccerlg/soccerlg_s4_b1.c:536: i16 dy = ty - (i16)g_Ball.Y;
    000014A0 21r00r00         [10] 3957 	ld	hl, #_g_Ball
    000014A3 7E               [ 7] 3958 	ld	a, (hl)
    000014A4 DD 77 FC         [19] 3959 	ld	-4 (ix), a
    000014A7 23               [ 6] 3960 	inc	hl
    000014A8 7E               [ 7] 3961 	ld	a, (hl)
    000014A9 DD 77 FD         [19] 3962 	ld	-3 (ix), a
                                   3963 ;E:\Dropbox\FAUSTO\SVILUPPI\MSX\CODE\C\MSXgl\projects\soccerlg/soccerlg_s4_b1.c:668: if (g_Ball.X == 0 || g_Ball.X > 255 || g_Ball.Y == 0 || g_Ball.Y > 211) {
    000014AC DD 7E FC         [19] 3964 	ld	a, -4 (ix)
    000014AF DD 77 FE         [19] 3965 	ld	-2 (ix), a
    000014B2 DD 7E FD         [19] 3966 	ld	a, -3 (ix)
    000014B5 DD 77 FF         [19] 3967 	ld	-1 (ix), a
    000014B8 7A               [ 4] 3968 	ld	a, d
    000014B9 B3               [ 4] 3969 	or	a, e
    000014BA 28 1D            [12] 3970 	jr	Z, 00174$
    000014BC 3E FF            [ 7] 3971 	ld	a, #0xff
    000014BE BB               [ 4] 3972 	cp	a, e
    000014BF 3E 00            [ 7] 3973 	ld	a, #0x00
    000014C1 9A               [ 4] 3974 	sbc	a, d
    000014C2 38 15            [12] 3975 	jr	C, 00174$
    000014C4 DD 7E FD         [19] 3976 	ld	a, -3 (ix)
    000014C7 DD B6 FC         [19] 3977 	or	a, -4 (ix)
    000014CA 28 0D            [12] 3978 	jr	Z, 00174$
    000014CC 3E D3            [ 7] 3979 	ld	a, #0xd3
    000014CE DD BE FE         [19] 3980 	cp	a, -2 (ix)
    000014D1 3E 00            [ 7] 3981 	ld	a, #0x00
    000014D3 DD 9E FF         [19] 3982 	sbc	a, -1 (ix)
    000014D6 3E 00            [ 7] 3983 	ld	a, #0x00
    000014D8 17               [ 4] 3984 	rla
                                   3985 ;E:\Dropbox\FAUSTO\SVILUPPI\MSX\CODE\C\MSXgl\projects\soccerlg/soccerlg_s4_b1.c:671: if(g_Ball.Y > 230 || g_Ball.Y < 20) {
    000014D9                       3986 00174$:
                                   3987 ;E:\Dropbox\FAUSTO\SVILUPPI\MSX\CODE\C\MSXgl\projects\soccerlg/soccerlg_s4_b1.c:677: if (g_Ball.ShotActive == 2) {
    000014D9 21r1Br00         [10] 3988 	ld	hl, #(_g_Ball + 27)
    000014DC 5E               [ 7] 3989 	ld	e, (hl)
                                   3990 ;E:\Dropbox\FAUSTO\SVILUPPI\MSX\CODE\C\MSXgl\projects\soccerlg/soccerlg_s4_b1.c:554: g_Ball.Size = 1;
                                   3991 ;E:\Dropbox\FAUSTO\SVILUPPI\MSX\CODE\C\MSXgl\projects\soccerlg/soccerlg_s4_b1.c:677: if (g_Ball.ShotActive == 2) {
    000014DD 7B               [ 4] 3992 	ld	a, e
    000014DE D6 02            [ 7] 3993 	sub	a, #0x02
    000014E0 20 33            [12] 3994 	jr	NZ, 00196$
                                   3995 ;E:\Dropbox\FAUSTO\SVILUPPI\MSX\CODE\C\MSXgl\projects\soccerlg/soccerlg_s4_b1.c:679: u16 ratio = (distCovered * 100) / totalDist;
    000014E2 69               [ 4] 3996 	ld	l, c
    000014E3 60               [ 4] 3997 	ld	h, b
    000014E4 29               [11] 3998 	add	hl, hl
    000014E5 09               [11] 3999 	add	hl, bc
    000014E6 29               [11] 4000 	add	hl, hl
    000014E7 29               [11] 4001 	add	hl, hl
    000014E8 29               [11] 4002 	add	hl, hl
    000014E9 09               [11] 4003 	add	hl, bc
    000014EA 29               [11] 4004 	add	hl, hl
    000014EB 29               [11] 4005 	add	hl, hl
    000014EC DD 5E FA         [19] 4006 	ld	e, -6 (ix)
    000014EF DD 56 FB         [19] 4007 	ld	d, -5 (ix)
    000014F2 CDr00r00         [17] 4008 	call	__divuint
                                   4009 ;E:\Dropbox\FAUSTO\SVILUPPI\MSX\CODE\C\MSXgl\projects\soccerlg/soccerlg_s4_b1.c:680: if (ratio < 20 || ratio > 80) g_Ball.Size = 2;
    000014F5 7B               [ 4] 4010 	ld	a, e
    000014F6 D6 14            [ 7] 4011 	sub	a, #0x14
    000014F8 7A               [ 4] 4012 	ld	a, d
    000014F9 DE 00            [ 7] 4013 	sbc	a, #0x00
    000014FB 38 08            [12] 4014 	jr	C, 00178$
    000014FD 3E 50            [ 7] 4015 	ld	a, #0x50
    000014FF BB               [ 4] 4016 	cp	a, e
    00001500 3E 00            [ 7] 4017 	ld	a, #0x00
    00001502 9A               [ 4] 4018 	sbc	a, d
    00001503 30 08            [12] 4019 	jr	NC, 00179$
    00001505                       4020 00178$:
    00001505 21r04r00         [10] 4021 	ld	hl, #(_g_Ball + 4)
    00001508 36 02            [10] 4022 	ld	(hl), #0x02
    0000150A C3r73r15         [10] 4023 	jp	00197$
    0000150D                       4024 00179$:
                                   4025 ;E:\Dropbox\FAUSTO\SVILUPPI\MSX\CODE\C\MSXgl\projects\soccerlg/soccerlg_s4_b1.c:681: else g_Ball.Size = 3;
    0000150D 21r04r00         [10] 4026 	ld	hl, #(_g_Ball + 4)
    00001510 36 03            [10] 4027 	ld	(hl), #0x03
    00001512 C3r73r15         [10] 4028 	jp	00197$
    00001515                       4029 00196$:
                                   4030 ;E:\Dropbox\FAUSTO\SVILUPPI\MSX\CODE\C\MSXgl\projects\soccerlg/soccerlg_s4_b1.c:683: else if (g_Ball.ShotActive == 3) {
    00001515 7B               [ 4] 4031 	ld	a, e
    00001516 D6 03            [ 7] 4032 	sub	a, #0x03
    00001518 20 08            [12] 4033 	jr	NZ, 00193$
                                   4034 ;E:\Dropbox\FAUSTO\SVILUPPI\MSX\CODE\C\MSXgl\projects\soccerlg/soccerlg_s4_b1.c:685: g_Ball.Size = 1;
    0000151A 21r04r00         [10] 4035 	ld	hl, #(_g_Ball + 4)
    0000151D 36 01            [10] 4036 	ld	(hl), #0x01
    0000151F C3r73r15         [10] 4037 	jp	00197$
    00001522                       4038 00193$:
                                   4039 ;E:\Dropbox\FAUSTO\SVILUPPI\MSX\CODE\C\MSXgl\projects\soccerlg/soccerlg_s4_b1.c:687: else if (g_Ball.ShotActive == 1) {
    00001522 1D               [ 4] 4040 	dec	e
    00001523 20 08            [12] 4041 	jr	NZ, 00190$
                                   4042 ;E:\Dropbox\FAUSTO\SVILUPPI\MSX\CODE\C\MSXgl\projects\soccerlg/soccerlg_s4_b1.c:690: g_Ball.Size = 2;
    00001525 21r04r00         [10] 4043 	ld	hl, #(_g_Ball + 4)
    00001528 36 02            [10] 4044 	ld	(hl), #0x02
    0000152A C3r73r15         [10] 4045 	jp	00197$
    0000152D                       4046 00190$:
                                   4047 ;E:\Dropbox\FAUSTO\SVILUPPI\MSX\CODE\C\MSXgl\projects\soccerlg/soccerlg_s4_b1.c:700: if (totalDist > 40) {
    0000152D DD 5E FA         [19] 4048 	ld	e, -6 (ix)
    00001530 DD 56 FB         [19] 4049 	ld	d, -5 (ix)
    00001533 3E 28            [ 7] 4050 	ld	a, #0x28
    00001535 BB               [ 4] 4051 	cp	a, e
    00001536 3E 00            [ 7] 4052 	ld	a, #0x00
    00001538 9A               [ 4] 4053 	sbc	a, d
    00001539 30 33            [12] 4054 	jr	NC, 00187$
                                   4055 ;E:\Dropbox\FAUSTO\SVILUPPI\MSX\CODE\C\MSXgl\projects\soccerlg/soccerlg_s4_b1.c:701: u16 ratio = (distCovered * 100) / totalDist;
    0000153B 69               [ 4] 4056 	ld	l, c
    0000153C 60               [ 4] 4057 	ld	h, b
    0000153D 29               [11] 4058 	add	hl, hl
    0000153E 09               [11] 4059 	add	hl, bc
    0000153F 29               [11] 4060 	add	hl, hl
    00001540 29               [11] 4061 	add	hl, hl
    00001541 29               [11] 4062 	add	hl, hl
    00001542 09               [11] 4063 	add	hl, bc
    00001543 29               [11] 4064 	add	hl, hl
    00001544 29               [11] 4065 	add	hl, hl
    00001545 DD 5E FA         [19] 4066 	ld	e, -6 (ix)
    00001548 DD 56 FB         [19] 4067 	ld	d, -5 (ix)
    0000154B CDr00r00         [17] 4068 	call	__divuint
                                   4069 ;E:\Dropbox\FAUSTO\SVILUPPI\MSX\CODE\C\MSXgl\projects\soccerlg/soccerlg_s4_b1.c:702: if (ratio < 15 || ratio > 85) g_Ball.Size = 2;
    0000154E 7B               [ 4] 4070 	ld	a, e
    0000154F D6 0F            [ 7] 4071 	sub	a, #0x0f
    00001551 7A               [ 4] 4072 	ld	a, d
    00001552 DE 00            [ 7] 4073 	sbc	a, #0x00
    00001554 38 08            [12] 4074 	jr	C, 00182$
    00001556 3E 55            [ 7] 4075 	ld	a, #0x55
    00001558 BB               [ 4] 4076 	cp	a, e
    00001559 3E 00            [ 7] 4077 	ld	a, #0x00
    0000155B 9A               [ 4] 4078 	sbc	a, d
    0000155C 30 08            [12] 4079 	jr	NC, 00183$
    0000155E                       4080 00182$:
    0000155E 21r04r00         [10] 4081 	ld	hl, #(_g_Ball + 4)
    00001561 36 02            [10] 4082 	ld	(hl), #0x02
    00001563 C3r73r15         [10] 4083 	jp	00197$
    00001566                       4084 00183$:
                                   4085 ;E:\Dropbox\FAUSTO\SVILUPPI\MSX\CODE\C\MSXgl\projects\soccerlg/soccerlg_s4_b1.c:703: else g_Ball.Size = 3;
    00001566 21r04r00         [10] 4086 	ld	hl, #(_g_Ball + 4)
    00001569 36 03            [10] 4087 	ld	(hl), #0x03
    0000156B C3r73r15         [10] 4088 	jp	00197$
    0000156E                       4089 00187$:
                                   4090 ;E:\Dropbox\FAUSTO\SVILUPPI\MSX\CODE\C\MSXgl\projects\soccerlg/soccerlg_s4_b1.c:705: g_Ball.Size = 2;
    0000156E 21r04r00         [10] 4091 	ld	hl, #(_g_Ball + 4)
    00001571 36 02            [10] 4092 	ld	(hl), #0x02
    00001573                       4093 00197$:
                                   4094 ;E:\Dropbox\FAUSTO\SVILUPPI\MSX\CODE\C\MSXgl\projects\soccerlg/soccerlg_s4_b1.c:709: g_Ball.PreviousY = g_Ball.Y;
    00001573 ED 4Br00r00      [20] 4095 	ld	bc, (#_g_Ball + 0)
    00001577 ED 43r07r00      [20] 4096 	ld	((_g_Ball + 7)), bc
    0000157B                       4097 00198$:
                                   4098 ;E:\Dropbox\FAUSTO\SVILUPPI\MSX\CODE\C\MSXgl\projects\soccerlg/soccerlg_s4_b1.c:710: }
    0000157B DD F9            [10] 4099 	ld	sp, ix
    0000157D DD E1            [14] 4100 	pop	ix
    0000157F C9               [10] 4101 	ret
                                   4102 ;E:\Dropbox\FAUSTO\SVILUPPI\MSX\CODE\C\MSXgl\projects\soccerlg/soccerlg_s4_b1.c:711: void TickUpdateTime(){
                                   4103 ;	---------------------------------
                                   4104 ; Function TickUpdateTime
                                   4105 ; ---------------------------------
    00001580                       4106 _TickUpdateTime::
                                   4107 ;E:\Dropbox\FAUSTO\SVILUPPI\MSX\CODE\C\MSXgl\projects\soccerlg/soccerlg_s4_b1.c:712: if(g_MatchStatus==MATCH_IN_ACTION){
    00001580 3Ar00r00         [13] 4108 	ld	a, (_g_MatchStatus+0)
    00001583 D6 0C            [ 7] 4109 	sub	a, #0x0c
    00001585 20 1C            [12] 4110 	jr	NZ, 00106$
                                   4111 ;E:\Dropbox\FAUSTO\SVILUPPI\MSX\CODE\C\MSXgl\projects\soccerlg/soccerlg_s4_b1.c:714: if(g_FrameCounter==58){
    00001587 3Ar00r00         [13] 4112 	ld	a, (_g_FrameCounter+0)
    0000158A D6 3A            [ 7] 4113 	sub	a, #0x3a
    0000158C 20 15            [12] 4114 	jr	NZ, 00106$
                                   4115 ;E:\Dropbox\FAUSTO\SVILUPPI\MSX\CODE\C\MSXgl\projects\soccerlg/soccerlg_s4_b1.c:715: g_SecondsToEndOfMatch--;
    0000158E 21r00r00         [10] 4116 	ld	hl, #_g_SecondsToEndOfMatch
    00001591 35               [11] 4117 	dec	(hl)
                                   4118 ;E:\Dropbox\FAUSTO\SVILUPPI\MSX\CODE\C\MSXgl\projects\soccerlg/soccerlg_s4_b1.c:716: ShowHeaderInfo();
    00001592 CDrDBr26         [17] 4119 	call	_ShowHeaderInfo
                                   4120 ;E:\Dropbox\FAUSTO\SVILUPPI\MSX\CODE\C\MSXgl\projects\soccerlg/soccerlg_s4_b1.c:717: if(g_SecondsToEndOfMatch==0){
    00001595 3Ar00r00         [13] 4121 	ld	a, (_g_SecondsToEndOfMatch+0)
    00001598 B7               [ 4] 4122 	or	a, a
    00001599 20 08            [12] 4123 	jr	NZ, 00106$
                                   4124 ;E:\Dropbox\FAUSTO\SVILUPPI\MSX\CODE\C\MSXgl\projects\soccerlg/soccerlg_s4_b1.c:718: Trampoline_VOID(5,TimeUp);
    0000159B 11r00r00         [10] 4125 	ld	de, #_TimeUp
    0000159E 3E 05            [ 7] 4126 	ld	a, #0x05
    000015A0 CDr00r00         [17] 4127 	call	_Trampoline_VOID
    000015A3                       4128 00106$:
                                   4129 ;E:\Dropbox\FAUSTO\SVILUPPI\MSX\CODE\C\MSXgl\projects\soccerlg/soccerlg_s4_b1.c:722: if(g_Timer!=NO_VALUE){
    000015A3 3Ar00r00         [13] 4130 	ld	a, (_g_Timer+0)
    000015A6 3C               [ 4] 4131 	inc	a
    000015A7 C8               [11] 4132 	ret	Z
                                   4133 ;E:\Dropbox\FAUSTO\SVILUPPI\MSX\CODE\C\MSXgl\projects\soccerlg/soccerlg_s4_b1.c:723: if(g_FrameCounter==58){
    000015A8 3Ar00r00         [13] 4134 	ld	a, (_g_FrameCounter+0)
    000015AB D6 3A            [ 7] 4135 	sub	a, #0x3a
    000015AD C0               [11] 4136 	ret	NZ
                                   4137 ;E:\Dropbox\FAUSTO\SVILUPPI\MSX\CODE\C\MSXgl\projects\soccerlg/soccerlg_s4_b1.c:724: g_Timer++;
    000015AE 21r00r00         [10] 4138 	ld	hl, #_g_Timer
    000015B1 34               [11] 4139 	inc	(hl)
                                   4140 ;E:\Dropbox\FAUSTO\SVILUPPI\MSX\CODE\C\MSXgl\projects\soccerlg/soccerlg_s4_b1.c:728: }
    000015B2 C9               [10] 4141 	ret
                                   4142 ;E:\Dropbox\FAUSTO\SVILUPPI\MSX\CODE\C\MSXgl\projects\soccerlg/soccerlg_s4_b1.c:729: void BallInGoal(u8 teamScored){
                                   4143 ;	---------------------------------
                                   4144 ; Function BallInGoal
                                   4145 ; ---------------------------------
    000015B3                       4146 _BallInGoal::
    000015B3 47               [ 4] 4147 	ld	b, a
                                   4148 ;E:\Dropbox\FAUSTO\SVILUPPI\MSX\CODE\C\MSXgl\projects\soccerlg/soccerlg_s4_b1.c:731: V9990_PrintLayerAStringAtPos(12,18,"IN  GOAL");
    000015B4 C5               [11] 4149 	push	bc
    000015B5 21r3Dr16         [10] 4150 	ld	hl, #___str_2
    000015B8 E5               [11] 4151 	push	hl
    000015B9 2E 12            [ 7] 4152 	ld	l, #0x12
                                   4153 ;	spillPairReg hl
                                   4154 ;	spillPairReg hl
    000015BB 3E 0C            [ 7] 4155 	ld	a, #0x0c
    000015BD CDr00r00         [17] 4156 	call	_V9990_PrintLayerAStringAtPos
    000015C0 C1               [10] 4157 	pop	bc
                                   4158 ;E:\Dropbox\FAUSTO\SVILUPPI\MSX\CODE\C\MSXgl\projects\soccerlg/soccerlg_s4_b1.c:733: g_GoalScorerId = g_Ball.PossessionPlayerId;
    000015C1 21r06r00         [10] 4159 	ld	hl, #(_g_Ball + 6)
    000015C4 7E               [ 7] 4160 	ld	a, (hl)
                                   4161 ;E:\Dropbox\FAUSTO\SVILUPPI\MSX\CODE\C\MSXgl\projects\soccerlg/soccerlg_s4_b1.c:736: if (g_GoalScorerId == NO_VALUE) {
    000015C5 32r00r00         [13] 4162 	ld	(_g_GoalScorerId+0), a
    000015C8 3C               [ 4] 4163 	inc	a
    000015C9 20 13            [12] 4164 	jr	NZ, 00102$
                                   4165 ;E:\Dropbox\FAUSTO\SVILUPPI\MSX\CODE\C\MSXgl\projects\soccerlg/soccerlg_s4_b1.c:737: g_GoalScorerId = Trampoline_U8_P2(2,GetClosestPlayerToBall, teamScored, NO_VALUE);
    000015CB C5               [11] 4166 	push	bc
    000015CC 3E FF            [ 7] 4167 	ld	a, #0xff
    000015CE F5               [11] 4168 	push	af
    000015CF 33               [ 6] 4169 	inc	sp
    000015D0 C5               [11] 4170 	push	bc
    000015D1 33               [ 6] 4171 	inc	sp
    000015D2 11r00r00         [10] 4172 	ld	de, #_GetClosestPlayerToBall
    000015D5 3E 02            [ 7] 4173 	ld	a, #0x02
    000015D7 CDr00r00         [17] 4174 	call	_Trampoline_U8_P2
    000015DA C1               [10] 4175 	pop	bc
    000015DB 32r00r00         [13] 4176 	ld	(_g_GoalScorerId+0), a
    000015DE                       4177 00102$:
                                   4178 ;E:\Dropbox\FAUSTO\SVILUPPI\MSX\CODE\C\MSXgl\projects\soccerlg/soccerlg_s4_b1.c:740: if(teamScored==TEAM_1){
    000015DE 05               [ 4] 4179 	dec	b
    000015DF 3E 01            [ 7] 4180 	ld	a, #0x01
    000015E1 28 01            [12] 4181 	jr	Z, 00128$
    000015E3 AF               [ 4] 4182 	xor	a, a
    000015E4                       4183 00128$:
    000015E4 4F               [ 4] 4184 	ld	c, a
    000015E5 B7               [ 4] 4185 	or	a, a
    000015E6 28 0D            [12] 4186 	jr	Z, 00104$
                                   4187 ;E:\Dropbox\FAUSTO\SVILUPPI\MSX\CODE\C\MSXgl\projects\soccerlg/soccerlg_s4_b1.c:742: g_Ball.Y = FIELD_BOUND_Y_TOP - 12;
    000015E8 21 26 00         [10] 4188 	ld	hl, #0x0026
    000015EB 22r00r00         [16] 4189 	ld	(_g_Ball), hl
                                   4190 ;E:\Dropbox\FAUSTO\SVILUPPI\MSX\CODE\C\MSXgl\projects\soccerlg/soccerlg_s4_b1.c:743: g_Team1Score++;
    000015EE 21r00r00         [10] 4191 	ld	hl, #_g_Team1Score
    000015F1 34               [11] 4192 	inc	(hl)
    000015F2 C3rFFr15         [10] 4193 	jp	00105$
    000015F5                       4194 00104$:
                                   4195 ;E:\Dropbox\FAUSTO\SVILUPPI\MSX\CODE\C\MSXgl\projects\soccerlg/soccerlg_s4_b1.c:747: g_Ball.Y = FIELD_BOUND_Y_BOTTOM + 24L;
    000015F5 21 C6 01         [10] 4196 	ld	hl, #0x01c6
    000015F8 22r00r00         [16] 4197 	ld	(_g_Ball), hl
                                   4198 ;E:\Dropbox\FAUSTO\SVILUPPI\MSX\CODE\C\MSXgl\projects\soccerlg/soccerlg_s4_b1.c:748: g_Team2Score++;
    000015FB 21r00r00         [10] 4199 	ld	hl, #_g_Team2Score
    000015FE 34               [11] 4200 	inc	(hl)
    000015FF                       4201 00105$:
                                   4202 ;E:\Dropbox\FAUSTO\SVILUPPI\MSX\CODE\C\MSXgl\projects\soccerlg/soccerlg_s4_b1.c:750: ShowHeaderInfo();
    000015FF C5               [11] 4203 	push	bc
    00001600 CDrDBr26         [17] 4204 	call	_ShowHeaderInfo
    00001603 11r00r00         [10] 4205 	ld	de, #_PutBallSprite
    00001606 3E 03            [ 7] 4206 	ld	a, #0x03
    00001608 CDr00r00         [17] 4207 	call	_Trampoline_VOID
    0000160B 3E 02            [ 7] 4208 	ld	a, #0x02
    0000160D CDr00r00         [17] 4209 	call	_PlayPcm
    00001610 C1               [10] 4210 	pop	bc
                                   4211 ;E:\Dropbox\FAUSTO\SVILUPPI\MSX\CODE\C\MSXgl\projects\soccerlg/soccerlg_s4_b1.c:755: g_MatchStatus=MATCH_AFTER_IN_GOAL;
    00001611 21r00r00         [10] 4212 	ld	hl, #_g_MatchStatus
    00001614 36 06            [10] 4213 	ld	(hl), #0x06
                                   4214 ;E:\Dropbox\FAUSTO\SVILUPPI\MSX\CODE\C\MSXgl\projects\soccerlg/soccerlg_s4_b1.c:756: g_RestartKickTeamId = (teamScored == TEAM_1) ? TEAM_2 : TEAM_1;
    00001616 79               [ 4] 4215 	ld	a, c
    00001617 B7               [ 4] 4216 	or	a, a
    00001618 28 07            [12] 4217 	jr	Z, 00108$
    0000161A 3E 02            [ 7] 4218 	ld	a, #0x02
    0000161C 0E 00            [ 7] 4219 	ld	c, #0x00
    0000161E C3r25r16         [10] 4220 	jp	00109$
    00001621                       4221 00108$:
    00001621 3E 01            [ 7] 4222 	ld	a, #0x01
    00001623 0E 00            [ 7] 4223 	ld	c, #0x00
    00001625                       4224 00109$:
    00001625 32r00r00         [13] 4225 	ld	(_g_RestartKickTeamId+0), a
                                   4226 ;E:\Dropbox\FAUSTO\SVILUPPI\MSX\CODE\C\MSXgl\projects\soccerlg/soccerlg_s4_b1.c:757: g_Timer = 0; // Start timer for celebration/reset
    00001628 21r00r00         [10] 4227 	ld	hl, #_g_Timer
    0000162B 36 00            [10] 4228 	ld	(hl), #0x00
                                   4229 ;E:\Dropbox\FAUSTO\SVILUPPI\MSX\CODE\C\MSXgl\projects\soccerlg/soccerlg_s4_b1.c:758: g_Ball.ShotActive = 0;
    0000162D 21r1Br00         [10] 4230 	ld	hl, #(_g_Ball + 27)
    00001630 36 00            [10] 4231 	ld	(hl), #0x00
                                   4232 ;E:\Dropbox\FAUSTO\SVILUPPI\MSX\CODE\C\MSXgl\projects\soccerlg/soccerlg_s4_b1.c:759: g_Ball.PassTargetPlayerId = NO_VALUE;
    00001632 21r10r00         [10] 4233 	ld	hl, #(_g_Ball + 16)
    00001635 36 FF            [10] 4234 	ld	(hl), #0xff
                                   4235 ;E:\Dropbox\FAUSTO\SVILUPPI\MSX\CODE\C\MSXgl\projects\soccerlg/soccerlg_s4_b1.c:760: g_Ball.PossessionPlayerId = NO_VALUE;
    00001637 21r06r00         [10] 4236 	ld	hl, #(_g_Ball + 6)
    0000163A 36 FF            [10] 4237 	ld	(hl), #0xff
                                   4238 ;E:\Dropbox\FAUSTO\SVILUPPI\MSX\CODE\C\MSXgl\projects\soccerlg/soccerlg_s4_b1.c:761: }
    0000163C C9               [10] 4239 	ret
    0000163D                       4240 ___str_2:
    0000163D 49 4E 20 20 47 4F 41  4241 	.ascii "IN  GOAL"
             4C
    00001645 00                    4242 	.db 0x00
                                   4243 ;E:\Dropbox\FAUSTO\SVILUPPI\MSX\CODE\C\MSXgl\projects\soccerlg/soccerlg_s4_b1.c:763: void GoalKick(u8 teamId){
                                   4244 ;	---------------------------------
                                   4245 ; Function GoalKick
                                   4246 ; ---------------------------------
    00001646                       4247 _GoalKick::
    00001646 4F               [ 4] 4248 	ld	c, a
                                   4249 ;E:\Dropbox\FAUSTO\SVILUPPI\MSX\CODE\C\MSXgl\projects\soccerlg/soccerlg_s4_b1.c:765: V9990_PrintLayerAStringAtPos(10,18,"GOAL KICK");
    00001647 C5               [11] 4250 	push	bc
    00001648 21r7Er16         [10] 4251 	ld	hl, #___str_3
    0000164B E5               [11] 4252 	push	hl
    0000164C 2E 12            [ 7] 4253 	ld	l, #0x12
                                   4254 ;	spillPairReg hl
                                   4255 ;	spillPairReg hl
    0000164E 3E 0A            [ 7] 4256 	ld	a, #0x0a
    00001650 CDr00r00         [17] 4257 	call	_V9990_PrintLayerAStringAtPos
    00001653 3E 04            [ 7] 4258 	ld	a, #0x04
    00001655 CDr00r00         [17] 4259 	call	_PlayPcm
    00001658 C1               [10] 4260 	pop	bc
                                   4261 ;E:\Dropbox\FAUSTO\SVILUPPI\MSX\CODE\C\MSXgl\projects\soccerlg/soccerlg_s4_b1.c:767: g_MatchStatus=MATCH_BEFORE_GOAL_KICK;
    00001659 21r00r00         [10] 4262 	ld	hl, #_g_MatchStatus
    0000165C 36 05            [10] 4263 	ld	(hl), #0x05
                                   4264 ;E:\Dropbox\FAUSTO\SVILUPPI\MSX\CODE\C\MSXgl\projects\soccerlg/soccerlg_s4_b1.c:768: g_RestartKickTeamId = teamId;
    0000165E 21r00r00         [10] 4265 	ld	hl, #_g_RestartKickTeamId
    00001661 71               [ 7] 4266 	ld	(hl), c
                                   4267 ;E:\Dropbox\FAUSTO\SVILUPPI\MSX\CODE\C\MSXgl\projects\soccerlg/soccerlg_s4_b1.c:769: g_Timer = 0;
    00001662 21r00r00         [10] 4268 	ld	hl, #_g_Timer
    00001665 36 00            [10] 4269 	ld	(hl), #0x00
                                   4270 ;E:\Dropbox\FAUSTO\SVILUPPI\MSX\CODE\C\MSXgl\projects\soccerlg/soccerlg_s4_b1.c:772: if (g_Ball.X < FIELD_POS_X_CENTER) g_GoalKickSide = CORNER_SIDE_LEFT;
    00001667 2Ar02r00         [16] 4271 	ld	hl, (#(_g_Ball + 2) + 0)
    0000166A 11 78 00         [10] 4272 	ld	de, #0x0078
    0000166D BF               [ 4] 4273 	cp	a, a
    0000166E ED 52            [15] 4274 	sbc	hl, de
    00001670 30 06            [12] 4275 	jr	NC, 00102$
    00001672 21r00r00         [10] 4276 	ld	hl, #_g_GoalKickSide
    00001675 36 00            [10] 4277 	ld	(hl), #0x00
    00001677 C9               [10] 4278 	ret
    00001678                       4279 00102$:
                                   4280 ;E:\Dropbox\FAUSTO\SVILUPPI\MSX\CODE\C\MSXgl\projects\soccerlg/soccerlg_s4_b1.c:773: else g_GoalKickSide = CORNER_SIDE_RIGHT;
    00001678 21r00r00         [10] 4281 	ld	hl, #_g_GoalKickSide
    0000167B 36 01            [10] 4282 	ld	(hl), #0x01
                                   4283 ;E:\Dropbox\FAUSTO\SVILUPPI\MSX\CODE\C\MSXgl\projects\soccerlg/soccerlg_s4_b1.c:774: }
    0000167D C9               [10] 4284 	ret
    0000167E                       4285 ___str_3:
    0000167E 47 4F 41 4C 20 4B 49  4286 	.ascii "GOAL KICK"
             43 4B
    00001687 00                    4287 	.db 0x00
                                   4288 ;E:\Dropbox\FAUSTO\SVILUPPI\MSX\CODE\C\MSXgl\projects\soccerlg/soccerlg_s4_b1.c:776: void BallThrowIn(u8 teamId){
                                   4289 ;	---------------------------------
                                   4290 ; Function BallThrowIn
                                   4291 ; ---------------------------------
    00001688                       4292 _BallThrowIn::
    00001688 DD E5            [15] 4293 	push	ix
    0000168A DD 21 00 00      [14] 4294 	ld	ix,#0
    0000168E DD 39            [15] 4295 	add	ix,sp
    00001690 21 F8 FF         [10] 4296 	ld	hl, #-8
    00001693 39               [11] 4297 	add	hl, sp
    00001694 F9               [ 6] 4298 	ld	sp, hl
    00001695 DD 77 FE         [19] 4299 	ld	-2 (ix), a
                                   4300 ;E:\Dropbox\FAUSTO\SVILUPPI\MSX\CODE\C\MSXgl\projects\soccerlg/soccerlg_s4_b1.c:779: V9990_PrintLayerAStringAtPos(10,18,"THROW IN");
    00001698 21r9Fr17         [10] 4301 	ld	hl, #___str_4
    0000169B E5               [11] 4302 	push	hl
    0000169C 2E 12            [ 7] 4303 	ld	l, #0x12
                                   4304 ;	spillPairReg hl
                                   4305 ;	spillPairReg hl
    0000169E 3E 0A            [ 7] 4306 	ld	a, #0x0a
    000016A0 CDr00r00         [17] 4307 	call	_V9990_PrintLayerAStringAtPos
                                   4308 ;E:\Dropbox\FAUSTO\SVILUPPI\MSX\CODE\C\MSXgl\projects\soccerlg/soccerlg_s4_b1.c:780: PlayPcm(PCM_THROWIN);
    000016A3 3E 03            [ 7] 4309 	ld	a, #0x03
    000016A5 CDr00r00         [17] 4310 	call	_PlayPcm
                                   4311 ;E:\Dropbox\FAUSTO\SVILUPPI\MSX\CODE\C\MSXgl\projects\soccerlg/soccerlg_s4_b1.c:781: g_MatchStatus=MATCH_BEFORE_THROW_IN;
    000016A8 21r00r00         [10] 4312 	ld	hl, #_g_MatchStatus
    000016AB 36 03            [10] 4313 	ld	(hl), #0x03
                                   4314 ;E:\Dropbox\FAUSTO\SVILUPPI\MSX\CODE\C\MSXgl\projects\soccerlg/soccerlg_s4_b1.c:782: g_RestartKickTeamId = teamId;
    000016AD DD 7E FE         [19] 4315 	ld	a, -2 (ix)
    000016B0 32r00r00         [13] 4316 	ld	(_g_RestartKickTeamId+0), a
                                   4317 ;E:\Dropbox\FAUSTO\SVILUPPI\MSX\CODE\C\MSXgl\projects\soccerlg/soccerlg_s4_b1.c:783: g_Timer = 0;
    000016B3 21r00r00         [10] 4318 	ld	hl, #_g_Timer
    000016B6 36 00            [10] 4319 	ld	(hl), #0x00
                                   4320 ;E:\Dropbox\FAUSTO\SVILUPPI\MSX\CODE\C\MSXgl\projects\soccerlg/soccerlg_s4_b1.c:786: g_Ball.ShotActive = 0;
    000016B8 21r1Br00         [10] 4321 	ld	hl, #(_g_Ball + 27)
    000016BB 36 00            [10] 4322 	ld	(hl), #0x00
                                   4323 ;E:\Dropbox\FAUSTO\SVILUPPI\MSX\CODE\C\MSXgl\projects\soccerlg/soccerlg_s4_b1.c:787: g_Ball.PassTargetPlayerId = NO_VALUE;
    000016BD 21r10r00         [10] 4324 	ld	hl, #(_g_Ball + 16)
    000016C0 36 FF            [10] 4325 	ld	(hl), #0xff
                                   4326 ;E:\Dropbox\FAUSTO\SVILUPPI\MSX\CODE\C\MSXgl\projects\soccerlg/soccerlg_s4_b1.c:788: g_Ball.PossessionPlayerId = NO_VALUE;
    000016C2 21r06r00         [10] 4327 	ld	hl, #(_g_Ball + 6)
    000016C5 36 FF            [10] 4328 	ld	(hl), #0xff
                                   4329 ;E:\Dropbox\FAUSTO\SVILUPPI\MSX\CODE\C\MSXgl\projects\soccerlg/soccerlg_s4_b1.c:791: for(i=0; i<14; i++) {
    000016C7 DD 36 FF 00      [19] 4330 	ld	-1 (ix), #0x00
    000016CB                       4331 00110$:
                                   4332 ;E:\Dropbox\FAUSTO\SVILUPPI\MSX\CODE\C\MSXgl\projects\soccerlg/soccerlg_s4_b1.c:792: g_Players[i].TargetX = g_Players[i].X;
    000016CB DD 4E FF         [19] 4333 	ld	c, -1 (ix)
    000016CE 06 00            [ 7] 4334 	ld	b, #0x00
    000016D0 69               [ 4] 4335 	ld	l, c
    000016D1 60               [ 4] 4336 	ld	h, b
    000016D2 29               [11] 4337 	add	hl, hl
    000016D3 29               [11] 4338 	add	hl, hl
    000016D4 09               [11] 4339 	add	hl, bc
    000016D5 29               [11] 4340 	add	hl, hl
    000016D6 29               [11] 4341 	add	hl, hl
    000016D7 09               [11] 4342 	add	hl, bc
    000016D8 11r00r00         [10] 4343 	ld	de, #_g_Players
    000016DB 19               [11] 4344 	add	hl, de
    000016DC E3               [19] 4345 	ex	(sp), hl
    000016DD DD 7E F8         [19] 4346 	ld	a, -8 (ix)
    000016E0 C6 10            [ 7] 4347 	add	a, #0x10
    000016E2 DD 77 FA         [19] 4348 	ld	-6 (ix), a
    000016E5 DD 7E F9         [19] 4349 	ld	a, -7 (ix)
    000016E8 CE 00            [ 7] 4350 	adc	a, #0x00
    000016EA DD 77 FB         [19] 4351 	ld	-5 (ix), a
    000016ED DD 7E F8         [19] 4352 	ld	a, -8 (ix)
    000016F0 DD 77 FC         [19] 4353 	ld	-4 (ix), a
    000016F3 DD 7E F9         [19] 4354 	ld	a, -7 (ix)
    000016F6 DD 77 FD         [19] 4355 	ld	-3 (ix), a
    000016F9 DD 6E FC         [19] 4356 	ld	l, -4 (ix)
    000016FC DD 66 FD         [19] 4357 	ld	h, -3 (ix)
    000016FF 23               [ 6] 4358 	inc	hl
    00001700 23               [ 6] 4359 	inc	hl
    00001701 7E               [ 7] 4360 	ld	a, (hl)
    00001702 DD 77 FC         [19] 4361 	ld	-4 (ix), a
    00001705 23               [ 6] 4362 	inc	hl
    00001706 7E               [ 7] 4363 	ld	a, (hl)
    00001707 DD 77 FD         [19] 4364 	ld	-3 (ix), a
    0000170A C1               [10] 4365 	pop	bc
    0000170B E1               [10] 4366 	pop	hl
    0000170C E5               [11] 4367 	push	hl
    0000170D C5               [11] 4368 	push	bc
    0000170E DD 7E FC         [19] 4369 	ld	a, -4 (ix)
    00001711 77               [ 7] 4370 	ld	(hl), a
    00001712 23               [ 6] 4371 	inc	hl
    00001713 DD 7E FD         [19] 4372 	ld	a, -3 (ix)
    00001716 77               [ 7] 4373 	ld	(hl), a
                                   4374 ;E:\Dropbox\FAUSTO\SVILUPPI\MSX\CODE\C\MSXgl\projects\soccerlg/soccerlg_s4_b1.c:793: g_Players[i].TargetY = g_Players[i].Y;
    00001717 DD 7E F8         [19] 4375 	ld	a, -8 (ix)
    0000171A C6 0E            [ 7] 4376 	add	a, #0x0e
    0000171C 5F               [ 4] 4377 	ld	e, a
    0000171D DD 7E F9         [19] 4378 	ld	a, -7 (ix)
    00001720 CE 00            [ 7] 4379 	adc	a, #0x00
    00001722 57               [ 4] 4380 	ld	d, a
    00001723 E1               [10] 4381 	pop	hl
    00001724 E5               [11] 4382 	push	hl
    00001725 4E               [ 7] 4383 	ld	c, (hl)
    00001726 23               [ 6] 4384 	inc	hl
    00001727 46               [ 7] 4385 	ld	b, (hl)
    00001728 6B               [ 4] 4386 	ld	l, e
    00001729 62               [ 4] 4387 	ld	h, d
    0000172A 71               [ 7] 4388 	ld	(hl), c
    0000172B 23               [ 6] 4389 	inc	hl
    0000172C 70               [ 7] 4390 	ld	(hl), b
                                   4391 ;E:\Dropbox\FAUSTO\SVILUPPI\MSX\CODE\C\MSXgl\projects\soccerlg/soccerlg_s4_b1.c:795: if (g_Players[i].TargetX < FIELD_BOUND_X_LEFT) g_Players[i].TargetX = FIELD_BOUND_X_LEFT;
    0000172D DD 7E FC         [19] 4392 	ld	a, -4 (ix)
    00001730 DD 46 FD         [19] 4393 	ld	b, -3 (ix)
    00001733 D6 0A            [ 7] 4394 	sub	a, #0x0a
    00001735 78               [ 4] 4395 	ld	a, b
    00001736 DE 00            [ 7] 4396 	sbc	a, #0x00
    00001738 30 09            [12] 4397 	jr	NC, 00102$
    0000173A C1               [10] 4398 	pop	bc
    0000173B E1               [10] 4399 	pop	hl
    0000173C E5               [11] 4400 	push	hl
    0000173D C5               [11] 4401 	push	bc
    0000173E 36 0A            [10] 4402 	ld	(hl), #0x0a
    00001740 23               [ 6] 4403 	inc	hl
    00001741 36 00            [10] 4404 	ld	(hl), #0x00
    00001743                       4405 00102$:
                                   4406 ;E:\Dropbox\FAUSTO\SVILUPPI\MSX\CODE\C\MSXgl\projects\soccerlg/soccerlg_s4_b1.c:796: if (g_Players[i].TargetX > FIELD_BOUND_X_RIGHT) g_Players[i].TargetX = FIELD_BOUND_X_RIGHT;
    00001743 DD 6E FA         [19] 4407 	ld	l, -6 (ix)
    00001746 DD 66 FB         [19] 4408 	ld	h, -5 (ix)
    00001749 4E               [ 7] 4409 	ld	c, (hl)
    0000174A 23               [ 6] 4410 	inc	hl
    0000174B 46               [ 7] 4411 	ld	b, (hl)
    0000174C 3E EC            [ 7] 4412 	ld	a, #0xec
    0000174E B9               [ 4] 4413 	cp	a, c
    0000174F 3E 00            [ 7] 4414 	ld	a, #0x00
    00001751 98               [ 4] 4415 	sbc	a, b
    00001752 30 09            [12] 4416 	jr	NC, 00104$
    00001754 C1               [10] 4417 	pop	bc
    00001755 E1               [10] 4418 	pop	hl
    00001756 E5               [11] 4419 	push	hl
    00001757 C5               [11] 4420 	push	bc
    00001758 36 EC            [10] 4421 	ld	(hl), #0xec
    0000175A 23               [ 6] 4422 	inc	hl
    0000175B 36 00            [10] 4423 	ld	(hl), #0x00
    0000175D                       4424 00104$:
                                   4425 ;E:\Dropbox\FAUSTO\SVILUPPI\MSX\CODE\C\MSXgl\projects\soccerlg/soccerlg_s4_b1.c:797: if (g_Players[i].TargetY < FIELD_BOUND_Y_TOP) g_Players[i].TargetY = FIELD_BOUND_Y_TOP;
    0000175D 6B               [ 4] 4426 	ld	l, e
    0000175E 62               [ 4] 4427 	ld	h, d
    0000175F 4E               [ 7] 4428 	ld	c, (hl)
    00001760 23               [ 6] 4429 	inc	hl
    00001761 46               [ 7] 4430 	ld	b, (hl)
    00001762 79               [ 4] 4431 	ld	a, c
    00001763 D6 32            [ 7] 4432 	sub	a, #0x32
    00001765 78               [ 4] 4433 	ld	a, b
    00001766 DE 00            [ 7] 4434 	sbc	a, #0x00
    00001768 30 07            [12] 4435 	jr	NC, 00106$
    0000176A 6B               [ 4] 4436 	ld	l, e
    0000176B 62               [ 4] 4437 	ld	h, d
    0000176C 36 32            [10] 4438 	ld	(hl), #0x32
    0000176E 23               [ 6] 4439 	inc	hl
    0000176F 36 00            [10] 4440 	ld	(hl), #0x00
    00001771                       4441 00106$:
                                   4442 ;E:\Dropbox\FAUSTO\SVILUPPI\MSX\CODE\C\MSXgl\projects\soccerlg/soccerlg_s4_b1.c:798: if (g_Players[i].TargetY > FIELD_BOUND_Y_BOTTOM) g_Players[i].TargetY = FIELD_BOUND_Y_BOTTOM;
    00001771 6B               [ 4] 4443 	ld	l, e
    00001772 62               [ 4] 4444 	ld	h, d
    00001773 4E               [ 7] 4445 	ld	c, (hl)
    00001774 23               [ 6] 4446 	inc	hl
    00001775 46               [ 7] 4447 	ld	b, (hl)
    00001776 3E AE            [ 7] 4448 	ld	a, #0xae
    00001778 B9               [ 4] 4449 	cp	a, c
    00001779 3E 01            [ 7] 4450 	ld	a, #0x01
    0000177B 98               [ 4] 4451 	sbc	a, b
    0000177C 30 07            [12] 4452 	jr	NC, 00108$
    0000177E 3E AE            [ 7] 4453 	ld	a, #0xae
    00001780 12               [ 7] 4454 	ld	(de), a
    00001781 13               [ 6] 4455 	inc	de
    00001782 3E 01            [ 7] 4456 	ld	a, #0x01
    00001784 12               [ 7] 4457 	ld	(de), a
    00001785                       4458 00108$:
                                   4459 ;E:\Dropbox\FAUSTO\SVILUPPI\MSX\CODE\C\MSXgl\projects\soccerlg/soccerlg_s4_b1.c:800: g_Players[i].Status = PLAYER_STATUS_NONE;
    00001785 E1               [10] 4460 	pop	hl
    00001786 E5               [11] 4461 	push	hl
    00001787 11 12 00         [10] 4462 	ld	de, #0x0012
    0000178A 19               [11] 4463 	add	hl, de
    0000178B AF               [ 4] 4464 	xor	a, a
    0000178C 77               [ 7] 4465 	ld	(hl), a
    0000178D 23               [ 6] 4466 	inc	hl
    0000178E 77               [ 7] 4467 	ld	(hl), a
                                   4468 ;E:\Dropbox\FAUSTO\SVILUPPI\MSX\CODE\C\MSXgl\projects\soccerlg/soccerlg_s4_b1.c:791: for(i=0; i<14; i++) {
    0000178F DD 34 FF         [23] 4469 	inc	-1 (ix)
    00001792 DD 7E FF         [19] 4470 	ld	a, -1 (ix)
    00001795 D6 0E            [ 7] 4471 	sub	a, #0x0e
    00001797 DArCBr16         [10] 4472 	jp	C, 00110$
                                   4473 ;E:\Dropbox\FAUSTO\SVILUPPI\MSX\CODE\C\MSXgl\projects\soccerlg/soccerlg_s4_b1.c:802: }
    0000179A DD F9            [10] 4474 	ld	sp, ix
    0000179C DD E1            [14] 4475 	pop	ix
    0000179E C9               [10] 4476 	ret
    0000179F                       4477 ___str_4:
    0000179F 54 48 52 4F 57 20 49  4478 	.ascii "THROW IN"
             4E
    000017A7 00                    4479 	.db 0x00
                                   4480 ;E:\Dropbox\FAUSTO\SVILUPPI\MSX\CODE\C\MSXgl\projects\soccerlg/soccerlg_s4_b1.c:804: void TickCheckBallBoundaries(){
                                   4481 ;	---------------------------------
                                   4482 ; Function TickCheckBallBoundaries
                                   4483 ; ---------------------------------
    000017A8                       4484 _TickCheckBallBoundaries::
    000017A8 DD E5            [15] 4485 	push	ix
    000017AA DD 21 00 00      [14] 4486 	ld	ix,#0
    000017AE DD 39            [15] 4487 	add	ix,sp
    000017B0 21 FA FF         [10] 4488 	ld	hl, #-6
    000017B3 39               [11] 4489 	add	hl, sp
    000017B4 F9               [ 6] 4490 	ld	sp, hl
                                   4491 ;E:\Dropbox\FAUSTO\SVILUPPI\MSX\CODE\C\MSXgl\projects\soccerlg/soccerlg_s4_b1.c:805: if(g_MatchStatus!=MATCH_IN_ACTION){
                                   4492 ;E:\Dropbox\FAUSTO\SVILUPPI\MSX\CODE\C\MSXgl\projects\soccerlg/soccerlg_s4_b1.c:806: return;
                                   4493 ;E:\Dropbox\FAUSTO\SVILUPPI\MSX\CODE\C\MSXgl\projects\soccerlg/soccerlg_s4_b1.c:810: if(g_MatchStatus == MATCH_BALL_ON_GOALKEEPER || g_Ball.PossessionPlayerId != NO_VALUE) {
    000017B5 3Ar00r00         [13] 4494 	ld	a,(_g_MatchStatus+0)
    000017B8 FE 0C            [ 7] 4495 	cp	a,#0x0c
    000017BA C2r5Er19         [10] 4496 	jp	NZ,00160$
    000017BD D6 0D            [ 7] 4497 	sub	a, #0x0d
    000017BF 28 06            [12] 4498 	jr	Z, 00107$
    000017C1 3Ar06r00         [13] 4499 	ld	a, (#(_g_Ball + 6) + 0)
    000017C4 3C               [ 4] 4500 	inc	a
    000017C5 28 1F            [12] 4501 	jr	Z, 00108$
    000017C7                       4502 00107$:
                                   4503 ;E:\Dropbox\FAUSTO\SVILUPPI\MSX\CODE\C\MSXgl\projects\soccerlg/soccerlg_s4_b1.c:811: if(g_Ball.PossessionPlayerId != NO_VALUE) {
    000017C7 21r06r00         [10] 4504 	ld	hl, #_g_Ball+6
    000017CA 5E               [ 7] 4505 	ld	e, (hl)
    000017CB 7B               [ 4] 4506 	ld	a, e
    000017CC 3C               [ 4] 4507 	inc	a
    000017CD 28 17            [12] 4508 	jr	Z, 00108$
                                   4509 ;E:\Dropbox\FAUSTO\SVILUPPI\MSX\CODE\C\MSXgl\projects\soccerlg/soccerlg_s4_b1.c:812: if(g_Players[g_Ball.PossessionPlayerId].Role == PLAYER_ROLE_GOALKEEPER) return;
    000017CF 01r00r00         [10] 4510 	ld	bc, #_g_Players+0
    000017D2 16 00            [ 7] 4511 	ld	d, #0x00
    000017D4 6B               [ 4] 4512 	ld	l, e
    000017D5 62               [ 4] 4513 	ld	h, d
    000017D6 29               [11] 4514 	add	hl, hl
    000017D7 29               [11] 4515 	add	hl, hl
    000017D8 19               [11] 4516 	add	hl, de
    000017D9 29               [11] 4517 	add	hl, hl
    000017DA 29               [11] 4518 	add	hl, hl
    000017DB 19               [11] 4519 	add	hl, de
    000017DC 09               [11] 4520 	add	hl, bc
    000017DD 11 0D 00         [10] 4521 	ld	de, #0x000d
    000017E0 19               [11] 4522 	add	hl, de
    000017E1 7E               [ 7] 4523 	ld	a, (hl)
    000017E2 B7               [ 4] 4524 	or	a, a
    000017E3 CAr5Er19         [10] 4525 	jp	Z,00160$
    000017E6                       4526 00108$:
                                   4527 ;E:\Dropbox\FAUSTO\SVILUPPI\MSX\CODE\C\MSXgl\projects\soccerlg/soccerlg_s4_b1.c:817: if (g_Ball.ShotActive != 0 || g_Ball.PassTargetPlayerId != NO_VALUE) {
    000017E6 3Ar1Br00         [13] 4528 	ld	a, (#_g_Ball + 27)
    000017E9 DD 77 FF         [19] 4529 	ld	-1 (ix), a
                                   4530 ;E:\Dropbox\FAUSTO\SVILUPPI\MSX\CODE\C\MSXgl\projects\soccerlg/soccerlg_s4_b1.c:825: if (g_Ball.Y < FIELD_BOUND_Y_TOP) {
    000017EC ED 4Br00r00      [20] 4531 	ld	bc, (#_g_Ball + 0)
                                   4532 ;E:\Dropbox\FAUSTO\SVILUPPI\MSX\CODE\C\MSXgl\projects\soccerlg/soccerlg_s4_b1.c:817: if (g_Ball.ShotActive != 0 || g_Ball.PassTargetPlayerId != NO_VALUE) {
    000017F0 3Ar10r00         [13] 4533 	ld	a, (#_g_Ball + 16)
    000017F3 DD 77 FD         [19] 4534 	ld	-3 (ix), a
                                   4535 ;E:\Dropbox\FAUSTO\SVILUPPI\MSX\CODE\C\MSXgl\projects\soccerlg/soccerlg_s4_b1.c:825: if (g_Ball.Y < FIELD_BOUND_Y_TOP) {
    000017F6 59               [ 4] 4536 	ld	e, c
    000017F7 50               [ 4] 4537 	ld	d, b
                                   4538 ;E:\Dropbox\FAUSTO\SVILUPPI\MSX\CODE\C\MSXgl\projects\soccerlg/soccerlg_s4_b1.c:817: if (g_Ball.ShotActive != 0 || g_Ball.PassTargetPlayerId != NO_VALUE) {
    000017F8 DD 7E FD         [19] 4539 	ld	a, -3 (ix)
    000017FB 3C               [ 4] 4540 	inc	a
    000017FC 3E 01            [ 7] 4541 	ld	a, #0x01
    000017FE 28 01            [12] 4542 	jr	Z, 00314$
    00001800 AF               [ 4] 4543 	xor	a, a
    00001801                       4544 00314$:
    00001801 DD 77 FE         [19] 4545 	ld	-2 (ix), a
                                   4546 ;E:\Dropbox\FAUSTO\SVILUPPI\MSX\CODE\C\MSXgl\projects\soccerlg/soccerlg_s4_b1.c:825: if (g_Ball.Y < FIELD_BOUND_Y_TOP) {
    00001804 7B               [ 4] 4547 	ld	a, e
    00001805 D6 32            [ 7] 4548 	sub	a, #0x32
    00001807 7A               [ 4] 4549 	ld	a, d
    00001808 DE 00            [ 7] 4550 	sbc	a, #0x00
    0000180A 3E 00            [ 7] 4551 	ld	a, #0x00
    0000180C 17               [ 4] 4552 	rla
    0000180D DD 77 FA         [19] 4553 	ld	-6 (ix), a
                                   4554 ;E:\Dropbox\FAUSTO\SVILUPPI\MSX\CODE\C\MSXgl\projects\soccerlg/soccerlg_s4_b1.c:817: if (g_Ball.ShotActive != 0 || g_Ball.PassTargetPlayerId != NO_VALUE) {
    00001810 DD 7E FF         [19] 4555 	ld	a, -1 (ix)
    00001813 B7               [ 4] 4556 	or	a, a
    00001814 20 06            [12] 4557 	jr	NZ, 00120$
    00001816 DD CB FE 46      [20] 4558 	bit	0, -2 (ix)
    0000181A 20 3B            [12] 4559 	jr	NZ, 00121$
    0000181C                       4560 00120$:
                                   4561 ;E:\Dropbox\FAUSTO\SVILUPPI\MSX\CODE\C\MSXgl\projects\soccerlg/soccerlg_s4_b1.c:819: u16 destY = g_Ball.TargetY;
    0000181C 2Ar19r00         [16] 4562 	ld	hl, (#_g_Ball + 25)
                                   4563 ;E:\Dropbox\FAUSTO\SVILUPPI\MSX\CODE\C\MSXgl\projects\soccerlg/soccerlg_s4_b1.c:820: if (g_Ball.PassTargetPlayerId != NO_VALUE) {
    0000181F DD CB FE 46      [20] 4564 	bit	0, -2 (ix)
    00001823 20 17            [12] 4565 	jr	NZ, 00111$
                                   4566 ;E:\Dropbox\FAUSTO\SVILUPPI\MSX\CODE\C\MSXgl\projects\soccerlg/soccerlg_s4_b1.c:821: destY = g_Players[g_Ball.PassTargetPlayerId].Y;
    00001825 D5               [11] 4567 	push	de
    00001826 DD 5E FD         [19] 4568 	ld	e, -3 (ix)
    00001829 16 00            [ 7] 4569 	ld	d, #0x00
    0000182B 6B               [ 4] 4570 	ld	l, e
    0000182C 62               [ 4] 4571 	ld	h, d
    0000182D 29               [11] 4572 	add	hl, hl
    0000182E 29               [11] 4573 	add	hl, hl
    0000182F 19               [11] 4574 	add	hl, de
    00001830 29               [11] 4575 	add	hl, hl
    00001831 29               [11] 4576 	add	hl, hl
    00001832 19               [11] 4577 	add	hl, de
    00001833 11r00r00         [10] 4578 	ld	de, #_g_Players
    00001836 19               [11] 4579 	add	hl, de
    00001837 D1               [10] 4580 	pop	de
    00001838 7E               [ 7] 4581 	ld	a, (hl)
    00001839 23               [ 6] 4582 	inc	hl
    0000183A 66               [ 7] 4583 	ld	h, (hl)
                                   4584 ;	spillPairReg hl
    0000183B 6F               [ 4] 4585 	ld	l, a
                                   4586 ;	spillPairReg hl
                                   4587 ;	spillPairReg hl
    0000183C                       4588 00111$:
                                   4589 ;E:\Dropbox\FAUSTO\SVILUPPI\MSX\CODE\C\MSXgl\projects\soccerlg/soccerlg_s4_b1.c:825: if (g_Ball.Y < FIELD_BOUND_Y_TOP) {
    0000183C DD 7E FA         [19] 4590 	ld	a, -6 (ix)
    0000183F B7               [ 4] 4591 	or	a, a
    00001840 28 07            [12] 4592 	jr	Z, 00115$
                                   4593 ;E:\Dropbox\FAUSTO\SVILUPPI\MSX\CODE\C\MSXgl\projects\soccerlg/soccerlg_s4_b1.c:827: if(destY > g_Ball.Y) return;
    00001842 79               [ 4] 4594 	ld	a, c
    00001843 95               [ 4] 4595 	sub	a, l
    00001844 78               [ 4] 4596 	ld	a, b
    00001845 9C               [ 4] 4597 	sbc	a, h
    00001846 DAr5Er19         [10] 4598 	jp	C,00160$
    00001849                       4599 00115$:
                                   4600 ;E:\Dropbox\FAUSTO\SVILUPPI\MSX\CODE\C\MSXgl\projects\soccerlg/soccerlg_s4_b1.c:831: if (g_Ball.Y > FIELD_BOUND_Y_BOTTOM) {
    00001849 3E AE            [ 7] 4601 	ld	a, #0xae
    0000184B BB               [ 4] 4602 	cp	a, e
    0000184C 3E 01            [ 7] 4603 	ld	a, #0x01
    0000184E 9A               [ 4] 4604 	sbc	a, d
    0000184F 30 06            [12] 4605 	jr	NC, 00121$
                                   4606 ;E:\Dropbox\FAUSTO\SVILUPPI\MSX\CODE\C\MSXgl\projects\soccerlg/soccerlg_s4_b1.c:833: if(destY < g_Ball.Y) return;
    00001851 AF               [ 4] 4607 	xor	a, a
    00001852 ED 42            [15] 4608 	sbc	hl, bc
    00001854 DAr5Er19         [10] 4609 	jp	C,00160$
    00001857                       4610 00121$:
                                   4611 ;E:\Dropbox\FAUSTO\SVILUPPI\MSX\CODE\C\MSXgl\projects\soccerlg/soccerlg_s4_b1.c:849: if (g_Ball.Y < FIELD_BOUND_Y_TOP) {
    00001857 DD 7E FA         [19] 4612 	ld	a, -6 (ix)
    0000185A B7               [ 4] 4613 	or	a, a
    0000185B 28 18            [12] 4614 	jr	Z, 00129$
                                   4615 ;E:\Dropbox\FAUSTO\SVILUPPI\MSX\CODE\C\MSXgl\projects\soccerlg/soccerlg_s4_b1.c:851: if (g_Ball.ShotActive && (g_Ball.Direction == DIRECTION_DOWN || g_Ball.Direction == DIRECTION_DOWN_LEFT || g_Ball.Direction == DIRECTION_DOWN_RIGHT)) {
    0000185D DD 7E FF         [19] 4616 	ld	a, -1 (ix)
    00001860 B7               [ 4] 4617 	or	a, a
    00001861 28 12            [12] 4618 	jr	Z, 00129$
    00001863 3Ar05r00         [13] 4619 	ld	a, (#_g_Ball + 5)
    00001866 FE 05            [ 7] 4620 	cp	a, #0x05
    00001868 CAr5Er19         [10] 4621 	jp	Z,00160$
    0000186B FE 06            [ 7] 4622 	cp	a, #0x06
    0000186D CAr5Er19         [10] 4623 	jp	Z,00160$
    00001870 D6 04            [ 7] 4624 	sub	a, #0x04
                                   4625 ;E:\Dropbox\FAUSTO\SVILUPPI\MSX\CODE\C\MSXgl\projects\soccerlg/soccerlg_s4_b1.c:852: return; 
    00001872 CAr5Er19         [10] 4626 	jp	Z,00160$
    00001875                       4627 00129$:
                                   4628 ;E:\Dropbox\FAUSTO\SVILUPPI\MSX\CODE\C\MSXgl\projects\soccerlg/soccerlg_s4_b1.c:857: if (g_Ball.Y > FIELD_BOUND_Y_BOTTOM) {
    00001875 3E AE            [ 7] 4629 	ld	a, #0xae
    00001877 BB               [ 4] 4630 	cp	a, e
    00001878 3E 01            [ 7] 4631 	ld	a, #0x01
    0000187A 9A               [ 4] 4632 	sbc	a, d
    0000187B 3E 00            [ 7] 4633 	ld	a, #0x00
    0000187D 17               [ 4] 4634 	rla
    0000187E DD 77 FB         [19] 4635 	ld	-5 (ix), a
    00001881 B7               [ 4] 4636 	or	a, a
    00001882 28 18            [12] 4637 	jr	Z, 00136$
                                   4638 ;E:\Dropbox\FAUSTO\SVILUPPI\MSX\CODE\C\MSXgl\projects\soccerlg/soccerlg_s4_b1.c:859: if (g_Ball.ShotActive && (g_Ball.Direction == DIRECTION_UP || g_Ball.Direction == DIRECTION_UP_LEFT || g_Ball.Direction == DIRECTION_UP_RIGHT)) {
    00001884 DD 7E FF         [19] 4639 	ld	a, -1 (ix)
    00001887 B7               [ 4] 4640 	or	a, a
    00001888 28 12            [12] 4641 	jr	Z, 00136$
    0000188A 3Ar05r00         [13] 4642 	ld	a, (#_g_Ball + 5)
    0000188D FE 01            [ 7] 4643 	cp	a, #0x01
    0000188F CAr5Er19         [10] 4644 	jp	Z,00160$
    00001892 FE 08            [ 7] 4645 	cp	a, #0x08
    00001894 CAr5Er19         [10] 4646 	jp	Z,00160$
    00001897 D6 02            [ 7] 4647 	sub	a, #0x02
                                   4648 ;E:\Dropbox\FAUSTO\SVILUPPI\MSX\CODE\C\MSXgl\projects\soccerlg/soccerlg_s4_b1.c:860: return;
    00001899 CAr5Er19         [10] 4649 	jp	Z,00160$
    0000189C                       4650 00136$:
                                   4651 ;E:\Dropbox\FAUSTO\SVILUPPI\MSX\CODE\C\MSXgl\projects\soccerlg/soccerlg_s4_b1.c:864: u8 teamId = g_Ball.LastTouchTeamId;
    0000189C 3Ar0Er00         [13] 4652 	ld	a, (#_g_Ball + 14)
                                   4653 ;E:\Dropbox\FAUSTO\SVILUPPI\MSX\CODE\C\MSXgl\projects\soccerlg/soccerlg_s4_b1.c:865: if(teamId==NO_VALUE){
    0000189F DD 77 FC         [19] 4654 	ld	-4 (ix), a
    000018A2 3C               [ 4] 4655 	inc	a
    000018A3 20 04            [12] 4656 	jr	NZ, 00138$
                                   4657 ;E:\Dropbox\FAUSTO\SVILUPPI\MSX\CODE\C\MSXgl\projects\soccerlg/soccerlg_s4_b1.c:866: teamId=TEAM_1; // Default
    000018A5 DD 36 FC 01      [19] 4658 	ld	-4 (ix), #0x01
    000018A9                       4659 00138$:
                                   4660 ;E:\Dropbox\FAUSTO\SVILUPPI\MSX\CODE\C\MSXgl\projects\soccerlg/soccerlg_s4_b1.c:868: u8 opponentTeamId = (teamId == TEAM_1) ? TEAM_2 : TEAM_1;
    000018A9 DD 7E FC         [19] 4661 	ld	a, -4 (ix)
    000018AC 3D               [ 4] 4662 	dec	a
    000018AD 3E 01            [ 7] 4663 	ld	a, #0x01
    000018AF 28 01            [12] 4664 	jr	Z, 00326$
    000018B1 AF               [ 4] 4665 	xor	a, a
    000018B2                       4666 00326$:
    000018B2 DD 77 FD         [19] 4667 	ld	-3 (ix), a
    000018B5 B7               [ 4] 4668 	or	a, a
    000018B6 28 0B            [12] 4669 	jr	Z, 00162$
    000018B8 DD 36 FE 02      [19] 4670 	ld	-2 (ix), #0x02
    000018BC DD 36 FF 00      [19] 4671 	ld	-1 (ix), #0
    000018C0 C3rCBr18         [10] 4672 	jp	00163$
    000018C3                       4673 00162$:
    000018C3 DD 36 FE 01      [19] 4674 	ld	-2 (ix), #0x01
    000018C7 DD 36 FF 00      [19] 4675 	ld	-1 (ix), #0
    000018CB                       4676 00163$:
    000018CB DD 4E FE         [19] 4677 	ld	c, -2 (ix)
                                   4678 ;E:\Dropbox\FAUSTO\SVILUPPI\MSX\CODE\C\MSXgl\projects\soccerlg/soccerlg_s4_b1.c:876: if(g_Ball.X < FIELD_BOUND_X_LEFT || g_Ball.X > FIELD_BOUND_X_RIGHT){
    000018CE 2Ar02r00         [16] 4679 	ld	hl, (#_g_Ball + 2)
    000018D1 5D               [ 4] 4680 	ld	e, l
    000018D2 54               [ 4] 4681 	ld	d, h
    000018D3 7B               [ 4] 4682 	ld	a, e
    000018D4 D6 0A            [ 7] 4683 	sub	a, #0x0a
    000018D6 7A               [ 4] 4684 	ld	a, d
    000018D7 DE 00            [ 7] 4685 	sbc	a, #0x00
    000018D9 38 08            [12] 4686 	jr	C, 00139$
    000018DB 3E EC            [ 7] 4687 	ld	a, #0xec
    000018DD BB               [ 4] 4688 	cp	a, e
    000018DE 3E 00            [ 7] 4689 	ld	a, #0x00
    000018E0 9A               [ 4] 4690 	sbc	a, d
    000018E1 30 07            [12] 4691 	jr	NC, 00140$
    000018E3                       4692 00139$:
                                   4693 ;E:\Dropbox\FAUSTO\SVILUPPI\MSX\CODE\C\MSXgl\projects\soccerlg/soccerlg_s4_b1.c:877: BallThrowIn(opponentTeamId); //GP_USER
    000018E3 79               [ 4] 4694 	ld	a, c
    000018E4 CDr88r16         [17] 4695 	call	_BallThrowIn
                                   4696 ;E:\Dropbox\FAUSTO\SVILUPPI\MSX\CODE\C\MSXgl\projects\soccerlg/soccerlg_s4_b1.c:879: return;
    000018E7 C3r5Er19         [10] 4697 	jp	00160$
    000018EA                       4698 00140$:
                                   4699 ;E:\Dropbox\FAUSTO\SVILUPPI\MSX\CODE\C\MSXgl\projects\soccerlg/soccerlg_s4_b1.c:883: if(g_Ball.Y < FIELD_BOUND_Y_TOP){
    000018EA DD 7E FA         [19] 4700 	ld	a, -6 (ix)
    000018ED B7               [ 4] 4701 	or	a, a
    000018EE 28 35            [12] 4702 	jr	Z, 00150$
                                   4703 ;E:\Dropbox\FAUSTO\SVILUPPI\MSX\CODE\C\MSXgl\projects\soccerlg/soccerlg_s4_b1.c:886: if(g_Ball.X > (GOAL_X_MIN - 8) && g_Ball.X < (GOAL_X_MAX + 8)){
    000018F0 3E 58            [ 7] 4704 	ld	a, #0x58
    000018F2 BD               [ 4] 4705 	cp	a, l
    000018F3 3E 00            [ 7] 4706 	ld	a, #0x00
    000018F5 9C               [ 4] 4707 	sbc	a, h
    000018F6 30 10            [12] 4708 	jr	NC, 00146$
    000018F8 11 98 00         [10] 4709 	ld	de, #0x0098
    000018FB BF               [ 4] 4710 	cp	a, a
    000018FC ED 52            [15] 4711 	sbc	hl, de
    000018FE 30 08            [12] 4712 	jr	NC, 00146$
                                   4713 ;E:\Dropbox\FAUSTO\SVILUPPI\MSX\CODE\C\MSXgl\projects\soccerlg/soccerlg_s4_b1.c:887: BallInGoal(TEAM_1); // Team 1 attacked up and scored
    00001900 3E 01            [ 7] 4714 	ld	a, #0x01
    00001902 CDrB3r15         [17] 4715 	call	_BallInGoal
    00001905 C3r5Er19         [10] 4716 	jp	00160$
    00001908                       4717 00146$:
                                   4718 ;E:\Dropbox\FAUSTO\SVILUPPI\MSX\CODE\C\MSXgl\projects\soccerlg/soccerlg_s4_b1.c:890: if(teamId == TEAM_1){ // Attacker touched last
    00001908 DD 7E FD         [19] 4719 	ld	a, -3 (ix)
    0000190B B7               [ 4] 4720 	or	a, a
    0000190C 28 08            [12] 4721 	jr	Z, 00143$
                                   4722 ;E:\Dropbox\FAUSTO\SVILUPPI\MSX\CODE\C\MSXgl\projects\soccerlg/soccerlg_s4_b1.c:891: GoalKick(TEAM_2);
    0000190E 3E 02            [ 7] 4723 	ld	a, #0x02
    00001910 CDr46r16         [17] 4724 	call	_GoalKick
    00001913 C3r5Er19         [10] 4725 	jp	00160$
    00001916                       4726 00143$:
                                   4727 ;E:\Dropbox\FAUSTO\SVILUPPI\MSX\CODE\C\MSXgl\projects\soccerlg/soccerlg_s4_b1.c:894: Trampoline_VOID_P1(3,CornerKick,TEAM_1);
    00001916 3E 01            [ 7] 4728 	ld	a, #0x01
    00001918 F5               [11] 4729 	push	af
    00001919 33               [ 6] 4730 	inc	sp
    0000191A 11r00r00         [10] 4731 	ld	de, #_CornerKick
    0000191D 3E 03            [ 7] 4732 	ld	a, #0x03
    0000191F CDr00r00         [17] 4733 	call	_Trampoline_VOID_P1
                                   4734 ;E:\Dropbox\FAUSTO\SVILUPPI\MSX\CODE\C\MSXgl\projects\soccerlg/soccerlg_s4_b1.c:897: return;
    00001922 C3r5Er19         [10] 4735 	jp	00160$
    00001925                       4736 00150$:
                                   4737 ;E:\Dropbox\FAUSTO\SVILUPPI\MSX\CODE\C\MSXgl\projects\soccerlg/soccerlg_s4_b1.c:901: if(g_Ball.Y > FIELD_BOUND_Y_BOTTOM){
    00001925 DD 7E FB         [19] 4738 	ld	a, -5 (ix)
    00001928 B7               [ 4] 4739 	or	a, a
    00001929 28 33            [12] 4740 	jr	Z, 00160$
                                   4741 ;E:\Dropbox\FAUSTO\SVILUPPI\MSX\CODE\C\MSXgl\projects\soccerlg/soccerlg_s4_b1.c:903: if(g_Ball.X > (GOAL_X_MIN - 8) && g_Ball.X < (GOAL_X_MAX + 8)){
    0000192B 3E 58            [ 7] 4742 	ld	a, #0x58
    0000192D BD               [ 4] 4743 	cp	a, l
    0000192E 3E 00            [ 7] 4744 	ld	a, #0x00
    00001930 9C               [ 4] 4745 	sbc	a, h
    00001931 30 10            [12] 4746 	jr	NC, 00155$
    00001933 11 98 00         [10] 4747 	ld	de, #0x0098
    00001936 BF               [ 4] 4748 	cp	a, a
    00001937 ED 52            [15] 4749 	sbc	hl, de
    00001939 30 08            [12] 4750 	jr	NC, 00155$
                                   4751 ;E:\Dropbox\FAUSTO\SVILUPPI\MSX\CODE\C\MSXgl\projects\soccerlg/soccerlg_s4_b1.c:904: BallInGoal(TEAM_2); // Team 2 attacked down and scored
    0000193B 3E 02            [ 7] 4752 	ld	a, #0x02
    0000193D CDrB3r15         [17] 4753 	call	_BallInGoal
    00001940 C3r5Er19         [10] 4754 	jp	00156$
    00001943                       4755 00155$:
                                   4756 ;E:\Dropbox\FAUSTO\SVILUPPI\MSX\CODE\C\MSXgl\projects\soccerlg/soccerlg_s4_b1.c:907: if(teamId == TEAM_2){ // Attacker touched last (Team 2 attacking down)
    00001943 DD 7E FC         [19] 4757 	ld	a, -4 (ix)
    00001946 D6 02            [ 7] 4758 	sub	a, #0x02
    00001948 20 08            [12] 4759 	jr	NZ, 00152$
                                   4760 ;E:\Dropbox\FAUSTO\SVILUPPI\MSX\CODE\C\MSXgl\projects\soccerlg/soccerlg_s4_b1.c:908: GoalKick(TEAM_1);
    0000194A 3E 01            [ 7] 4761 	ld	a, #0x01
    0000194C CDr46r16         [17] 4762 	call	_GoalKick
    0000194F C3r5Er19         [10] 4763 	jp	00156$
    00001952                       4764 00152$:
                                   4765 ;E:\Dropbox\FAUSTO\SVILUPPI\MSX\CODE\C\MSXgl\projects\soccerlg/soccerlg_s4_b1.c:911: Trampoline_VOID_P1(3,CornerKick,TEAM_2);
    00001952 3E 02            [ 7] 4766 	ld	a, #0x02
    00001954 F5               [11] 4767 	push	af
    00001955 33               [ 6] 4768 	inc	sp
    00001956 11r00r00         [10] 4769 	ld	de, #_CornerKick
    00001959 3E 03            [ 7] 4770 	ld	a, #0x03
    0000195B CDr00r00         [17] 4771 	call	_Trampoline_VOID_P1
    0000195E                       4772 00156$:
                                   4773 ;E:\Dropbox\FAUSTO\SVILUPPI\MSX\CODE\C\MSXgl\projects\soccerlg/soccerlg_s4_b1.c:914: return;
    0000195E                       4774 00160$:
                                   4775 ;E:\Dropbox\FAUSTO\SVILUPPI\MSX\CODE\C\MSXgl\projects\soccerlg/soccerlg_s4_b1.c:916: }
    0000195E DD F9            [10] 4776 	ld	sp, ix
    00001960 DD E1            [14] 4777 	pop	ix
    00001962 C9               [10] 4778 	ret
                                   4779 ;E:\Dropbox\FAUSTO\SVILUPPI\MSX\CODE\C\MSXgl\projects\soccerlg/soccerlg_s4_b1.c:918: void TickGoalkeeperAnimation() {
                                   4780 ;	---------------------------------
                                   4781 ; Function TickGoalkeeperAnimation
                                   4782 ; ---------------------------------
    00001963                       4783 _TickGoalkeeperAnimation::
    00001963 DD E5            [15] 4784 	push	ix
    00001965 DD 21 00 00      [14] 4785 	ld	ix,#0
    00001969 DD 39            [15] 4786 	add	ix,sp
    0000196B 21 F9 FF         [10] 4787 	ld	hl, #-7
    0000196E 39               [11] 4788 	add	hl, sp
    0000196F F9               [ 6] 4789 	ld	sp, hl
                                   4790 ;E:\Dropbox\FAUSTO\SVILUPPI\MSX\CODE\C\MSXgl\projects\soccerlg/soccerlg_s4_b1.c:919: if (g_MatchStatus != MATCH_BALL_ON_GOALKEEPER) return;
    00001970 3Ar00r00         [13] 4791 	ld	a, (_g_MatchStatus+0)
    00001973 D6 0D            [ 7] 4792 	sub	a, #0x0d
    00001975 C2r70r1D         [10] 4793 	jp	NZ,00160$
                                   4794 ;E:\Dropbox\FAUSTO\SVILUPPI\MSX\CODE\C\MSXgl\projects\soccerlg/soccerlg_s4_b1.c:920: if (g_GkAnimPlayerId == NO_VALUE) return;
    00001978 3Ar00r00         [13] 4795 	ld	a, (_g_GkAnimPlayerId+0)
    0000197B 3C               [ 4] 4796 	inc	a
    0000197C CAr70r1D         [10] 4797 	jp	Z,00160$
    0000197F C3r82r19         [10] 4798 	jp	00104$
    00001982                       4799 00104$:
                                   4800 ;E:\Dropbox\FAUSTO\SVILUPPI\MSX\CODE\C\MSXgl\projects\soccerlg/soccerlg_s4_b1.c:923: g_Players[g_GkAnimPlayerId].Status = PLAYER_STATUS_POSITIONED;
    00001982 01r00r00         [10] 4801 	ld	bc, #_g_Players+0
    00001985 ED 5Br00r00      [20] 4802 	ld	de, (_g_GkAnimPlayerId)
    00001989 16 00            [ 7] 4803 	ld	d, #0x00
    0000198B 6B               [ 4] 4804 	ld	l, e
    0000198C 62               [ 4] 4805 	ld	h, d
    0000198D 29               [11] 4806 	add	hl, hl
    0000198E 29               [11] 4807 	add	hl, hl
    0000198F 19               [11] 4808 	add	hl, de
    00001990 29               [11] 4809 	add	hl, hl
    00001991 29               [11] 4810 	add	hl, hl
    00001992 19               [11] 4811 	add	hl, de
    00001993 09               [11] 4812 	add	hl, bc
    00001994 11 12 00         [10] 4813 	ld	de, #0x0012
    00001997 19               [11] 4814 	add	hl, de
    00001998 36 04            [10] 4815 	ld	(hl), #0x04
    0000199A 23               [ 6] 4816 	inc	hl
    0000199B 36 00            [10] 4817 	ld	(hl), #0x00
                                   4818 ;E:\Dropbox\FAUSTO\SVILUPPI\MSX\CODE\C\MSXgl\projects\soccerlg/soccerlg_s4_b1.c:925: g_GkAnimTimer++;
    0000199D 21r00r00         [10] 4819 	ld	hl, #_g_GkAnimTimer
    000019A0 34               [11] 4820 	inc	(hl)
                                   4821 ;E:\Dropbox\FAUSTO\SVILUPPI\MSX\CODE\C\MSXgl\projects\soccerlg/soccerlg_s4_b1.c:927: u8 kickTime = 60; // 1 Second delay for all (was 30)
    000019A1 1E 3C            [ 7] 4822 	ld	e, #0x3c
                                   4823 ;E:\Dropbox\FAUSTO\SVILUPPI\MSX\CODE\C\MSXgl\projects\soccerlg/soccerlg_s4_b1.c:928: if (g_GkIsGroundKick) kickTime = 6; // Immediate kick for ground kicks
    000019A3 3Ar00r00         [13] 4824 	ld	a, (_g_GkIsGroundKick+0)
    000019A6 B7               [ 4] 4825 	or	a, a
    000019A7 28 02            [12] 4826 	jr	Z, 00106$
    000019A9 1E 06            [ 7] 4827 	ld	e, #0x06
    000019AB                       4828 00106$:
                                   4829 ;E:\Dropbox\FAUSTO\SVILUPPI\MSX\CODE\C\MSXgl\projects\soccerlg/soccerlg_s4_b1.c:931: if (g_GkAnimTimer < kickTime) {
    000019AB 3Ar00r00         [13] 4830 	ld	a, (_g_GkAnimTimer+0)
    000019AE 93               [ 4] 4831 	sub	a, e
    000019AF 3E 00            [ 7] 4832 	ld	a, #0x00
    000019B1 17               [ 4] 4833 	rla
    000019B2 B7               [ 4] 4834 	or	a, a
    000019B3 CAr99r1A         [10] 4835 	jp	Z, 00158$
                                   4836 ;E:\Dropbox\FAUSTO\SVILUPPI\MSX\CODE\C\MSXgl\projects\soccerlg/soccerlg_s4_b1.c:932: if (g_GkAnimTimer < 30 && (g_GkAnimTimer % 2) == 0 && g_GkRecoilY != 0) { // Faster movement (every 2 frames)
    000019B6 3Ar00r00         [13] 4837 	ld	a, (_g_GkAnimTimer+0)
    000019B9 D6 1E            [ 7] 4838 	sub	a, #0x1e
    000019BB D2r65r1A         [10] 4839 	jp	NC, 00112$
    000019BE FD 21r00r00      [14] 4840 	ld	iy, #_g_GkAnimTimer
    000019C2 FD CB 00 46      [20] 4841 	bit	0, 0 (iy)
    000019C6 C2r65r1A         [10] 4842 	jp	NZ,00112$
    000019C9 3Ar00r00         [13] 4843 	ld	a, (_g_GkRecoilY+0)
    000019CC B7               [ 4] 4844 	or	a, a
    000019CD CAr65r1A         [10] 4845 	jp	Z, 00112$
                                   4846 ;E:\Dropbox\FAUSTO\SVILUPPI\MSX\CODE\C\MSXgl\projects\soccerlg/soccerlg_s4_b1.c:933: g_Players[g_GkAnimPlayerId].Y += g_GkRecoilY;
    000019D0 ED 5Br00r00      [20] 4847 	ld	de, (_g_GkAnimPlayerId)
    000019D4 16 00            [ 7] 4848 	ld	d, #0x00
    000019D6 6B               [ 4] 4849 	ld	l, e
    000019D7 62               [ 4] 4850 	ld	h, d
    000019D8 29               [11] 4851 	add	hl, hl
    000019D9 29               [11] 4852 	add	hl, hl
    000019DA 19               [11] 4853 	add	hl, de
    000019DB 29               [11] 4854 	add	hl, hl
    000019DC 29               [11] 4855 	add	hl, hl
    000019DD 19               [11] 4856 	add	hl, de
    000019DE 09               [11] 4857 	add	hl, bc
    000019DF 5E               [ 7] 4858 	ld	e, (hl)
    000019E0 23               [ 6] 4859 	inc	hl
    000019E1 56               [ 7] 4860 	ld	d, (hl)
    000019E2 2B               [ 6] 4861 	dec	hl
    000019E3 3Ar00r00         [13] 4862 	ld	a, (_g_GkRecoilY+0)
    000019E6 FD E5            [15] 4863 	push	iy
    000019E8 DD 77 F7         [19] 4864 	ld	-9 (ix), a
    000019EB FD E1            [14] 4865 	pop	iy
    000019ED 07               [ 4] 4866 	rlca
    000019EE 9F               [ 4] 4867 	sbc	a, a
    000019EF FD E5            [15] 4868 	push	iy
    000019F1 DD 77 F8         [19] 4869 	ld	-8 (ix), a
    000019F4 FD E1            [14] 4870 	pop	iy
    000019F6 FD 19            [15] 4871 	add	iy, de
    000019F8 FD E5            [15] 4872 	push	iy
    000019FA D1               [10] 4873 	pop	de
    000019FB 73               [ 7] 4874 	ld	(hl), e
    000019FC 23               [ 6] 4875 	inc	hl
    000019FD 72               [ 7] 4876 	ld	(hl), d
                                   4877 ;E:\Dropbox\FAUSTO\SVILUPPI\MSX\CODE\C\MSXgl\projects\soccerlg/soccerlg_s4_b1.c:936: if(g_Players[g_GkAnimPlayerId].Y < FIELD_BOUND_Y_TOP) g_Players[g_GkAnimPlayerId].Y = FIELD_BOUND_Y_TOP;
    000019FE ED 5Br00r00      [20] 4878 	ld	de, (_g_GkAnimPlayerId)
    00001A02 16 00            [ 7] 4879 	ld	d, #0x00
    00001A04 6B               [ 4] 4880 	ld	l, e
    00001A05 62               [ 4] 4881 	ld	h, d
    00001A06 29               [11] 4882 	add	hl, hl
    00001A07 29               [11] 4883 	add	hl, hl
    00001A08 19               [11] 4884 	add	hl, de
    00001A09 29               [11] 4885 	add	hl, hl
    00001A0A 29               [11] 4886 	add	hl, hl
    00001A0B 19               [11] 4887 	add	hl, de
    00001A0C 09               [11] 4888 	add	hl, bc
    00001A0D 5E               [ 7] 4889 	ld	e, (hl)
    00001A0E 23               [ 6] 4890 	inc	hl
    00001A0F 56               [ 7] 4891 	ld	d, (hl)
    00001A10 2B               [ 6] 4892 	dec	hl
    00001A11 7B               [ 4] 4893 	ld	a, e
    00001A12 D6 32            [ 7] 4894 	sub	a, #0x32
    00001A14 7A               [ 4] 4895 	ld	a, d
    00001A15 DE 00            [ 7] 4896 	sbc	a, #0x00
    00001A17 30 05            [12] 4897 	jr	NC, 00108$
    00001A19 36 32            [10] 4898 	ld	(hl), #0x32
    00001A1B 23               [ 6] 4899 	inc	hl
    00001A1C 36 00            [10] 4900 	ld	(hl), #0x00
    00001A1E                       4901 00108$:
                                   4902 ;E:\Dropbox\FAUSTO\SVILUPPI\MSX\CODE\C\MSXgl\projects\soccerlg/soccerlg_s4_b1.c:937: if(g_Players[g_GkAnimPlayerId].Y > FIELD_BOUND_Y_BOTTOM) g_Players[g_GkAnimPlayerId].Y = FIELD_BOUND_Y_BOTTOM;
    00001A1E ED 5Br00r00      [20] 4903 	ld	de, (_g_GkAnimPlayerId)
    00001A22 16 00            [ 7] 4904 	ld	d, #0x00
    00001A24 6B               [ 4] 4905 	ld	l, e
    00001A25 62               [ 4] 4906 	ld	h, d
    00001A26 29               [11] 4907 	add	hl, hl
    00001A27 29               [11] 4908 	add	hl, hl
    00001A28 19               [11] 4909 	add	hl, de
    00001A29 29               [11] 4910 	add	hl, hl
    00001A2A 29               [11] 4911 	add	hl, hl
    00001A2B 19               [11] 4912 	add	hl, de
    00001A2C 09               [11] 4913 	add	hl, bc
    00001A2D 5E               [ 7] 4914 	ld	e, (hl)
    00001A2E 23               [ 6] 4915 	inc	hl
    00001A2F 56               [ 7] 4916 	ld	d, (hl)
    00001A30 2B               [ 6] 4917 	dec	hl
    00001A31 3E AE            [ 7] 4918 	ld	a, #0xae
    00001A33 BB               [ 4] 4919 	cp	a, e
    00001A34 3E 01            [ 7] 4920 	ld	a, #0x01
    00001A36 9A               [ 4] 4921 	sbc	a, d
    00001A37 30 05            [12] 4922 	jr	NC, 00110$
    00001A39 36 AE            [10] 4923 	ld	(hl), #0xae
    00001A3B 23               [ 6] 4924 	inc	hl
    00001A3C 36 01            [10] 4925 	ld	(hl), #0x01
    00001A3E                       4926 00110$:
                                   4927 ;E:\Dropbox\FAUSTO\SVILUPPI\MSX\CODE\C\MSXgl\projects\soccerlg/soccerlg_s4_b1.c:939: g_Players[g_GkAnimPlayerId].TargetY = g_Players[g_GkAnimPlayerId].Y; // Sync target
    00001A3E ED 5Br00r00      [20] 4928 	ld	de, (_g_GkAnimPlayerId)
    00001A42 16 00            [ 7] 4929 	ld	d, #0x00
    00001A44 6B               [ 4] 4930 	ld	l, e
    00001A45 62               [ 4] 4931 	ld	h, d
    00001A46 29               [11] 4932 	add	hl, hl
    00001A47 29               [11] 4933 	add	hl, hl
    00001A48 19               [11] 4934 	add	hl, de
    00001A49 29               [11] 4935 	add	hl, hl
    00001A4A 29               [11] 4936 	add	hl, hl
    00001A4B 19               [11] 4937 	add	hl, de
    00001A4C 09               [11] 4938 	add	hl, bc
    00001A4D 7D               [ 4] 4939 	ld	a, l
    00001A4E C6 0E            [ 7] 4940 	add	a, #0x0e
    00001A50 DD 77 FE         [19] 4941 	ld	-2 (ix), a
    00001A53 7C               [ 4] 4942 	ld	a, h
    00001A54 CE 00            [ 7] 4943 	adc	a, #0x00
    00001A56 DD 77 FF         [19] 4944 	ld	-1 (ix), a
    00001A59 5E               [ 7] 4945 	ld	e, (hl)
    00001A5A 23               [ 6] 4946 	inc	hl
    00001A5B 56               [ 7] 4947 	ld	d, (hl)
    00001A5C DD 6E FE         [19] 4948 	ld	l, -2 (ix)
    00001A5F DD 66 FF         [19] 4949 	ld	h, -1 (ix)
    00001A62 73               [ 7] 4950 	ld	(hl), e
    00001A63 23               [ 6] 4951 	inc	hl
    00001A64 72               [ 7] 4952 	ld	(hl), d
    00001A65                       4953 00112$:
                                   4954 ;E:\Dropbox\FAUSTO\SVILUPPI\MSX\CODE\C\MSXgl\projects\soccerlg/soccerlg_s4_b1.c:942: if (g_Players[g_GkAnimPlayerId].TeamId == TEAM_1) g_Players[g_GkAnimPlayerId].PatternId = PLAYER_POSE_TEAM1_GK_BALL_FRONT;
    00001A65 ED 5Br00r00      [20] 4955 	ld	de, (_g_GkAnimPlayerId)
    00001A69 16 00            [ 7] 4956 	ld	d, #0x00
    00001A6B 6B               [ 4] 4957 	ld	l, e
    00001A6C 62               [ 4] 4958 	ld	h, d
    00001A6D 29               [11] 4959 	add	hl, hl
    00001A6E 29               [11] 4960 	add	hl, hl
    00001A6F 19               [11] 4961 	add	hl, de
    00001A70 29               [11] 4962 	add	hl, hl
    00001A71 29               [11] 4963 	add	hl, hl
    00001A72 19               [11] 4964 	add	hl, de
    00001A73 09               [11] 4965 	add	hl, bc
    00001A74 EB               [ 4] 4966 	ex	de, hl
    00001A75 D5               [11] 4967 	push	de
    00001A76 FD E1            [14] 4968 	pop	iy
    00001A78 FD 4E 09         [19] 4969 	ld	c, 9 (iy)
    00001A7B 21 08 00         [10] 4970 	ld	hl, #0x0008
    00001A7E 19               [11] 4971 	add	hl, de
    00001A7F 0D               [ 4] 4972 	dec	c
    00001A80 20 05            [12] 4973 	jr	NZ, 00116$
    00001A82 36 9E            [10] 4974 	ld	(hl), #0x9e
    00001A84 C3r89r1A         [10] 4975 	jp	00117$
    00001A87                       4976 00116$:
                                   4977 ;E:\Dropbox\FAUSTO\SVILUPPI\MSX\CODE\C\MSXgl\projects\soccerlg/soccerlg_s4_b1.c:943: else g_Players[g_GkAnimPlayerId].PatternId = PLAYER_POSE_FRONT; // Team 2 GK plays like a player (feet)
    00001A87 36 10            [10] 4978 	ld	(hl), #0x10
    00001A89                       4979 00117$:
                                   4980 ;E:\Dropbox\FAUSTO\SVILUPPI\MSX\CODE\C\MSXgl\projects\soccerlg/soccerlg_s4_b1.c:945: Trampoline_VOID_P1(2, PutBallOnPlayerFeet,g_GkAnimPlayerId);
    00001A89 3Ar00r00         [13] 4981 	ld	a, (_g_GkAnimPlayerId+0)
    00001A8C F5               [11] 4982 	push	af
    00001A8D 33               [ 6] 4983 	inc	sp
    00001A8E 11r00r00         [10] 4984 	ld	de, #_PutBallOnPlayerFeet
    00001A91 3E 02            [ 7] 4985 	ld	a, #0x02
    00001A93 CDr00r00         [17] 4986 	call	_Trampoline_VOID_P1
    00001A96 C3r70r1D         [10] 4987 	jp	00160$
    00001A99                       4988 00158$:
                                   4989 ;E:\Dropbox\FAUSTO\SVILUPPI\MSX\CODE\C\MSXgl\projects\soccerlg/soccerlg_s4_b1.c:947: } else if (g_GkAnimTimer >= kickTime) {
    00001A99 CB 47            [ 8] 4990 	bit	0,a
    00001A9B C2r70r1D         [10] 4991 	jp	NZ, 00160$
                                   4992 ;E:\Dropbox\FAUSTO\SVILUPPI\MSX\CODE\C\MSXgl\projects\soccerlg/soccerlg_s4_b1.c:950: bool safeToKick = false;
    00001A9E DD 36 F9 00      [19] 4993 	ld	-7 (ix), #0x00
                                   4994 ;E:\Dropbox\FAUSTO\SVILUPPI\MSX\CODE\C\MSXgl\projects\soccerlg/soccerlg_s4_b1.c:953: if (g_GkAnimTimer > (kickTime + 120)) safeToKick = true;
    00001AA2 16 00            [ 7] 4995 	ld	d, #0x00
    00001AA4 21 78 00         [10] 4996 	ld	hl, #0x0078
    00001AA7 19               [11] 4997 	add	hl, de
    00001AA8 3Ar00r00         [13] 4998 	ld	a, (_g_GkAnimTimer+0)
    00001AAB 5F               [ 4] 4999 	ld	e, a
    00001AAC 16 00            [ 7] 5000 	ld	d, #0x00
    00001AAE 7D               [ 4] 5001 	ld	a, l
    00001AAF 93               [ 4] 5002 	sub	a, e
    00001AB0 7C               [ 4] 5003 	ld	a, h
    00001AB1 9A               [ 4] 5004 	sbc	a, d
    00001AB2 E2rB7r1A         [10] 5005 	jp	PO, 00311$
    00001AB5 EE 80            [ 7] 5006 	xor	a, #0x80
    00001AB7                       5007 00311$:
    00001AB7 F2rBEr1A         [10] 5008 	jp	P, 00119$
    00001ABA DD 36 F9 01      [19] 5009 	ld	-7 (ix), #0x01
    00001ABE                       5010 00119$:
                                   5011 ;E:\Dropbox\FAUSTO\SVILUPPI\MSX\CODE\C\MSXgl\projects\soccerlg/soccerlg_s4_b1.c:956: u8 targetId = GetBestPassTarget(g_GkAnimPlayerId); 
    00001ABE C5               [11] 5012 	push	bc
    00001ABF 3Ar00r00         [13] 5013 	ld	a, (_g_GkAnimPlayerId+0)
    00001AC2 CDrB2r1D         [17] 5014 	call	_GetBestPassTarget
    00001AC5 C1               [10] 5015 	pop	bc
    00001AC6 5F               [ 4] 5016 	ld	e, a
                                   5017 ;E:\Dropbox\FAUSTO\SVILUPPI\MSX\CODE\C\MSXgl\projects\soccerlg/soccerlg_s4_b1.c:957: if (!safeToKick && targetId != NO_VALUE) {
    00001AC7 DD 7E F9         [19] 5018 	ld	a, -7 (ix)
    00001ACA B7               [ 4] 5019 	or	a, a
    00001ACB C2r99r1B         [10] 5020 	jp	NZ, 00123$
    00001ACE 7B               [ 4] 5021 	ld	a, e
    00001ACF 3C               [ 4] 5022 	inc	a
    00001AD0 CAr99r1B         [10] 5023 	jp	Z,00123$
                                   5024 ;E:\Dropbox\FAUSTO\SVILUPPI\MSX\CODE\C\MSXgl\projects\soccerlg/soccerlg_s4_b1.c:958: u16 dist = (u16)(Math_Abs32((i16)g_Players[targetId].X - (i16)g_Players[g_GkAnimPlayerId].X) + 
    00001AD3 D5               [11] 5025 	push	de
    00001AD4 16 00            [ 7] 5026 	ld	d, #0x00
    00001AD6 6B               [ 4] 5027 	ld	l, e
    00001AD7 62               [ 4] 5028 	ld	h, d
    00001AD8 29               [11] 5029 	add	hl, hl
    00001AD9 29               [11] 5030 	add	hl, hl
    00001ADA 19               [11] 5031 	add	hl, de
    00001ADB 29               [11] 5032 	add	hl, hl
    00001ADC 29               [11] 5033 	add	hl, hl
    00001ADD 19               [11] 5034 	add	hl, de
    00001ADE D1               [10] 5035 	pop	de
    00001ADF 09               [11] 5036 	add	hl, bc
                                   5037 ;	spillPairReg hl
                                   5038 ;	spillPairReg hl
    00001AE0 DD 75 FE         [19] 5039 	ld	-2 (ix), l
    00001AE3 DD 74 FF         [19] 5040 	ld	-1 (ix), h
                                   5041 ;	spillPairReg hl
                                   5042 ;	spillPairReg hl
    00001AE6 23               [ 6] 5043 	inc	hl
    00001AE7 23               [ 6] 5044 	inc	hl
    00001AE8 56               [ 7] 5045 	ld	d, (hl)
    00001AE9 23               [ 6] 5046 	inc	hl
    00001AEA 7E               [ 7] 5047 	ld	a, (hl)
    00001AEB DD 72 FC         [19] 5048 	ld	-4 (ix), d
    00001AEE DD 77 FD         [19] 5049 	ld	-3 (ix), a
    00001AF1 D5               [11] 5050 	push	de
    00001AF2 ED 5Br00r00      [20] 5051 	ld	de, (_g_GkAnimPlayerId)
    00001AF6 16 00            [ 7] 5052 	ld	d, #0x00
    00001AF8 6B               [ 4] 5053 	ld	l, e
    00001AF9 62               [ 4] 5054 	ld	h, d
    00001AFA 29               [11] 5055 	add	hl, hl
    00001AFB 29               [11] 5056 	add	hl, hl
    00001AFC 19               [11] 5057 	add	hl, de
    00001AFD 29               [11] 5058 	add	hl, hl
    00001AFE 29               [11] 5059 	add	hl, hl
    00001AFF 19               [11] 5060 	add	hl, de
    00001B00 D1               [10] 5061 	pop	de
    00001B01 09               [11] 5062 	add	hl, bc
    00001B02 23               [ 6] 5063 	inc	hl
    00001B03 23               [ 6] 5064 	inc	hl
    00001B04 56               [ 7] 5065 	ld	d, (hl)
    00001B05 23               [ 6] 5066 	inc	hl
    00001B06 66               [ 7] 5067 	ld	h, (hl)
                                   5068 ;	spillPairReg hl
    00001B07 6A               [ 4] 5069 	ld	l, d
                                   5070 ;	spillPairReg hl
                                   5071 ;	spillPairReg hl
    00001B08 DD 7E FC         [19] 5072 	ld	a, -4 (ix)
    00001B0B 95               [ 4] 5073 	sub	a, l
    00001B0C 6F               [ 4] 5074 	ld	l, a
                                   5075 ;	spillPairReg hl
                                   5076 ;	spillPairReg hl
    00001B0D DD 7E FD         [19] 5077 	ld	a, -3 (ix)
    00001B10 9C               [ 4] 5078 	sbc	a, h
    00001B11 67               [ 4] 5079 	ld	h, a
                                   5080 ;	spillPairReg hl
                                   5081 ;	spillPairReg hl
    00001B12 07               [ 4] 5082 	rlca
    00001B13 9F               [ 4] 5083 	sbc	a, a
    00001B14 FD E5            [15] 5084 	push	iy
    00001B16 DD 77 F7         [19] 5085 	ld	-9 (ix), a
    00001B19 FD E1            [14] 5086 	pop	iy
    00001B1B 57               [ 4] 5087 	ld	d, a
    00001B1C C5               [11] 5088 	push	bc
    00001B1D EB               [ 4] 5089 	ex	de, hl
    00001B1E E5               [11] 5090 	push	hl
    00001B1F FD E5            [15] 5091 	push	iy
    00001B21 DD 6E F3         [19] 5092 	ld	l, -13 (ix)
                                   5093 ;	spillPairReg hl
    00001B24 FD E1            [14] 5094 	pop	iy
    00001B26 CDr00r00         [17] 5095 	call	_Math_Abs32
    00001B29 DD 73 FA         [19] 5096 	ld	-6 (ix), e
    00001B2C DD 72 FB         [19] 5097 	ld	-5 (ix), d
    00001B2F DD 75 FC         [19] 5098 	ld	-4 (ix), l
    00001B32 DD 74 FD         [19] 5099 	ld	-3 (ix), h
    00001B35 D1               [10] 5100 	pop	de
    00001B36 C1               [10] 5101 	pop	bc
    00001B37 DD 6E FE         [19] 5102 	ld	l, -2 (ix)
    00001B3A DD 66 FF         [19] 5103 	ld	h, -1 (ix)
    00001B3D 56               [ 7] 5104 	ld	d, (hl)
    00001B3E 23               [ 6] 5105 	inc	hl
    00001B3F 7E               [ 7] 5106 	ld	a, (hl)
    00001B40 DD 72 FE         [19] 5107 	ld	-2 (ix), d
    00001B43 DD 77 FF         [19] 5108 	ld	-1 (ix), a
    00001B46 D5               [11] 5109 	push	de
    00001B47 ED 5Br00r00      [20] 5110 	ld	de, (_g_GkAnimPlayerId)
    00001B4B 16 00            [ 7] 5111 	ld	d, #0x00
    00001B4D 6B               [ 4] 5112 	ld	l, e
    00001B4E 62               [ 4] 5113 	ld	h, d
    00001B4F 29               [11] 5114 	add	hl, hl
    00001B50 29               [11] 5115 	add	hl, hl
    00001B51 19               [11] 5116 	add	hl, de
    00001B52 29               [11] 5117 	add	hl, hl
    00001B53 29               [11] 5118 	add	hl, hl
    00001B54 19               [11] 5119 	add	hl, de
    00001B55 D1               [10] 5120 	pop	de
    00001B56 09               [11] 5121 	add	hl, bc
    00001B57 7E               [ 7] 5122 	ld	a, (hl)
    00001B58 23               [ 6] 5123 	inc	hl
    00001B59 66               [ 7] 5124 	ld	h, (hl)
                                   5125 ;	spillPairReg hl
    00001B5A 6F               [ 4] 5126 	ld	l, a
                                   5127 ;	spillPairReg hl
                                   5128 ;	spillPairReg hl
    00001B5B DD 7E FE         [19] 5129 	ld	a, -2 (ix)
    00001B5E 95               [ 4] 5130 	sub	a, l
    00001B5F 6F               [ 4] 5131 	ld	l, a
                                   5132 ;	spillPairReg hl
                                   5133 ;	spillPairReg hl
    00001B60 DD 7E FF         [19] 5134 	ld	a, -1 (ix)
    00001B63 9C               [ 4] 5135 	sbc	a, h
    00001B64 67               [ 4] 5136 	ld	h, a
                                   5137 ;	spillPairReg hl
                                   5138 ;	spillPairReg hl
    00001B65 07               [ 4] 5139 	rlca
    00001B66 9F               [ 4] 5140 	sbc	a, a
    00001B67 FD E5            [15] 5141 	push	iy
    00001B69 DD 77 F7         [19] 5142 	ld	-9 (ix), a
    00001B6C FD E1            [14] 5143 	pop	iy
    00001B6E 57               [ 4] 5144 	ld	d, a
    00001B6F C5               [11] 5145 	push	bc
    00001B70 EB               [ 4] 5146 	ex	de, hl
    00001B71 E5               [11] 5147 	push	hl
    00001B72 FD E5            [15] 5148 	push	iy
    00001B74 DD 6E F3         [19] 5149 	ld	l, -13 (ix)
                                   5150 ;	spillPairReg hl
    00001B77 FD E1            [14] 5151 	pop	iy
    00001B79 CDr00r00         [17] 5152 	call	_Math_Abs32
    00001B7C E5               [11] 5153 	push	hl
    00001B7D FD E1            [14] 5154 	pop	iy
    00001B7F EB               [ 4] 5155 	ex	de, hl
    00001B80 D1               [10] 5156 	pop	de
    00001B81 C1               [10] 5157 	pop	bc
    00001B82 DD 7E FA         [19] 5158 	ld	a, -6 (ix)
    00001B85 DD 56 FB         [19] 5159 	ld	d, -5 (ix)
    00001B88 85               [ 4] 5160 	add	a, l
    00001B89 6F               [ 4] 5161 	ld	l, a
                                   5162 ;	spillPairReg hl
                                   5163 ;	spillPairReg hl
    00001B8A 7A               [ 4] 5164 	ld	a, d
    00001B8B 8C               [ 4] 5165 	adc	a, h
                                   5166 ;E:\Dropbox\FAUSTO\SVILUPPI\MSX\CODE\C\MSXgl\projects\soccerlg/soccerlg_s4_b1.c:960: if (dist > 60) safeToKick = true;
    00001B8C 57               [ 4] 5167 	ld	d, a
    00001B8D 3E 3C            [ 7] 5168 	ld	a, #0x3c
    00001B8F BD               [ 4] 5169 	cp	a, l
    00001B90 3E 00            [ 7] 5170 	ld	a, #0x00
    00001B92 9A               [ 4] 5171 	sbc	a, d
    00001B93 30 04            [12] 5172 	jr	NC, 00123$
    00001B95 DD 36 F9 01      [19] 5173 	ld	-7 (ix), #0x01
    00001B99                       5174 00123$:
                                   5175 ;E:\Dropbox\FAUSTO\SVILUPPI\MSX\CODE\C\MSXgl\projects\soccerlg/soccerlg_s4_b1.c:964: if (!safeToKick) {
    00001B99 DD 7E F9         [19] 5176 	ld	a, -7 (ix)
    00001B9C B7               [ 4] 5177 	or	a, a
    00001B9D C2r77r1C         [10] 5178 	jp	NZ, 00130$
                                   5179 ;E:\Dropbox\FAUSTO\SVILUPPI\MSX\CODE\C\MSXgl\projects\soccerlg/soccerlg_s4_b1.c:965: u8 closestOpp = Trampoline_U8_P2(2,GetClosestPlayerToBall,(g_Players[g_GkAnimPlayerId].TeamId == TEAM_1) ? TEAM_2 : TEAM_1, NO_VALUE);
    00001BA0 D5               [11] 5180 	push	de
    00001BA1 ED 5Br00r00      [20] 5181 	ld	de, (_g_GkAnimPlayerId)
    00001BA5 16 00            [ 7] 5182 	ld	d, #0x00
    00001BA7 6B               [ 4] 5183 	ld	l, e
    00001BA8 62               [ 4] 5184 	ld	h, d
    00001BA9 29               [11] 5185 	add	hl, hl
    00001BAA 29               [11] 5186 	add	hl, hl
    00001BAB 19               [11] 5187 	add	hl, de
    00001BAC 29               [11] 5188 	add	hl, hl
    00001BAD 29               [11] 5189 	add	hl, hl
    00001BAE 19               [11] 5190 	add	hl, de
    00001BAF D1               [10] 5191 	pop	de
    00001BB0 09               [11] 5192 	add	hl, bc
    00001BB1 C5               [11] 5193 	push	bc
    00001BB2 01 09 00         [10] 5194 	ld	bc, #0x0009
    00001BB5 09               [11] 5195 	add	hl, bc
    00001BB6 C1               [10] 5196 	pop	bc
    00001BB7 7E               [ 7] 5197 	ld	a, (hl)
    00001BB8 3D               [ 4] 5198 	dec	a
    00001BB9 20 06            [12] 5199 	jr	NZ, 00162$
    00001BBB 21 02 00         [10] 5200 	ld	hl, #0x0002
    00001BBE C3rC4r1B         [10] 5201 	jp	00163$
    00001BC1                       5202 00162$:
    00001BC1 21 01 00         [10] 5203 	ld	hl, #0x0001
    00001BC4                       5204 00163$:
    00001BC4 7D               [ 4] 5205 	ld	a, l
    00001BC5 C5               [11] 5206 	push	bc
    00001BC6 D5               [11] 5207 	push	de
    00001BC7 26 FF            [ 7] 5208 	ld	h, #0xff
                                   5209 ;	spillPairReg hl
                                   5210 ;	spillPairReg hl
    00001BC9 E5               [11] 5211 	push	hl
    00001BCA 33               [ 6] 5212 	inc	sp
    00001BCB F5               [11] 5213 	push	af
    00001BCC 33               [ 6] 5214 	inc	sp
    00001BCD 11r00r00         [10] 5215 	ld	de, #_GetClosestPlayerToBall
    00001BD0 3E 02            [ 7] 5216 	ld	a, #0x02
    00001BD2 CDr00r00         [17] 5217 	call	_Trampoline_U8_P2
    00001BD5 D1               [10] 5218 	pop	de
    00001BD6 C1               [10] 5219 	pop	bc
                                   5220 ;E:\Dropbox\FAUSTO\SVILUPPI\MSX\CODE\C\MSXgl\projects\soccerlg/soccerlg_s4_b1.c:966: if (closestOpp != NO_VALUE) {
    00001BD7 FE FF            [ 7] 5221 	cp	a, #0xff
    00001BD9 CAr77r1C         [10] 5222 	jp	Z,00130$
                                   5223 ;E:\Dropbox\FAUSTO\SVILUPPI\MSX\CODE\C\MSXgl\projects\soccerlg/soccerlg_s4_b1.c:970: u16 edist = (u16)(Math_Abs32((i16)g_Players[closestOpp].X - (i16)g_Ball.X) + 
    00001BDC D5               [11] 5224 	push	de
    00001BDD 5F               [ 4] 5225 	ld	e, a
    00001BDE 16 00            [ 7] 5226 	ld	d, #0x00
    00001BE0 6B               [ 4] 5227 	ld	l, e
    00001BE1 62               [ 4] 5228 	ld	h, d
    00001BE2 29               [11] 5229 	add	hl, hl
    00001BE3 29               [11] 5230 	add	hl, hl
    00001BE4 19               [11] 5231 	add	hl, de
    00001BE5 29               [11] 5232 	add	hl, hl
    00001BE6 29               [11] 5233 	add	hl, hl
    00001BE7 19               [11] 5234 	add	hl, de
    00001BE8 D1               [10] 5235 	pop	de
    00001BE9 09               [11] 5236 	add	hl, bc
                                   5237 ;	spillPairReg hl
                                   5238 ;	spillPairReg hl
    00001BEA DD 75 FE         [19] 5239 	ld	-2 (ix), l
    00001BED DD 74 FF         [19] 5240 	ld	-1 (ix), h
                                   5241 ;	spillPairReg hl
                                   5242 ;	spillPairReg hl
    00001BF0 23               [ 6] 5243 	inc	hl
    00001BF1 23               [ 6] 5244 	inc	hl
    00001BF2 56               [ 7] 5245 	ld	d, (hl)
    00001BF3 23               [ 6] 5246 	inc	hl
    00001BF4 7E               [ 7] 5247 	ld	a, (hl)
    00001BF5 DD 72 FC         [19] 5248 	ld	-4 (ix), d
    00001BF8 DD 77 FD         [19] 5249 	ld	-3 (ix), a
    00001BFB 2Ar02r00         [16] 5250 	ld	hl, (#_g_Ball + 2)
    00001BFE DD 7E FC         [19] 5251 	ld	a, -4 (ix)
    00001C01 95               [ 4] 5252 	sub	a, l
    00001C02 57               [ 4] 5253 	ld	d, a
    00001C03 DD 7E FD         [19] 5254 	ld	a, -3 (ix)
    00001C06 9C               [ 4] 5255 	sbc	a, h
    00001C07 FD E5            [15] 5256 	push	iy
    00001C09 DD 72 F7         [19] 5257 	ld	-9 (ix), d
    00001C0C DD 77 F8         [19] 5258 	ld	-8 (ix), a
    00001C0F FD E1            [14] 5259 	pop	iy
    00001C11 07               [ 4] 5260 	rlca
    00001C12 ED 62            [15] 5261 	sbc	hl, hl
    00001C14 C5               [11] 5262 	push	bc
    00001C15 D5               [11] 5263 	push	de
    00001C16 FD E5            [15] 5264 	push	iy
    00001C18 D1               [10] 5265 	pop	de
    00001C19 CDr00r00         [17] 5266 	call	_Math_Abs32
    00001C1C DD 73 FA         [19] 5267 	ld	-6 (ix), e
    00001C1F DD 72 FB         [19] 5268 	ld	-5 (ix), d
    00001C22 DD 75 FC         [19] 5269 	ld	-4 (ix), l
    00001C25 DD 74 FD         [19] 5270 	ld	-3 (ix), h
    00001C28 D1               [10] 5271 	pop	de
    00001C29 C1               [10] 5272 	pop	bc
    00001C2A DD 6E FE         [19] 5273 	ld	l, -2 (ix)
    00001C2D DD 66 FF         [19] 5274 	ld	h, -1 (ix)
    00001C30 56               [ 7] 5275 	ld	d, (hl)
    00001C31 23               [ 6] 5276 	inc	hl
    00001C32 7E               [ 7] 5277 	ld	a, (hl)
    00001C33 DD 72 FE         [19] 5278 	ld	-2 (ix), d
    00001C36 DD 77 FF         [19] 5279 	ld	-1 (ix), a
    00001C39 2Ar00r00         [16] 5280 	ld	hl, (#_g_Ball + 0)
    00001C3C DD 7E FE         [19] 5281 	ld	a, -2 (ix)
    00001C3F 95               [ 4] 5282 	sub	a, l
    00001C40 57               [ 4] 5283 	ld	d, a
    00001C41 DD 7E FF         [19] 5284 	ld	a, -1 (ix)
    00001C44 9C               [ 4] 5285 	sbc	a, h
    00001C45 FD E5            [15] 5286 	push	iy
    00001C47 DD 72 F7         [19] 5287 	ld	-9 (ix), d
    00001C4A DD 77 F8         [19] 5288 	ld	-8 (ix), a
    00001C4D FD E1            [14] 5289 	pop	iy
    00001C4F 07               [ 4] 5290 	rlca
    00001C50 ED 62            [15] 5291 	sbc	hl, hl
    00001C52 C5               [11] 5292 	push	bc
    00001C53 D5               [11] 5293 	push	de
    00001C54 FD E5            [15] 5294 	push	iy
    00001C56 D1               [10] 5295 	pop	de
    00001C57 CDr00r00         [17] 5296 	call	_Math_Abs32
    00001C5A E5               [11] 5297 	push	hl
    00001C5B FD E1            [14] 5298 	pop	iy
    00001C5D EB               [ 4] 5299 	ex	de, hl
    00001C5E D1               [10] 5300 	pop	de
    00001C5F C1               [10] 5301 	pop	bc
    00001C60 DD 7E FA         [19] 5302 	ld	a, -6 (ix)
    00001C63 DD 56 FB         [19] 5303 	ld	d, -5 (ix)
    00001C66 85               [ 4] 5304 	add	a, l
    00001C67 6F               [ 4] 5305 	ld	l, a
                                   5306 ;	spillPairReg hl
                                   5307 ;	spillPairReg hl
    00001C68 7A               [ 4] 5308 	ld	a, d
    00001C69 8C               [ 4] 5309 	adc	a, h
    00001C6A 67               [ 4] 5310 	ld	h, a
                                   5311 ;	spillPairReg hl
                                   5312 ;	spillPairReg hl
                                   5313 ;E:\Dropbox\FAUSTO\SVILUPPI\MSX\CODE\C\MSXgl\projects\soccerlg/soccerlg_s4_b1.c:972: if (edist < 40) safeToKick = true;
    00001C6B 7D               [ 4] 5314 	ld	a, l
    00001C6C D6 28            [ 7] 5315 	sub	a, #0x28
    00001C6E 7C               [ 4] 5316 	ld	a, h
    00001C6F DE 00            [ 7] 5317 	sbc	a, #0x00
    00001C71 30 04            [12] 5318 	jr	NC, 00130$
    00001C73 DD 36 F9 01      [19] 5319 	ld	-7 (ix), #0x01
    00001C77                       5320 00130$:
                                   5321 ;E:\Dropbox\FAUSTO\SVILUPPI\MSX\CODE\C\MSXgl\projects\soccerlg/soccerlg_s4_b1.c:976: if (safeToKick) {
    00001C77 DD 7E F9         [19] 5322 	ld	a, -7 (ix)
    00001C7A B7               [ 4] 5323 	or	a, a
    00001C7B CAr70r1D         [10] 5324 	jp	Z, 00160$
                                   5325 ;E:\Dropbox\FAUSTO\SVILUPPI\MSX\CODE\C\MSXgl\projects\soccerlg/soccerlg_s4_b1.c:978: if (targetId != NO_VALUE) {
    00001C7E 7B               [ 4] 5326 	ld	a, e
    00001C7F 3C               [ 4] 5327 	inc	a
    00001C80 28 77            [12] 5328 	jr	Z, 00151$
                                   5329 ;E:\Dropbox\FAUSTO\SVILUPPI\MSX\CODE\C\MSXgl\projects\soccerlg/soccerlg_s4_b1.c:979: Trampoline_VOID_P1(2, PerformPass,targetId);
    00001C82 C5               [11] 5330 	push	bc
    00001C83 7B               [ 4] 5331 	ld	a, e
    00001C84 F5               [11] 5332 	push	af
    00001C85 33               [ 6] 5333 	inc	sp
    00001C86 11r00r00         [10] 5334 	ld	de, #_PerformPass
    00001C89 3E 02            [ 7] 5335 	ld	a, #0x02
    00001C8B CDr00r00         [17] 5336 	call	_Trampoline_VOID_P1
    00001C8E C1               [10] 5337 	pop	bc
                                   5338 ;E:\Dropbox\FAUSTO\SVILUPPI\MSX\CODE\C\MSXgl\projects\soccerlg/soccerlg_s4_b1.c:982: u8 dir = g_Players[g_GkAnimPlayerId].Direction;
    00001C8F ED 5Br00r00      [20] 5339 	ld	de, (_g_GkAnimPlayerId)
    00001C93 16 00            [ 7] 5340 	ld	d, #0x00
    00001C95 6B               [ 4] 5341 	ld	l, e
    00001C96 62               [ 4] 5342 	ld	h, d
    00001C97 29               [11] 5343 	add	hl, hl
    00001C98 29               [11] 5344 	add	hl, hl
    00001C99 19               [11] 5345 	add	hl, de
    00001C9A 29               [11] 5346 	add	hl, hl
    00001C9B 29               [11] 5347 	add	hl, hl
    00001C9C 19               [11] 5348 	add	hl, de
    00001C9D 09               [11] 5349 	add	hl, bc
                                   5350 ;	spillPairReg hl
                                   5351 ;	spillPairReg hl
    00001C9E 5D               [ 4] 5352 	ld	e, l
    00001C9F 54               [ 4] 5353 	ld	d, h
                                   5354 ;	spillPairReg hl
                                   5355 ;	spillPairReg hl
    00001CA0 C5               [11] 5356 	push	bc
    00001CA1 01 0A 00         [10] 5357 	ld	bc, #0x000a
    00001CA4 09               [11] 5358 	add	hl, bc
    00001CA5 C1               [10] 5359 	pop	bc
    00001CA6 7E               [ 7] 5360 	ld	a, (hl)
                                   5361 ;E:\Dropbox\FAUSTO\SVILUPPI\MSX\CODE\C\MSXgl\projects\soccerlg/soccerlg_s4_b1.c:986: if (dir == DIRECTION_RIGHT || dir == DIRECTION_UP_RIGHT || dir == DIRECTION_DOWN_RIGHT) 
    00001CA7 FE 03            [ 7] 5362 	cp	a, #0x03
    00001CA9 28 08            [12] 5363 	jr	Z, 00136$
    00001CAB FE 02            [ 7] 5364 	cp	a, #0x02
    00001CAD 28 04            [12] 5365 	jr	Z, 00136$
    00001CAF FE 04            [ 7] 5366 	cp	a, #0x04
    00001CB1 20 07            [12] 5367 	jr	NZ, 00137$
    00001CB3                       5368 00136$:
                                   5369 ;E:\Dropbox\FAUSTO\SVILUPPI\MSX\CODE\C\MSXgl\projects\soccerlg/soccerlg_s4_b1.c:987: pose = (team == TEAM_1) ? PLAYER_POSE_TEAM1_RESTART_RIGHT : PLAYER_POSE_TEAM2_RESTART_RIGHT;
    00001CB3 DD 36 FF CB      [19] 5370 	ld	-1 (ix), #0xcb
    00001CB7 C3rD1r1C         [10] 5371 	jp	00138$
    00001CBA                       5372 00137$:
                                   5373 ;E:\Dropbox\FAUSTO\SVILUPPI\MSX\CODE\C\MSXgl\projects\soccerlg/soccerlg_s4_b1.c:988: else if (dir == DIRECTION_LEFT || dir == DIRECTION_UP_LEFT || dir == DIRECTION_DOWN_LEFT)
    00001CBA FE 07            [ 7] 5374 	cp	a, #0x07
    00001CBC 28 08            [12] 5375 	jr	Z, 00131$
    00001CBE FE 08            [ 7] 5376 	cp	a, #0x08
    00001CC0 28 04            [12] 5377 	jr	Z, 00131$
    00001CC2 D6 06            [ 7] 5378 	sub	a, #0x06
    00001CC4 20 07            [12] 5379 	jr	NZ, 00132$
    00001CC6                       5380 00131$:
                                   5381 ;E:\Dropbox\FAUSTO\SVILUPPI\MSX\CODE\C\MSXgl\projects\soccerlg/soccerlg_s4_b1.c:989: pose = (team == TEAM_1) ? PLAYER_POSE_TEAM1_RESTART_LEFT : PLAYER_POSE_TEAM2_RESTART_LEFT;
    00001CC6 DD 36 FF 44      [19] 5382 	ld	-1 (ix), #0x44
    00001CCA C3rD1r1C         [10] 5383 	jp	00138$
    00001CCD                       5384 00132$:
                                   5385 ;E:\Dropbox\FAUSTO\SVILUPPI\MSX\CODE\C\MSXgl\projects\soccerlg/soccerlg_s4_b1.c:991: pose = (team == TEAM_1) ? PLAYER_POSE_TEAM1_RESTART_FRONT : PLAYER_POSE_TEAM2_RESTART_FRONT;
    00001CCD DD 36 FF 45      [19] 5386 	ld	-1 (ix), #0x45
    00001CD1                       5387 00138$:
                                   5388 ;E:\Dropbox\FAUSTO\SVILUPPI\MSX\CODE\C\MSXgl\projects\soccerlg/soccerlg_s4_b1.c:993: g_Players[g_GkAnimPlayerId].PatternId = pose;
    00001CD1 21 08 00         [10] 5389 	ld	hl, #0x0008
    00001CD4 19               [11] 5390 	add	hl, de
    00001CD5 DD 7E FF         [19] 5391 	ld	a, -1 (ix)
    00001CD8 77               [ 7] 5392 	ld	(hl), a
                                   5393 ;E:\Dropbox\FAUSTO\SVILUPPI\MSX\CODE\C\MSXgl\projects\soccerlg/soccerlg_s4_b1.c:995: g_Players[g_GkAnimPlayerId].Status = PLAYER_STATUS_POSITIONED;
    00001CD9 ED 5Br00r00      [20] 5394 	ld	de, (_g_GkAnimPlayerId)
    00001CDD 16 00            [ 7] 5395 	ld	d, #0x00
    00001CDF 6B               [ 4] 5396 	ld	l, e
    00001CE0 62               [ 4] 5397 	ld	h, d
    00001CE1 29               [11] 5398 	add	hl, hl
    00001CE2 29               [11] 5399 	add	hl, hl
    00001CE3 19               [11] 5400 	add	hl, de
    00001CE4 29               [11] 5401 	add	hl, hl
    00001CE5 29               [11] 5402 	add	hl, hl
    00001CE6 19               [11] 5403 	add	hl, de
    00001CE7 09               [11] 5404 	add	hl, bc
    00001CE8 01 12 00         [10] 5405 	ld	bc, #0x0012
    00001CEB 09               [11] 5406 	add	hl, bc
    00001CEC 36 04            [10] 5407 	ld	(hl), #0x04
    00001CEE 23               [ 6] 5408 	inc	hl
    00001CEF 36 00            [10] 5409 	ld	(hl), #0x00
                                   5410 ;E:\Dropbox\FAUSTO\SVILUPPI\MSX\CODE\C\MSXgl\projects\soccerlg/soccerlg_s4_b1.c:998: g_MatchStatus = MATCH_IN_ACTION;
    00001CF1 21r00r00         [10] 5411 	ld	hl, #_g_MatchStatus
    00001CF4 36 0C            [10] 5412 	ld	(hl), #0x0c
    00001CF6 C3r70r1D         [10] 5413 	jp	00160$
    00001CF9                       5414 00151$:
                                   5415 ;E:\Dropbox\FAUSTO\SVILUPPI\MSX\CODE\C\MSXgl\projects\soccerlg/soccerlg_s4_b1.c:1002: u8 team = g_Players[g_GkAnimPlayerId].TeamId;
    00001CF9 ED 5Br00r00      [20] 5416 	ld	de, (_g_GkAnimPlayerId)
    00001CFD 16 00            [ 7] 5417 	ld	d, #0x00
    00001CFF 6B               [ 4] 5418 	ld	l, e
    00001D00 62               [ 4] 5419 	ld	h, d
    00001D01 29               [11] 5420 	add	hl, hl
    00001D02 29               [11] 5421 	add	hl, hl
    00001D03 19               [11] 5422 	add	hl, de
    00001D04 29               [11] 5423 	add	hl, hl
    00001D05 29               [11] 5424 	add	hl, hl
    00001D06 19               [11] 5425 	add	hl, de
    00001D07 09               [11] 5426 	add	hl, bc
                                   5427 ;	spillPairReg hl
                                   5428 ;	spillPairReg hl
    00001D08 5D               [ 4] 5429 	ld	e, l
    00001D09 54               [ 4] 5430 	ld	d, h
                                   5431 ;	spillPairReg hl
                                   5432 ;	spillPairReg hl
    00001D0A C5               [11] 5433 	push	bc
    00001D0B 01 09 00         [10] 5434 	ld	bc, #0x0009
    00001D0E 09               [11] 5435 	add	hl, bc
    00001D0F C1               [10] 5436 	pop	bc
    00001D10 7E               [ 7] 5437 	ld	a, (hl)
    00001D11 DD 77 FF         [19] 5438 	ld	-1 (ix), a
                                   5439 ;E:\Dropbox\FAUSTO\SVILUPPI\MSX\CODE\C\MSXgl\projects\soccerlg/soccerlg_s4_b1.c:1004: g_Players[g_GkAnimPlayerId].PatternId = pose;
    00001D14 21 08 00         [10] 5440 	ld	hl, #0x0008
    00001D17 19               [11] 5441 	add	hl, de
    00001D18 36 45            [10] 5442 	ld	(hl), #0x45
                                   5443 ;E:\Dropbox\FAUSTO\SVILUPPI\MSX\CODE\C\MSXgl\projects\soccerlg/soccerlg_s4_b1.c:1007: u16 tx = g_Players[g_GkAnimPlayerId].X;
    00001D1A ED 5Br00r00      [20] 5444 	ld	de, (_g_GkAnimPlayerId)
    00001D1E 16 00            [ 7] 5445 	ld	d, #0x00
    00001D20 6B               [ 4] 5446 	ld	l, e
    00001D21 62               [ 4] 5447 	ld	h, d
    00001D22 29               [11] 5448 	add	hl, hl
    00001D23 29               [11] 5449 	add	hl, hl
    00001D24 19               [11] 5450 	add	hl, de
    00001D25 29               [11] 5451 	add	hl, hl
    00001D26 29               [11] 5452 	add	hl, hl
    00001D27 19               [11] 5453 	add	hl, de
    00001D28 09               [11] 5454 	add	hl, bc
                                   5455 ;	spillPairReg hl
                                   5456 ;	spillPairReg hl
    00001D29 5D               [ 4] 5457 	ld	e, l
    00001D2A 54               [ 4] 5458 	ld	d, h
                                   5459 ;	spillPairReg hl
                                   5460 ;	spillPairReg hl
    00001D2B 23               [ 6] 5461 	inc	hl
    00001D2C 23               [ 6] 5462 	inc	hl
    00001D2D 4E               [ 7] 5463 	ld	c, (hl)
    00001D2E 23               [ 6] 5464 	inc	hl
    00001D2F 46               [ 7] 5465 	ld	b, (hl)
                                   5466 ;E:\Dropbox\FAUSTO\SVILUPPI\MSX\CODE\C\MSXgl\projects\soccerlg/soccerlg_s4_b1.c:1010: if (g_Players[g_GkAnimPlayerId].Y > (FIELD_BOUND_Y_TOP + 100)) ty = g_Players[g_GkAnimPlayerId].Y - 100;
    00001D30 EB               [ 4] 5467 	ex	de,hl
    00001D31 5E               [ 7] 5468 	ld	e, (hl)
    00001D32 23               [ 6] 5469 	inc	hl
    00001D33 56               [ 7] 5470 	ld	d, (hl)
                                   5471 ;E:\Dropbox\FAUSTO\SVILUPPI\MSX\CODE\C\MSXgl\projects\soccerlg/soccerlg_s4_b1.c:1009: if (team == TEAM_1) { // Shooting UP
    00001D34 DD 7E FF         [19] 5472 	ld	a, -1 (ix)
    00001D37 3D               [ 4] 5473 	dec	a
    00001D38 20 19            [12] 5474 	jr	NZ, 00148$
                                   5475 ;E:\Dropbox\FAUSTO\SVILUPPI\MSX\CODE\C\MSXgl\projects\soccerlg/soccerlg_s4_b1.c:1010: if (g_Players[g_GkAnimPlayerId].Y > (FIELD_BOUND_Y_TOP + 100)) ty = g_Players[g_GkAnimPlayerId].Y - 100;
    00001D3A 3E 96            [ 7] 5476 	ld	a, #0x96
    00001D3C BB               [ 4] 5477 	cp	a, e
    00001D3D 3E 00            [ 7] 5478 	ld	a, #0x00
    00001D3F 9A               [ 4] 5479 	sbc	a, d
    00001D40 30 0B            [12] 5480 	jr	NC, 00142$
    00001D42 7B               [ 4] 5481 	ld	a, e
    00001D43 C6 9C            [ 7] 5482 	add	a, #0x9c
    00001D45 5F               [ 4] 5483 	ld	e, a
    00001D46 7A               [ 4] 5484 	ld	a, d
    00001D47 CE FF            [ 7] 5485 	adc	a, #0xff
    00001D49 57               [ 4] 5486 	ld	d, a
    00001D4A C3r66r1D         [10] 5487 	jp	00149$
    00001D4D                       5488 00142$:
                                   5489 ;E:\Dropbox\FAUSTO\SVILUPPI\MSX\CODE\C\MSXgl\projects\soccerlg/soccerlg_s4_b1.c:1011: else ty = FIELD_BOUND_Y_TOP;
    00001D4D 11 32 00         [10] 5490 	ld	de, #0x0032
    00001D50 C3r66r1D         [10] 5491 	jp	00149$
    00001D53                       5492 00148$:
                                   5493 ;E:\Dropbox\FAUSTO\SVILUPPI\MSX\CODE\C\MSXgl\projects\soccerlg/soccerlg_s4_b1.c:1013: if (g_Players[g_GkAnimPlayerId].Y < (FIELD_BOUND_Y_BOTTOM - 100)) ty = g_Players[g_GkAnimPlayerId].Y + 100;
    00001D53 7B               [ 4] 5494 	ld	a, e
    00001D54 D6 4A            [ 7] 5495 	sub	a, #0x4a
    00001D56 7A               [ 4] 5496 	ld	a, d
    00001D57 DE 01            [ 7] 5497 	sbc	a, #0x01
    00001D59 30 08            [12] 5498 	jr	NC, 00145$
    00001D5B 21 64 00         [10] 5499 	ld	hl, #0x0064
    00001D5E 19               [11] 5500 	add	hl, de
    00001D5F EB               [ 4] 5501 	ex	de, hl
    00001D60 C3r66r1D         [10] 5502 	jp	00149$
    00001D63                       5503 00145$:
                                   5504 ;E:\Dropbox\FAUSTO\SVILUPPI\MSX\CODE\C\MSXgl\projects\soccerlg/soccerlg_s4_b1.c:1014: else ty = FIELD_BOUND_Y_BOTTOM;
    00001D63 11 AE 01         [10] 5505 	ld	de, #0x01ae
    00001D66                       5506 00149$:
                                   5507 ;E:\Dropbox\FAUSTO\SVILUPPI\MSX\CODE\C\MSXgl\projects\soccerlg/soccerlg_s4_b1.c:1017: PerformShot(tx, ty);
    00001D66 69               [ 4] 5508 	ld	l, c
                                   5509 ;	spillPairReg hl
                                   5510 ;	spillPairReg hl
    00001D67 60               [ 4] 5511 	ld	h, b
                                   5512 ;	spillPairReg hl
                                   5513 ;	spillPairReg hl
    00001D68 CDr84r09         [17] 5514 	call	_PerformShot
                                   5515 ;E:\Dropbox\FAUSTO\SVILUPPI\MSX\CODE\C\MSXgl\projects\soccerlg/soccerlg_s4_b1.c:1020: g_MatchStatus = MATCH_IN_ACTION;
    00001D6B 21r00r00         [10] 5516 	ld	hl, #_g_MatchStatus
    00001D6E 36 0C            [10] 5517 	ld	(hl), #0x0c
    00001D70                       5518 00160$:
                                   5519 ;E:\Dropbox\FAUSTO\SVILUPPI\MSX\CODE\C\MSXgl\projects\soccerlg/soccerlg_s4_b1.c:1025: }
    00001D70 DD F9            [10] 5520 	ld	sp, ix
    00001D72 DD E1            [14] 5521 	pop	ix
    00001D74 C9               [10] 5522 	ret
                                   5523 ;E:\Dropbox\FAUSTO\SVILUPPI\MSX\CODE\C\MSXgl\projects\soccerlg/soccerlg_s4_b1.c:1027: void UpdatePassTarget() {
                                   5524 ;	---------------------------------
                                   5525 ; Function UpdatePassTarget
                                   5526 ; ---------------------------------
    00001D75                       5527 _UpdatePassTarget::
                                   5528 ;E:\Dropbox\FAUSTO\SVILUPPI\MSX\CODE\C\MSXgl\projects\soccerlg/soccerlg_s4_b1.c:1029: if (g_MatchStatus != MATCH_IN_ACTION && g_MatchStatus != MATCH_BALL_ON_GOALKEEPER) {
    00001D75 3Ar00r00         [13] 5529 	ld	a,(_g_MatchStatus+0)
    00001D78 FE 0C            [ 7] 5530 	cp	a,#0x0c
    00001D7A 28 03            [12] 5531 	jr	Z, 00102$
    00001D7C D6 0D            [ 7] 5532 	sub	a, #0x0d
                                   5533 ;E:\Dropbox\FAUSTO\SVILUPPI\MSX\CODE\C\MSXgl\projects\soccerlg/soccerlg_s4_b1.c:1030: return; 
    00001D7E C0               [11] 5534 	ret	NZ
    00001D7F                       5535 00102$:
                                   5536 ;E:\Dropbox\FAUSTO\SVILUPPI\MSX\CODE\C\MSXgl\projects\soccerlg/soccerlg_s4_b1.c:1034: u8 carrier = g_Ball.PossessionPlayerId;
    00001D7F 3Ar06r00         [13] 5537 	ld	a, (#_g_Ball + 6)
    00001D82 4F               [ 4] 5538 	ld	c, a
                                   5539 ;E:\Dropbox\FAUSTO\SVILUPPI\MSX\CODE\C\MSXgl\projects\soccerlg/soccerlg_s4_b1.c:1036: if (g_Ball.PossessionPlayerId == NO_VALUE) {
    00001D83 3C               [ 4] 5540 	inc	a
    00001D84 20 06            [12] 5541 	jr	NZ, 00105$
                                   5542 ;E:\Dropbox\FAUSTO\SVILUPPI\MSX\CODE\C\MSXgl\projects\soccerlg/soccerlg_s4_b1.c:1037: g_PassTargetPlayer = NO_VALUE;
    00001D86 21r00r00         [10] 5543 	ld	hl, #_g_PassTargetPlayer
    00001D89 36 FF            [10] 5544 	ld	(hl), #0xff
                                   5545 ;E:\Dropbox\FAUSTO\SVILUPPI\MSX\CODE\C\MSXgl\projects\soccerlg/soccerlg_s4_b1.c:1038: return;
    00001D8B C9               [10] 5546 	ret
    00001D8C                       5547 00105$:
                                   5548 ;E:\Dropbox\FAUSTO\SVILUPPI\MSX\CODE\C\MSXgl\projects\soccerlg/soccerlg_s4_b1.c:1042: passUpdateTimer++;
    00001D8C 21r00r00         [10] 5549 	ld	hl, #_UpdatePassTarget_passUpdateTimer_65537_1535
    00001D8F 34               [11] 5550 	inc	(hl)
                                   5551 ;E:\Dropbox\FAUSTO\SVILUPPI\MSX\CODE\C\MSXgl\projects\soccerlg/soccerlg_s4_b1.c:1043: if (passUpdateTimer < 8) return;
    00001D90 3Ar00r00         [13] 5552 	ld	a, (_UpdatePassTarget_passUpdateTimer_65537_1535+0)
    00001D93 D6 08            [ 7] 5553 	sub	a, #0x08
    00001D95 D8               [11] 5554 	ret	C
                                   5555 ;E:\Dropbox\FAUSTO\SVILUPPI\MSX\CODE\C\MSXgl\projects\soccerlg/soccerlg_s4_b1.c:1044: passUpdateTimer = 0;
    00001D96 21r00r00         [10] 5556 	ld	hl, #_UpdatePassTarget_passUpdateTimer_65537_1535
    00001D99 36 00            [10] 5557 	ld	(hl), #0x00
                                   5558 ;E:\Dropbox\FAUSTO\SVILUPPI\MSX\CODE\C\MSXgl\projects\soccerlg/soccerlg_s4_b1.c:1046: if (carrier != NO_VALUE) {
    00001D9B 79               [ 4] 5559 	ld	a, c
    00001D9C 3C               [ 4] 5560 	inc	a
    00001D9D 28 08            [12] 5561 	jr	Z, 00111$
                                   5562 ;E:\Dropbox\FAUSTO\SVILUPPI\MSX\CODE\C\MSXgl\projects\soccerlg/soccerlg_s4_b1.c:1047: g_PassTargetPlayer = GetBestPassTarget(carrier);
    00001D9F 79               [ 4] 5563 	ld	a, c
    00001DA0 CDrB2r1D         [17] 5564 	call	_GetBestPassTarget
    00001DA3 32r00r00         [13] 5565 	ld	(_g_PassTargetPlayer+0), a
    00001DA6 C9               [10] 5566 	ret
    00001DA7                       5567 00111$:
                                   5568 ;E:\Dropbox\FAUSTO\SVILUPPI\MSX\CODE\C\MSXgl\projects\soccerlg/soccerlg_s4_b1.c:1049: if (g_Ball.PassTargetPlayerId == NO_VALUE) g_PassTargetPlayer = NO_VALUE;
    00001DA7 3Ar10r00         [13] 5569 	ld	a, (#_g_Ball + 16)
    00001DAA 3C               [ 4] 5570 	inc	a
    00001DAB C0               [11] 5571 	ret	NZ
    00001DAC 21r00r00         [10] 5572 	ld	hl, #_g_PassTargetPlayer
    00001DAF 36 FF            [10] 5573 	ld	(hl), #0xff
                                   5574 ;E:\Dropbox\FAUSTO\SVILUPPI\MSX\CODE\C\MSXgl\projects\soccerlg/soccerlg_s4_b1.c:1051: }
    00001DB1 C9               [10] 5575 	ret
                                   5576 ;E:\Dropbox\FAUSTO\SVILUPPI\MSX\CODE\C\MSXgl\projects\soccerlg/soccerlg_s4_b1.c:1053: u8 GetBestPassTarget(u8 passerId) {
                                   5577 ;	---------------------------------
                                   5578 ; Function GetBestPassTarget
                                   5579 ; ---------------------------------
    00001DB2                       5580 _GetBestPassTarget::
    00001DB2 DD E5            [15] 5581 	push	ix
    00001DB4 DD 21 00 00      [14] 5582 	ld	ix,#0
    00001DB8 DD 39            [15] 5583 	add	ix,sp
    00001DBA 21 E0 FF         [10] 5584 	ld	hl, #-32
    00001DBD 39               [11] 5585 	add	hl, sp
    00001DBE F9               [ 6] 5586 	ld	sp, hl
    00001DBF DD 77 FE         [19] 5587 	ld	-2 (ix), a
                                   5588 ;E:\Dropbox\FAUSTO\SVILUPPI\MSX\CODE\C\MSXgl\projects\soccerlg/soccerlg_s4_b1.c:1054: u8 bestTarget = NO_VALUE;
    00001DC2 DD 36 E0 FF      [19] 5589 	ld	-32 (ix), #0xff
                                   5590 ;E:\Dropbox\FAUSTO\SVILUPPI\MSX\CODE\C\MSXgl\projects\soccerlg/soccerlg_s4_b1.c:1055: i32 bestScore = -2100000000;
    00001DC6 DD 36 E1 00      [19] 5591 	ld	-31 (ix), #0x00
    00001DCA DD 36 E2 8B      [19] 5592 	ld	-30 (ix), #0x8b
    00001DCE DD 36 E3 D4      [19] 5593 	ld	-29 (ix), #0xd4
    00001DD2 DD 36 E4 82      [19] 5594 	ld	-28 (ix), #0x82
                                   5595 ;E:\Dropbox\FAUSTO\SVILUPPI\MSX\CODE\C\MSXgl\projects\soccerlg/soccerlg_s4_b1.c:1056: u8 teamId = g_Players[passerId].TeamId;
    00001DD6 DD 4E FE         [19] 5596 	ld	c, -2 (ix)
    00001DD9 06 00            [ 7] 5597 	ld	b, #0x00
    00001DDB 69               [ 4] 5598 	ld	l, c
    00001DDC 60               [ 4] 5599 	ld	h, b
    00001DDD 29               [11] 5600 	add	hl, hl
    00001DDE 29               [11] 5601 	add	hl, hl
    00001DDF 09               [11] 5602 	add	hl, bc
    00001DE0 29               [11] 5603 	add	hl, hl
    00001DE1 29               [11] 5604 	add	hl, hl
    00001DE2 09               [11] 5605 	add	hl, bc
    00001DE3 11r00r00         [10] 5606 	ld	de, #_g_Players
    00001DE6 19               [11] 5607 	add	hl, de
    00001DE7 4D               [ 4] 5608 	ld	c, l
    00001DE8 44               [ 4] 5609 	ld	b, h
    00001DE9 C5               [11] 5610 	push	bc
    00001DEA FD E1            [14] 5611 	pop	iy
    00001DEC FD 7E 09         [19] 5612 	ld	a, 9 (iy)
    00001DEF DD 77 E5         [19] 5613 	ld	-27 (ix), a
                                   5614 ;E:\Dropbox\FAUSTO\SVILUPPI\MSX\CODE\C\MSXgl\projects\soccerlg/soccerlg_s4_b1.c:1057: u8 dir = g_Players[passerId].Direction;
    00001DF2 C5               [11] 5615 	push	bc
    00001DF3 FD E1            [14] 5616 	pop	iy
    00001DF5 FD 5E 0A         [19] 5617 	ld	e, 10 (iy)
                                   5618 ;E:\Dropbox\FAUSTO\SVILUPPI\MSX\CODE\C\MSXgl\projects\soccerlg/soccerlg_s4_b1.c:1058: i16 px = (i16)g_Players[passerId].X;
    00001DF8 69               [ 4] 5619 	ld	l, c
                                   5620 ;	spillPairReg hl
                                   5621 ;	spillPairReg hl
    00001DF9 60               [ 4] 5622 	ld	h, b
                                   5623 ;	spillPairReg hl
                                   5624 ;	spillPairReg hl
    00001DFA 23               [ 6] 5625 	inc	hl
    00001DFB 23               [ 6] 5626 	inc	hl
    00001DFC 56               [ 7] 5627 	ld	d, (hl)
    00001DFD 23               [ 6] 5628 	inc	hl
    00001DFE 7E               [ 7] 5629 	ld	a, (hl)
    00001DFF DD 72 E6         [19] 5630 	ld	-26 (ix), d
    00001E02 DD 77 E7         [19] 5631 	ld	-25 (ix), a
                                   5632 ;E:\Dropbox\FAUSTO\SVILUPPI\MSX\CODE\C\MSXgl\projects\soccerlg/soccerlg_s4_b1.c:1059: i16 py = (i16)g_Players[passerId].Y;
    00001E05 69               [ 4] 5633 	ld	l, c
    00001E06 60               [ 4] 5634 	ld	h, b
    00001E07 56               [ 7] 5635 	ld	d, (hl)
    00001E08 23               [ 6] 5636 	inc	hl
    00001E09 7E               [ 7] 5637 	ld	a, (hl)
    00001E0A DD 72 E8         [19] 5638 	ld	-24 (ix), d
    00001E0D DD 77 E9         [19] 5639 	ld	-23 (ix), a
                                   5640 ;E:\Dropbox\FAUSTO\SVILUPPI\MSX\CODE\C\MSXgl\projects\soccerlg/soccerlg_s4_b1.c:1062: i16 dirX = 0, dirY = 0;
    00001E10 AF               [ 4] 5641 	xor	a, a
    00001E11 DD 77 EA         [19] 5642 	ld	-22 (ix), a
    00001E14 DD 77 EB         [19] 5643 	ld	-21 (ix), a
    00001E17 AF               [ 4] 5644 	xor	a, a
    00001E18 DD 77 EC         [19] 5645 	ld	-20 (ix), a
    00001E1B DD 77 ED         [19] 5646 	ld	-19 (ix), a
                                   5647 ;E:\Dropbox\FAUSTO\SVILUPPI\MSX\CODE\C\MSXgl\projects\soccerlg/soccerlg_s4_b1.c:1065: if (dir == DIRECTION_NONE) dir = g_Players[passerId].PreviousDirection;
    00001E1E 7B               [ 4] 5648 	ld	a, e
    00001E1F B7               [ 4] 5649 	or	a, a
    00001E20 20 07            [12] 5650 	jr	NZ, 00102$
    00001E22 59               [ 4] 5651 	ld	e, c
    00001E23 50               [ 4] 5652 	ld	d, b
    00001E24 21 0B 00         [10] 5653 	ld	hl, #11
    00001E27 19               [11] 5654 	add	hl, de
    00001E28 5E               [ 7] 5655 	ld	e, (hl)
    00001E29                       5656 00102$:
                                   5657 ;E:\Dropbox\FAUSTO\SVILUPPI\MSX\CODE\C\MSXgl\projects\soccerlg/soccerlg_s4_b1.c:1067: if (dir == DIRECTION_UP) dirY = -100;
    00001E29 7B               [ 4] 5658 	ld	a, e
    00001E2A 3D               [ 4] 5659 	dec	a
    00001E2B 20 0B            [12] 5660 	jr	NZ, 00128$
    00001E2D DD 36 EC 9C      [19] 5661 	ld	-20 (ix), #0x9c
    00001E31 DD 36 ED FF      [19] 5662 	ld	-19 (ix), #0xff
    00001E35 C3rE1r1E         [10] 5663 	jp	00180$
    00001E38                       5664 00128$:
                                   5665 ;E:\Dropbox\FAUSTO\SVILUPPI\MSX\CODE\C\MSXgl\projects\soccerlg/soccerlg_s4_b1.c:1068: else if (dir == DIRECTION_DOWN) dirY = 100;
    00001E38 7B               [ 4] 5666 	ld	a, e
    00001E39 D6 05            [ 7] 5667 	sub	a, #0x05
    00001E3B 20 0B            [12] 5668 	jr	NZ, 00125$
    00001E3D DD 36 EC 64      [19] 5669 	ld	-20 (ix), #0x64
    00001E41 DD 36 ED 00      [19] 5670 	ld	-19 (ix), #0
    00001E45 C3rE1r1E         [10] 5671 	jp	00180$
    00001E48                       5672 00125$:
                                   5673 ;E:\Dropbox\FAUSTO\SVILUPPI\MSX\CODE\C\MSXgl\projects\soccerlg/soccerlg_s4_b1.c:1069: else if (dir == DIRECTION_LEFT) dirX = -100;
    00001E48 7B               [ 4] 5674 	ld	a, e
    00001E49 D6 07            [ 7] 5675 	sub	a, #0x07
    00001E4B 20 0B            [12] 5676 	jr	NZ, 00122$
    00001E4D DD 36 EA 9C      [19] 5677 	ld	-22 (ix), #0x9c
    00001E51 DD 36 EB FF      [19] 5678 	ld	-21 (ix), #0xff
    00001E55 C3rE1r1E         [10] 5679 	jp	00180$
    00001E58                       5680 00122$:
                                   5681 ;E:\Dropbox\FAUSTO\SVILUPPI\MSX\CODE\C\MSXgl\projects\soccerlg/soccerlg_s4_b1.c:1070: else if (dir == DIRECTION_RIGHT) dirX = 100;
    00001E58 7B               [ 4] 5682 	ld	a, e
    00001E59 D6 03            [ 7] 5683 	sub	a, #0x03
    00001E5B 20 0B            [12] 5684 	jr	NZ, 00119$
    00001E5D DD 36 EA 64      [19] 5685 	ld	-22 (ix), #0x64
    00001E61 DD 36 EB 00      [19] 5686 	ld	-21 (ix), #0
    00001E65 C3rE1r1E         [10] 5687 	jp	00180$
    00001E68                       5688 00119$:
                                   5689 ;E:\Dropbox\FAUSTO\SVILUPPI\MSX\CODE\C\MSXgl\projects\soccerlg/soccerlg_s4_b1.c:1071: else if (dir == DIRECTION_UP_RIGHT) { dirX = 70; dirY = -70; }
    00001E68 7B               [ 4] 5690 	ld	a, e
    00001E69 D6 02            [ 7] 5691 	sub	a, #0x02
    00001E6B 20 13            [12] 5692 	jr	NZ, 00116$
    00001E6D DD 36 EA 46      [19] 5693 	ld	-22 (ix), #0x46
    00001E71 AF               [ 4] 5694 	xor	a, a
    00001E72 DD 77 EB         [19] 5695 	ld	-21 (ix), a
    00001E75 DD 36 EC BA      [19] 5696 	ld	-20 (ix), #0xba
    00001E79 DD 36 ED FF      [19] 5697 	ld	-19 (ix), #0xff
    00001E7D C3rE1r1E         [10] 5698 	jp	00180$
    00001E80                       5699 00116$:
                                   5700 ;E:\Dropbox\FAUSTO\SVILUPPI\MSX\CODE\C\MSXgl\projects\soccerlg/soccerlg_s4_b1.c:1072: else if (dir == DIRECTION_UP_LEFT) { dirX = -70; dirY = -70; }
    00001E80 7B               [ 4] 5701 	ld	a, e
    00001E81 D6 08            [ 7] 5702 	sub	a, #0x08
    00001E83 20 13            [12] 5703 	jr	NZ, 00113$
    00001E85 DD 36 EA BA      [19] 5704 	ld	-22 (ix), #0xba
    00001E89 DD 36 EB FF      [19] 5705 	ld	-21 (ix), #0xff
    00001E8D DD 36 EC BA      [19] 5706 	ld	-20 (ix), #0xba
    00001E91 DD 36 ED FF      [19] 5707 	ld	-19 (ix), #0xff
    00001E95 C3rE1r1E         [10] 5708 	jp	00180$
    00001E98                       5709 00113$:
                                   5710 ;E:\Dropbox\FAUSTO\SVILUPPI\MSX\CODE\C\MSXgl\projects\soccerlg/soccerlg_s4_b1.c:1073: else if (dir == DIRECTION_DOWN_RIGHT) { dirX = 70; dirY = 70; }
    00001E98 7B               [ 4] 5711 	ld	a, e
    00001E99 D6 04            [ 7] 5712 	sub	a, #0x04
    00001E9B 20 13            [12] 5713 	jr	NZ, 00110$
    00001E9D DD 36 EA 46      [19] 5714 	ld	-22 (ix), #0x46
    00001EA1 DD 36 EB 00      [19] 5715 	ld	-21 (ix), #0
    00001EA5 DD 36 EC 46      [19] 5716 	ld	-20 (ix), #0x46
    00001EA9 DD 36 ED 00      [19] 5717 	ld	-19 (ix), #0
    00001EAD C3rE1r1E         [10] 5718 	jp	00180$
    00001EB0                       5719 00110$:
                                   5720 ;E:\Dropbox\FAUSTO\SVILUPPI\MSX\CODE\C\MSXgl\projects\soccerlg/soccerlg_s4_b1.c:1074: else if (dir == DIRECTION_DOWN_LEFT) { dirX = -70; dirY = 70; }
    00001EB0 7B               [ 4] 5721 	ld	a, e
    00001EB1 D6 06            [ 7] 5722 	sub	a, #0x06
    00001EB3 20 13            [12] 5723 	jr	NZ, 00107$
    00001EB5 DD 36 EA BA      [19] 5724 	ld	-22 (ix), #0xba
    00001EB9 DD 36 EB FF      [19] 5725 	ld	-21 (ix), #0xff
    00001EBD DD 36 EC 46      [19] 5726 	ld	-20 (ix), #0x46
    00001EC1 DD 36 ED 00      [19] 5727 	ld	-19 (ix), #0
    00001EC5 C3rE1r1E         [10] 5728 	jp	00180$
    00001EC8                       5729 00107$:
                                   5730 ;E:\Dropbox\FAUSTO\SVILUPPI\MSX\CODE\C\MSXgl\projects\soccerlg/soccerlg_s4_b1.c:1076: if (teamId == TEAM_1) dirY = -100; 
    00001EC8 DD 7E E5         [19] 5731 	ld	a, -27 (ix)
    00001ECB 3D               [ 4] 5732 	dec	a
    00001ECC 20 0B            [12] 5733 	jr	NZ, 00104$
    00001ECE DD 36 EC 9C      [19] 5734 	ld	-20 (ix), #0x9c
    00001ED2 DD 36 ED FF      [19] 5735 	ld	-19 (ix), #0xff
    00001ED6 C3rE1r1E         [10] 5736 	jp	00180$
    00001ED9                       5737 00104$:
                                   5738 ;E:\Dropbox\FAUSTO\SVILUPPI\MSX\CODE\C\MSXgl\projects\soccerlg/soccerlg_s4_b1.c:1077: else dirY = 100; 
    00001ED9 DD 36 EC 64      [19] 5739 	ld	-20 (ix), #0x64
    00001EDD DD 36 ED 00      [19] 5740 	ld	-19 (ix), #0
                                   5741 ;E:\Dropbox\FAUSTO\SVILUPPI\MSX\CODE\C\MSXgl\projects\soccerlg/soccerlg_s4_b1.c:1080: for(i=0; i<14; i++) {
    00001EE1                       5742 00180$:
    00001EE1 DD 71 EE         [19] 5743 	ld	-18 (ix), c
    00001EE4 DD 70 EF         [19] 5744 	ld	-17 (ix), b
    00001EE7 DD 36 FF 00      [19] 5745 	ld	-1 (ix), #0x00
    00001EEB                       5746 00152$:
                                   5747 ;E:\Dropbox\FAUSTO\SVILUPPI\MSX\CODE\C\MSXgl\projects\soccerlg/soccerlg_s4_b1.c:1085: if(g_Players[i].TeamId != teamId) continue;
    00001EEB DD 4E FF         [19] 5748 	ld	c, -1 (ix)
    00001EEE 06 00            [ 7] 5749 	ld	b, #0x00
    00001EF0 69               [ 4] 5750 	ld	l, c
    00001EF1 60               [ 4] 5751 	ld	h, b
    00001EF2 29               [11] 5752 	add	hl, hl
    00001EF3 29               [11] 5753 	add	hl, hl
    00001EF4 09               [11] 5754 	add	hl, bc
    00001EF5 29               [11] 5755 	add	hl, hl
    00001EF6 29               [11] 5756 	add	hl, hl
    00001EF7 09               [11] 5757 	add	hl, bc
    00001EF8 EB               [ 4] 5758 	ex	de, hl
    00001EF9 21r00r00         [10] 5759 	ld	hl, #_g_Players
    00001EFC 19               [11] 5760 	add	hl, de
    00001EFD DD 75 FC         [19] 5761 	ld	-4 (ix), l
    00001F00 DD 74 FD         [19] 5762 	ld	-3 (ix), h
    00001F03 01 09 00         [10] 5763 	ld	bc,#9
    00001F06 09               [11] 5764 	add	hl,bc
    00001F07 DD 7E E5         [19] 5765 	ld	a,-27 (ix)
    00001F0A 96               [ 7] 5766 	sub	a,(hl)
    00001F0B C2r8Fr21         [10] 5767 	jp	NZ,00150$
                                   5768 ;E:\Dropbox\FAUSTO\SVILUPPI\MSX\CODE\C\MSXgl\projects\soccerlg/soccerlg_s4_b1.c:1086: if(i == passerId) continue;
    00001F0E DD 7E FE         [19] 5769 	ld	a, -2 (ix)
    00001F11 DD 96 FF         [19] 5770 	sub	a, -1 (ix)
    00001F14 CAr8Fr21         [10] 5771 	jp	Z,00150$
                                   5772 ;E:\Dropbox\FAUSTO\SVILUPPI\MSX\CODE\C\MSXgl\projects\soccerlg/soccerlg_s4_b1.c:1088: if(g_Players[i].Role == PLAYER_ROLE_GOALKEEPER) continue; 
    00001F17 DD 4E FC         [19] 5773 	ld	c, -4 (ix)
    00001F1A DD 46 FD         [19] 5774 	ld	b, -3 (ix)
    00001F1D 21 0D 00         [10] 5775 	ld	hl, #13
    00001F20 09               [11] 5776 	add	hl, bc
    00001F21 7E               [ 7] 5777 	ld	a, (hl)
    00001F22 B7               [ 4] 5778 	or	a, a
    00001F23 CAr8Fr21         [10] 5779 	jp	Z, 00150$
                                   5780 ;E:\Dropbox\FAUSTO\SVILUPPI\MSX\CODE\C\MSXgl\projects\soccerlg/soccerlg_s4_b1.c:1091: if (g_Players[i].Y < g_FieldCurrentYPosition || g_Players[i].Y > (g_FieldCurrentYPosition + 220)) {
    00001F26 DD 6E FC         [19] 5781 	ld	l, -4 (ix)
    00001F29 DD 66 FD         [19] 5782 	ld	h, -3 (ix)
    00001F2C 4E               [ 7] 5783 	ld	c, (hl)
    00001F2D 23               [ 6] 5784 	inc	hl
    00001F2E 46               [ 7] 5785 	ld	b, (hl)
    00001F2F 59               [ 4] 5786 	ld	e, c
    00001F30 50               [ 4] 5787 	ld	d, b
    00001F31 2Ar00r00         [16] 5788 	ld	hl, (_g_FieldCurrentYPosition)
    00001F34 7B               [ 4] 5789 	ld	a, e
    00001F35 95               [ 4] 5790 	sub	a, l
    00001F36 7A               [ 4] 5791 	ld	a, d
    00001F37 9C               [ 4] 5792 	sbc	a, h
    00001F38 DAr8Fr21         [10] 5793 	jp	C, 00150$
    00001F3B FD 21 DC 00      [14] 5794 	ld	iy, #0x00dc
    00001F3F C5               [11] 5795 	push	bc
    00001F40 ED 4Br00r00      [20] 5796 	ld	bc, (_g_FieldCurrentYPosition)
    00001F44 FD 09            [15] 5797 	add	iy, bc
    00001F46 C1               [10] 5798 	pop	bc
    00001F47 FD E5            [15] 5799 	push	iy
    00001F49 E1               [10] 5800 	pop	hl
    00001F4A AF               [ 4] 5801 	xor	a, a
    00001F4B ED 52            [15] 5802 	sbc	hl, de
    00001F4D DAr8Fr21         [10] 5803 	jp	C, 00150$
                                   5804 ;E:\Dropbox\FAUSTO\SVILUPPI\MSX\CODE\C\MSXgl\projects\soccerlg/soccerlg_s4_b1.c:1095: dx = (i16)g_Players[i].X - px;
    00001F50 DD 6E FC         [19] 5805 	ld	l, -4 (ix)
                                   5806 ;	spillPairReg hl
                                   5807 ;	spillPairReg hl
    00001F53 DD 66 FD         [19] 5808 	ld	h, -3 (ix)
                                   5809 ;	spillPairReg hl
                                   5810 ;	spillPairReg hl
    00001F56 23               [ 6] 5811 	inc	hl
    00001F57 23               [ 6] 5812 	inc	hl
    00001F58 5E               [ 7] 5813 	ld	e, (hl)
    00001F59 23               [ 6] 5814 	inc	hl
    00001F5A 56               [ 7] 5815 	ld	d, (hl)
    00001F5B 7B               [ 4] 5816 	ld	a, e
    00001F5C DD 96 E6         [19] 5817 	sub	a, -26 (ix)
    00001F5F 5F               [ 4] 5818 	ld	e, a
    00001F60 7A               [ 4] 5819 	ld	a, d
    00001F61 DD 9E E7         [19] 5820 	sbc	a, -25 (ix)
    00001F64 DD 73 FA         [19] 5821 	ld	-6 (ix), e
    00001F67 DD 77 FB         [19] 5822 	ld	-5 (ix), a
                                   5823 ;E:\Dropbox\FAUSTO\SVILUPPI\MSX\CODE\C\MSXgl\projects\soccerlg/soccerlg_s4_b1.c:1096: dy = (i16)g_Players[i].Y - py;
    00001F6A 79               [ 4] 5824 	ld	a, c
    00001F6B DD 96 E8         [19] 5825 	sub	a, -24 (ix)
    00001F6E 4F               [ 4] 5826 	ld	c, a
    00001F6F 78               [ 4] 5827 	ld	a, b
    00001F70 DD 9E E9         [19] 5828 	sbc	a, -23 (ix)
    00001F73 DD 71 FC         [19] 5829 	ld	-4 (ix), c
    00001F76 DD 77 FD         [19] 5830 	ld	-3 (ix), a
                                   5831 ;E:\Dropbox\FAUSTO\SVILUPPI\MSX\CODE\C\MSXgl\projects\soccerlg/soccerlg_s4_b1.c:1100: adx = (dx < 0) ? -dx : dx;
    00001F79 DD 46 FB         [19] 5832 	ld	b, -5 (ix)
    00001F7C CB 78            [ 8] 5833 	bit	7, b
    00001F7E 28 11            [12] 5834 	jr	Z, 00155$
    00001F80 AF               [ 4] 5835 	xor	a, a
    00001F81 DD 96 FA         [19] 5836 	sub	a, -6 (ix)
    00001F84 DD 77 F8         [19] 5837 	ld	-8 (ix), a
    00001F87 9F               [ 4] 5838 	sbc	a, a
    00001F88 DD 96 FB         [19] 5839 	sub	a, -5 (ix)
    00001F8B DD 77 F9         [19] 5840 	ld	-7 (ix), a
    00001F8E C3r9Dr1F         [10] 5841 	jp	00156$
    00001F91                       5842 00155$:
    00001F91 DD 7E FA         [19] 5843 	ld	a, -6 (ix)
    00001F94 DD 77 F8         [19] 5844 	ld	-8 (ix), a
    00001F97 DD 7E FB         [19] 5845 	ld	a, -5 (ix)
    00001F9A DD 77 F9         [19] 5846 	ld	-7 (ix), a
    00001F9D                       5847 00156$:
    00001F9D DD 4E F8         [19] 5848 	ld	c, -8 (ix)
    00001FA0 DD 46 F9         [19] 5849 	ld	b, -7 (ix)
                                   5850 ;E:\Dropbox\FAUSTO\SVILUPPI\MSX\CODE\C\MSXgl\projects\soccerlg/soccerlg_s4_b1.c:1101: ady = (dy < 0) ? -dy : dy;
    00001FA3 DD 56 FD         [19] 5851 	ld	d, -3 (ix)
    00001FA6 CB 7A            [ 8] 5852 	bit	7, d
    00001FA8 28 0C            [12] 5853 	jr	Z, 00157$
    00001FAA AF               [ 4] 5854 	xor	a, a
    00001FAB DD 96 FC         [19] 5855 	sub	a, -4 (ix)
    00001FAE 5F               [ 4] 5856 	ld	e, a
    00001FAF 9F               [ 4] 5857 	sbc	a, a
    00001FB0 DD 96 FD         [19] 5858 	sub	a, -3 (ix)
    00001FB3 C3rBCr1F         [10] 5859 	jp	00158$
    00001FB6                       5860 00157$:
    00001FB6 DD 5E FC         [19] 5861 	ld	e, -4 (ix)
    00001FB9 DD 7E FD         [19] 5862 	ld	a, -3 (ix)
    00001FBC                       5863 00158$:
    00001FBC DD 73 F0         [19] 5864 	ld	-16 (ix), e
    00001FBF DD 77 F1         [19] 5865 	ld	-15 (ix), a
                                   5866 ;E:\Dropbox\FAUSTO\SVILUPPI\MSX\CODE\C\MSXgl\projects\soccerlg/soccerlg_s4_b1.c:1102: if (adx < 32 && ady < 32) continue;
    00001FC2 59               [ 4] 5867 	ld	e, c
    00001FC3 50               [ 4] 5868 	ld	d, b
    00001FC4 7B               [ 4] 5869 	ld	a, e
    00001FC5 D6 20            [ 7] 5870 	sub	a, #0x20
    00001FC7 7A               [ 4] 5871 	ld	a, d
    00001FC8 17               [ 4] 5872 	rla
    00001FC9 3F               [ 4] 5873 	ccf
    00001FCA 1F               [ 4] 5874 	rra
    00001FCB DE 80            [ 7] 5875 	sbc	a, #0x80
    00001FCD 30 12            [12] 5876 	jr	NC, 00140$
    00001FCF DD 5E F0         [19] 5877 	ld	e, -16 (ix)
    00001FD2 DD 56 F1         [19] 5878 	ld	d, -15 (ix)
    00001FD5 7B               [ 4] 5879 	ld	a, e
    00001FD6 D6 20            [ 7] 5880 	sub	a, #0x20
    00001FD8 7A               [ 4] 5881 	ld	a, d
    00001FD9 17               [ 4] 5882 	rla
    00001FDA 3F               [ 4] 5883 	ccf
    00001FDB 1F               [ 4] 5884 	rra
    00001FDC DE 80            [ 7] 5885 	sbc	a, #0x80
    00001FDE DAr8Fr21         [10] 5886 	jp	C, 00150$
    00001FE1                       5887 00140$:
                                   5888 ;E:\Dropbox\FAUSTO\SVILUPPI\MSX\CODE\C\MSXgl\projects\soccerlg/soccerlg_s4_b1.c:1105: if (g_Players[passerId].Role == PLAYER_ROLE_GOALKEEPER) {
    00001FE1 DD 6E EE         [19] 5889 	ld	l, -18 (ix)
    00001FE4 DD 66 EF         [19] 5890 	ld	h, -17 (ix)
    00001FE7 11 0D 00         [10] 5891 	ld	de, #0x000d
    00001FEA 19               [11] 5892 	add	hl, de
    00001FEB 5E               [ 7] 5893 	ld	e, (hl)
                                   5894 ;E:\Dropbox\FAUSTO\SVILUPPI\MSX\CODE\C\MSXgl\projects\soccerlg/soccerlg_s4_b1.c:1107: if (((i32)dx*(i32)dx + (i32)dy*(i32)dy) > 40000) continue;
    00001FEC DD 7E FA         [19] 5895 	ld	a, -6 (ix)
    00001FEF DD 77 F2         [19] 5896 	ld	-14 (ix), a
    00001FF2 DD 7E FB         [19] 5897 	ld	a, -5 (ix)
    00001FF5 DD 77 F3         [19] 5898 	ld	-13 (ix), a
    00001FF8 07               [ 4] 5899 	rlca
    00001FF9 9F               [ 4] 5900 	sbc	a, a
    00001FFA DD 77 F4         [19] 5901 	ld	-12 (ix), a
    00001FFD DD 77 F5         [19] 5902 	ld	-11 (ix), a
    00002000 DD 7E FC         [19] 5903 	ld	a, -4 (ix)
    00002003 DD 77 F6         [19] 5904 	ld	-10 (ix), a
    00002006 DD 7E FD         [19] 5905 	ld	a, -3 (ix)
    00002009 DD 77 F7         [19] 5906 	ld	-9 (ix), a
    0000200C 07               [ 4] 5907 	rlca
    0000200D 9F               [ 4] 5908 	sbc	a, a
    0000200E DD 77 F8         [19] 5909 	ld	-8 (ix), a
    00002011 DD 77 F9         [19] 5910 	ld	-7 (ix), a
                                   5911 ;E:\Dropbox\FAUSTO\SVILUPPI\MSX\CODE\C\MSXgl\projects\soccerlg/soccerlg_s4_b1.c:1105: if (g_Players[passerId].Role == PLAYER_ROLE_GOALKEEPER) {
    00002014 7B               [ 4] 5912 	ld	a, e
    00002015 B7               [ 4] 5913 	or	a, a
    00002016 20 74            [12] 5914 	jr	NZ, 00145$
                                   5915 ;E:\Dropbox\FAUSTO\SVILUPPI\MSX\CODE\C\MSXgl\projects\soccerlg/soccerlg_s4_b1.c:1107: if (((i32)dx*(i32)dx + (i32)dy*(i32)dy) > 40000) continue;
    00002018 C5               [11] 5916 	push	bc
    00002019 DD 6E F4         [19] 5917 	ld	l, -12 (ix)
                                   5918 ;	spillPairReg hl
                                   5919 ;	spillPairReg hl
    0000201C DD 66 F5         [19] 5920 	ld	h, -11 (ix)
                                   5921 ;	spillPairReg hl
                                   5922 ;	spillPairReg hl
    0000201F E5               [11] 5923 	push	hl
    00002020 DD 6E F2         [19] 5924 	ld	l, -14 (ix)
                                   5925 ;	spillPairReg hl
                                   5926 ;	spillPairReg hl
    00002023 DD 66 F3         [19] 5927 	ld	h, -13 (ix)
                                   5928 ;	spillPairReg hl
                                   5929 ;	spillPairReg hl
    00002026 E5               [11] 5930 	push	hl
    00002027 DD 5E F2         [19] 5931 	ld	e, -14 (ix)
    0000202A DD 56 F3         [19] 5932 	ld	d, -13 (ix)
    0000202D DD 6E F4         [19] 5933 	ld	l, -12 (ix)
                                   5934 ;	spillPairReg hl
                                   5935 ;	spillPairReg hl
    00002030 DD 66 F5         [19] 5936 	ld	h, -11 (ix)
                                   5937 ;	spillPairReg hl
                                   5938 ;	spillPairReg hl
    00002033 CDr00r00         [17] 5939 	call	__mullong
    00002036 F1               [10] 5940 	pop	af
    00002037 F1               [10] 5941 	pop	af
    00002038 DD 73 FA         [19] 5942 	ld	-6 (ix), e
    0000203B DD 72 FB         [19] 5943 	ld	-5 (ix), d
    0000203E DD 75 FC         [19] 5944 	ld	-4 (ix), l
    00002041 DD 74 FD         [19] 5945 	ld	-3 (ix), h
    00002044 DD 6E F8         [19] 5946 	ld	l, -8 (ix)
                                   5947 ;	spillPairReg hl
                                   5948 ;	spillPairReg hl
    00002047 DD 66 F9         [19] 5949 	ld	h, -7 (ix)
                                   5950 ;	spillPairReg hl
                                   5951 ;	spillPairReg hl
    0000204A E5               [11] 5952 	push	hl
    0000204B DD 6E F6         [19] 5953 	ld	l, -10 (ix)
                                   5954 ;	spillPairReg hl
                                   5955 ;	spillPairReg hl
    0000204E DD 66 F7         [19] 5956 	ld	h, -9 (ix)
                                   5957 ;	spillPairReg hl
                                   5958 ;	spillPairReg hl
    00002051 E5               [11] 5959 	push	hl
    00002052 DD 5E F6         [19] 5960 	ld	e, -10 (ix)
    00002055 DD 56 F7         [19] 5961 	ld	d, -9 (ix)
    00002058 DD 6E F8         [19] 5962 	ld	l, -8 (ix)
                                   5963 ;	spillPairReg hl
                                   5964 ;	spillPairReg hl
    0000205B DD 66 F9         [19] 5965 	ld	h, -7 (ix)
                                   5966 ;	spillPairReg hl
                                   5967 ;	spillPairReg hl
    0000205E CDr00r00         [17] 5968 	call	__mullong
    00002061 F1               [10] 5969 	pop	af
    00002062 F1               [10] 5970 	pop	af
    00002063 C1               [10] 5971 	pop	bc
    00002064 7B               [ 4] 5972 	ld	a, e
    00002065 DD 86 FA         [19] 5973 	add	a, -6 (ix)
    00002068 5F               [ 4] 5974 	ld	e, a
    00002069 7A               [ 4] 5975 	ld	a, d
    0000206A DD 8E FB         [19] 5976 	adc	a, -5 (ix)
    0000206D 57               [ 4] 5977 	ld	d, a
    0000206E 7D               [ 4] 5978 	ld	a, l
    0000206F DD 8E FC         [19] 5979 	adc	a, -4 (ix)
    00002072 6F               [ 4] 5980 	ld	l, a
                                   5981 ;	spillPairReg hl
                                   5982 ;	spillPairReg hl
    00002073 7C               [ 4] 5983 	ld	a, h
    00002074 DD 8E FD         [19] 5984 	adc	a, -3 (ix)
    00002077 67               [ 4] 5985 	ld	h, a
                                   5986 ;	spillPairReg hl
                                   5987 ;	spillPairReg hl
    00002078 3E 40            [ 7] 5988 	ld	a, #0x40
    0000207A BB               [ 4] 5989 	cp	a, e
    0000207B 3E 9C            [ 7] 5990 	ld	a, #0x9c
    0000207D 9A               [ 4] 5991 	sbc	a, d
    0000207E 3E 00            [ 7] 5992 	ld	a, #0x00
    00002080 9D               [ 4] 5993 	sbc	a, l
    00002081 3E 00            [ 7] 5994 	ld	a, #0x00
    00002083 9C               [ 4] 5995 	sbc	a, h
    00002084 E2r89r20         [10] 5996 	jp	PO, 00296$
    00002087 EE 80            [ 7] 5997 	xor	a, #0x80
    00002089                       5998 00296$:
    00002089 FAr8Fr21         [10] 5999 	jp	M, 00150$
    0000208C                       6000 00145$:
                                   6001 ;E:\Dropbox\FAUSTO\SVILUPPI\MSX\CODE\C\MSXgl\projects\soccerlg/soccerlg_s4_b1.c:1110: dot = ((i32)dx * dirX) + ((i32)dy * dirY);
    0000208C DD 5E EA         [19] 6002 	ld	e, -22 (ix)
    0000208F DD 7E EB         [19] 6003 	ld	a, -21 (ix)
    00002092 57               [ 4] 6004 	ld	d, a
    00002093 07               [ 4] 6005 	rlca
    00002094 ED 62            [15] 6006 	sbc	hl, hl
    00002096 C5               [11] 6007 	push	bc
    00002097 E5               [11] 6008 	push	hl
    00002098 D5               [11] 6009 	push	de
    00002099 DD 5E F2         [19] 6010 	ld	e, -14 (ix)
    0000209C DD 56 F3         [19] 6011 	ld	d, -13 (ix)
    0000209F DD 6E F4         [19] 6012 	ld	l, -12 (ix)
                                   6013 ;	spillPairReg hl
                                   6014 ;	spillPairReg hl
    000020A2 DD 66 F5         [19] 6015 	ld	h, -11 (ix)
                                   6016 ;	spillPairReg hl
                                   6017 ;	spillPairReg hl
    000020A5 CDr00r00         [17] 6018 	call	__mullong
    000020A8 F1               [10] 6019 	pop	af
    000020A9 F1               [10] 6020 	pop	af
    000020AA DD 73 FA         [19] 6021 	ld	-6 (ix), e
    000020AD DD 72 FB         [19] 6022 	ld	-5 (ix), d
    000020B0 DD 75 FC         [19] 6023 	ld	-4 (ix), l
    000020B3 DD 74 FD         [19] 6024 	ld	-3 (ix), h
    000020B6 C1               [10] 6025 	pop	bc
    000020B7 DD 5E EC         [19] 6026 	ld	e, -20 (ix)
    000020BA DD 7E ED         [19] 6027 	ld	a, -19 (ix)
    000020BD 57               [ 4] 6028 	ld	d, a
    000020BE 07               [ 4] 6029 	rlca
    000020BF ED 62            [15] 6030 	sbc	hl, hl
    000020C1 C5               [11] 6031 	push	bc
    000020C2 E5               [11] 6032 	push	hl
    000020C3 D5               [11] 6033 	push	de
    000020C4 DD 5E F6         [19] 6034 	ld	e, -10 (ix)
    000020C7 DD 56 F7         [19] 6035 	ld	d, -9 (ix)
    000020CA DD 6E F8         [19] 6036 	ld	l, -8 (ix)
                                   6037 ;	spillPairReg hl
                                   6038 ;	spillPairReg hl
    000020CD DD 66 F9         [19] 6039 	ld	h, -7 (ix)
                                   6040 ;	spillPairReg hl
                                   6041 ;	spillPairReg hl
    000020D0 CDr00r00         [17] 6042 	call	__mullong
    000020D3 F1               [10] 6043 	pop	af
    000020D4 F1               [10] 6044 	pop	af
    000020D5 C1               [10] 6045 	pop	bc
    000020D6 7B               [ 4] 6046 	ld	a, e
    000020D7 DD 86 FA         [19] 6047 	add	a, -6 (ix)
    000020DA 5F               [ 4] 6048 	ld	e, a
    000020DB 7A               [ 4] 6049 	ld	a, d
    000020DC DD 8E FB         [19] 6050 	adc	a, -5 (ix)
    000020DF 57               [ 4] 6051 	ld	d, a
    000020E0 7D               [ 4] 6052 	ld	a, l
    000020E1 DD 8E FC         [19] 6053 	adc	a, -4 (ix)
    000020E4 6F               [ 4] 6054 	ld	l, a
                                   6055 ;	spillPairReg hl
                                   6056 ;	spillPairReg hl
    000020E5 7C               [ 4] 6057 	ld	a, h
    000020E6 DD 8E FD         [19] 6058 	adc	a, -3 (ix)
    000020E9 67               [ 4] 6059 	ld	h, a
                                   6060 ;	spillPairReg hl
                                   6061 ;	spillPairReg hl
    000020EA DD 73 FA         [19] 6062 	ld	-6 (ix), e
    000020ED DD 72 FB         [19] 6063 	ld	-5 (ix), d
    000020F0 DD 75 FC         [19] 6064 	ld	-4 (ix), l
    000020F3 DD 74 FD         [19] 6065 	ld	-3 (ix), h
                                   6066 ;E:\Dropbox\FAUSTO\SVILUPPI\MSX\CODE\C\MSXgl\projects\soccerlg/soccerlg_s4_b1.c:1113: if (dot <= 0) {
    000020F6 AF               [ 4] 6067 	xor	a, a
    000020F7 DD BE FA         [19] 6068 	cp	a, -6 (ix)
    000020FA DD 9E FB         [19] 6069 	sbc	a, -5 (ix)
    000020FD 3E 00            [ 7] 6070 	ld	a, #0x00
    000020FF DD 9E FC         [19] 6071 	sbc	a, -4 (ix)
    00002102 3E 00            [ 7] 6072 	ld	a, #0x00
    00002104 DD 9E FD         [19] 6073 	sbc	a, -3 (ix)
    00002107 E2r0Cr21         [10] 6074 	jp	PO, 00297$
    0000210A EE 80            [ 7] 6075 	xor	a, #0x80
    0000210C                       6076 00297$:
    0000210C F2r8Fr21         [10] 6077 	jp	P, 00150$
                                   6078 ;E:\Dropbox\FAUSTO\SVILUPPI\MSX\CODE\C\MSXgl\projects\soccerlg/soccerlg_s4_b1.c:1124: score = dot - ((i32)(adx + ady) * 40); 
    0000210F DD 6E F0         [19] 6079 	ld	l, -16 (ix)
    00002112 DD 66 F1         [19] 6080 	ld	h, -15 (ix)
    00002115 09               [11] 6081 	add	hl, bc
    00002116 EB               [ 4] 6082 	ex	de, hl
    00002117 21 28 00         [10] 6083 	ld	hl, #0x0028
    0000211A CDr00r00         [17] 6084 	call	___mulsint2slong
    0000211D DD 73 F2         [19] 6085 	ld	-14 (ix), e
    00002120 DD 72 F3         [19] 6086 	ld	-13 (ix), d
    00002123 DD 75 F4         [19] 6087 	ld	-12 (ix), l
    00002126 DD 74 F5         [19] 6088 	ld	-11 (ix), h
    00002129 DD 7E FA         [19] 6089 	ld	a, -6 (ix)
    0000212C DD 96 F2         [19] 6090 	sub	a, -14 (ix)
    0000212F DD 77 F6         [19] 6091 	ld	-10 (ix), a
    00002132 DD 7E FB         [19] 6092 	ld	a, -5 (ix)
    00002135 DD 9E F3         [19] 6093 	sbc	a, -13 (ix)
    00002138 DD 77 F7         [19] 6094 	ld	-9 (ix), a
    0000213B DD 7E FC         [19] 6095 	ld	a, -4 (ix)
    0000213E DD 9E F4         [19] 6096 	sbc	a, -12 (ix)
    00002141 DD 77 F8         [19] 6097 	ld	-8 (ix), a
    00002144 DD 7E FD         [19] 6098 	ld	a, -3 (ix)
    00002147 DD 9E F5         [19] 6099 	sbc	a, -11 (ix)
    0000214A DD 77 F9         [19] 6100 	ld	-7 (ix), a
    0000214D 21 1A 00         [10] 6101 	ld	hl, #26
    00002150 39               [11] 6102 	add	hl, sp
    00002151 EB               [ 4] 6103 	ex	de, hl
    00002152 21 16 00         [10] 6104 	ld	hl, #22
    00002155 39               [11] 6105 	add	hl, sp
    00002156 01 04 00         [10] 6106 	ld	bc, #4
    00002159 ED B0            [21] 6107 	ldir
                                   6108 ;E:\Dropbox\FAUSTO\SVILUPPI\MSX\CODE\C\MSXgl\projects\soccerlg/soccerlg_s4_b1.c:1126: if (score > bestScore) {
    0000215B DD 7E E1         [19] 6109 	ld	a, -31 (ix)
    0000215E DD 96 FA         [19] 6110 	sub	a, -6 (ix)
    00002161 DD 7E E2         [19] 6111 	ld	a, -30 (ix)
    00002164 DD 9E FB         [19] 6112 	sbc	a, -5 (ix)
    00002167 DD 7E E3         [19] 6113 	ld	a, -29 (ix)
    0000216A DD 9E FC         [19] 6114 	sbc	a, -4 (ix)
    0000216D DD 7E E4         [19] 6115 	ld	a, -28 (ix)
    00002170 DD 9E FD         [19] 6116 	sbc	a, -3 (ix)
    00002173 E2r78r21         [10] 6117 	jp	PO, 00298$
    00002176 EE 80            [ 7] 6118 	xor	a, #0x80
    00002178                       6119 00298$:
    00002178 F2r8Fr21         [10] 6120 	jp	P, 00150$
                                   6121 ;E:\Dropbox\FAUSTO\SVILUPPI\MSX\CODE\C\MSXgl\projects\soccerlg/soccerlg_s4_b1.c:1127: bestScore = score;
    0000217B 21 01 00         [10] 6122 	ld	hl, #1
    0000217E 39               [11] 6123 	add	hl, sp
    0000217F EB               [ 4] 6124 	ex	de, hl
    00002180 21 1A 00         [10] 6125 	ld	hl, #26
    00002183 39               [11] 6126 	add	hl, sp
    00002184 01 04 00         [10] 6127 	ld	bc, #4
    00002187 ED B0            [21] 6128 	ldir
                                   6129 ;E:\Dropbox\FAUSTO\SVILUPPI\MSX\CODE\C\MSXgl\projects\soccerlg/soccerlg_s4_b1.c:1128: bestTarget = i;
    00002189 DD 7E FF         [19] 6130 	ld	a, -1 (ix)
    0000218C DD 77 E0         [19] 6131 	ld	-32 (ix), a
    0000218F                       6132 00150$:
                                   6133 ;E:\Dropbox\FAUSTO\SVILUPPI\MSX\CODE\C\MSXgl\projects\soccerlg/soccerlg_s4_b1.c:1080: for(i=0; i<14; i++) {
    0000218F DD 34 FF         [23] 6134 	inc	-1 (ix)
    00002192 DD 7E FF         [19] 6135 	ld	a, -1 (ix)
    00002195 D6 0E            [ 7] 6136 	sub	a, #0x0e
    00002197 DArEBr1E         [10] 6137 	jp	C, 00152$
                                   6138 ;E:\Dropbox\FAUSTO\SVILUPPI\MSX\CODE\C\MSXgl\projects\soccerlg/soccerlg_s4_b1.c:1164: return bestTarget;
    0000219A DD 7E E0         [19] 6139 	ld	a, -32 (ix)
                                   6140 ;E:\Dropbox\FAUSTO\SVILUPPI\MSX\CODE\C\MSXgl\projects\soccerlg/soccerlg_s4_b1.c:1165: }
    0000219D DD F9            [10] 6141 	ld	sp, ix
    0000219F DD E1            [14] 6142 	pop	ix
    000021A1 C9               [10] 6143 	ret
                                   6144 ;E:\Dropbox\FAUSTO\SVILUPPI\MSX\CODE\C\MSXgl\projects\soccerlg/soccerlg_s4_b1.c:1167: void TickBallCollision(){
                                   6145 ;	---------------------------------
                                   6146 ; Function TickBallCollision
                                   6147 ; ---------------------------------
    000021A2                       6148 _TickBallCollision::
    000021A2 DD E5            [15] 6149 	push	ix
    000021A4 DD 21 00 00      [14] 6150 	ld	ix,#0
    000021A8 DD 39            [15] 6151 	add	ix,sp
    000021AA 21 EB FF         [10] 6152 	ld	hl, #-21
    000021AD 39               [11] 6153 	add	hl, sp
    000021AE F9               [ 6] 6154 	ld	sp, hl
                                   6155 ;E:\Dropbox\FAUSTO\SVILUPPI\MSX\CODE\C\MSXgl\projects\soccerlg/soccerlg_s4_b1.c:1168: if(g_MatchStatus!=MATCH_IN_ACTION){
    000021AF 3Ar00r00         [13] 6156 	ld	a, (_g_MatchStatus+0)
    000021B2 D6 0C            [ 7] 6157 	sub	a, #0x0c
                                   6158 ;E:\Dropbox\FAUSTO\SVILUPPI\MSX\CODE\C\MSXgl\projects\soccerlg/soccerlg_s4_b1.c:1169: return;
    000021B4 C2r97r25         [10] 6159 	jp	NZ,00168$
                                   6160 ;E:\Dropbox\FAUSTO\SVILUPPI\MSX\CODE\C\MSXgl\projects\soccerlg/soccerlg_s4_b1.c:1173: if (g_Ball.PossessionPlayerId != NO_VALUE) {
    000021B7 3Ar06r00         [13] 6161 	ld	a, (#(_g_Ball + 6) + 0)
    000021BA 3C               [ 4] 6162 	inc	a
    000021BB 28 0A            [12] 6163 	jr	Z, 00106$
                                   6164 ;E:\Dropbox\FAUSTO\SVILUPPI\MSX\CODE\C\MSXgl\projects\soccerlg/soccerlg_s4_b1.c:1174: if (g_Ball.PossessionTimer < 255) g_Ball.PossessionTimer++;
    000021BD 01r1Cr00         [10] 6165 	ld	bc, #_g_Ball + 28
    000021C0 0A               [ 7] 6166 	ld	a, (bc)
    000021C1 FE FF            [ 7] 6167 	cp	a, #0xff
    000021C3 30 02            [12] 6168 	jr	NC, 00106$
    000021C5 3C               [ 4] 6169 	inc	a
    000021C6 02               [ 7] 6170 	ld	(bc), a
    000021C7                       6171 00106$:
                                   6172 ;E:\Dropbox\FAUSTO\SVILUPPI\MSX\CODE\C\MSXgl\projects\soccerlg/soccerlg_s4_b1.c:1179: if (g_Ball.PossessionPlayerId == NO_VALUE) { // Ball in air
    000021C7 21r06r00         [10] 6173 	ld	hl, #(_g_Ball + 6)
    000021CA 4E               [ 7] 6174 	ld	c, (hl)
                                   6175 ;E:\Dropbox\FAUSTO\SVILUPPI\MSX\CODE\C\MSXgl\projects\soccerlg/soccerlg_s4_b1.c:1182: if (g_Ball.ShotActive == 1) {
                                   6176 ;E:\Dropbox\FAUSTO\SVILUPPI\MSX\CODE\C\MSXgl\projects\soccerlg/soccerlg_s4_b1.c:1183: i16 diffStart = (i16)g_Ball.X - (i16)g_Ball.PassStartX; 
                                   6177 ;E:\Dropbox\FAUSTO\SVILUPPI\MSX\CODE\C\MSXgl\projects\soccerlg/soccerlg_s4_b1.c:1179: if (g_Ball.PossessionPlayerId == NO_VALUE) { // Ball in air
    000021CB 0C               [ 4] 6178 	inc	c
    000021CC 28 00            [12] 6179 	jr	Z, 00318$
    000021CE                       6180 00318$:
                                   6181 ;E:\Dropbox\FAUSTO\SVILUPPI\MSX\CODE\C\MSXgl\projects\soccerlg/soccerlg_s4_b1.c:1189: for(u8 i=0; i<14; i++){
    000021CE DD 36 EF 00      [19] 6182 	ld	-17 (ix), #0x00
    000021D2 DD 36 FB 00      [19] 6183 	ld	-5 (ix), #0x00
    000021D6                       6184 00167$:
    000021D6 DD 7E FB         [19] 6185 	ld	a, -5 (ix)
    000021D9 D6 0E            [ 7] 6186 	sub	a, #0x0e
    000021DB D2r97r25         [10] 6187 	jp	NC, 00168$
                                   6188 ;E:\Dropbox\FAUSTO\SVILUPPI\MSX\CODE\C\MSXgl\projects\soccerlg/soccerlg_s4_b1.c:1190: if(g_Players[i].Status == PLAYER_STATUS_NONE) continue;
    000021DE DD 4E FB         [19] 6189 	ld	c, -5 (ix)
    000021E1 06 00            [ 7] 6190 	ld	b, #0x00
    000021E3 69               [ 4] 6191 	ld	l, c
    000021E4 60               [ 4] 6192 	ld	h, b
    000021E5 29               [11] 6193 	add	hl, hl
    000021E6 29               [11] 6194 	add	hl, hl
    000021E7 09               [11] 6195 	add	hl, bc
    000021E8 29               [11] 6196 	add	hl, hl
    000021E9 29               [11] 6197 	add	hl, hl
    000021EA 09               [11] 6198 	add	hl, bc
    000021EB EB               [ 4] 6199 	ex	de, hl
    000021EC 21r00r00         [10] 6200 	ld	hl, #_g_Players
    000021EF 19               [11] 6201 	add	hl, de
    000021F0 DD 75 F0         [19] 6202 	ld	-16 (ix), l
    000021F3 DD 74 F1         [19] 6203 	ld	-15 (ix), h
                                   6204 ;E:\Dropbox\FAUSTO\SVILUPPI\MSX\CODE\C\MSXgl\projects\soccerlg/soccerlg_s4_b1.c:1264: g_Players[i].Status = PLAYER_STATUS_POSITIONED; // Lock it
    000021F6 DD 7E F0         [19] 6205 	ld	a, -16 (ix)
    000021F9 C6 12            [ 7] 6206 	add	a, #0x12
    000021FB DD 77 F2         [19] 6207 	ld	-14 (ix), a
    000021FE DD 7E F1         [19] 6208 	ld	a, -15 (ix)
    00002201 CE 00            [ 7] 6209 	adc	a, #0x00
    00002203 DD 77 F3         [19] 6210 	ld	-13 (ix), a
                                   6211 ;E:\Dropbox\FAUSTO\SVILUPPI\MSX\CODE\C\MSXgl\projects\soccerlg/soccerlg_s4_b1.c:1190: if(g_Players[i].Status == PLAYER_STATUS_NONE) continue;
    00002206 DD 6E F2         [19] 6212 	ld	l, -14 (ix)
    00002209 DD 66 F3         [19] 6213 	ld	h, -13 (ix)
    0000220C 7E               [ 7] 6214 	ld	a, (hl)
    0000220D 23               [ 6] 6215 	inc	hl
    0000220E B6               [ 7] 6216 	or	a, (hl)
    0000220F CAr8Br25         [10] 6217 	jp	Z, 00164$
                                   6218 ;E:\Dropbox\FAUSTO\SVILUPPI\MSX\CODE\C\MSXgl\projects\soccerlg/soccerlg_s4_b1.c:1191: if(g_Ball.PossessionPlayerId == i) continue; // Skip self
    00002212 21r06r00         [10] 6219 	ld	hl, #(_g_Ball + 6)
    00002215 DD 7E FB         [19] 6220 	ld	a,-5 (ix)
    00002218 96               [ 7] 6221 	sub	a,(hl)
    00002219 CAr8Br25         [10] 6222 	jp	Z,00164$
                                   6223 ;E:\Dropbox\FAUSTO\SVILUPPI\MSX\CODE\C\MSXgl\projects\soccerlg/soccerlg_s4_b1.c:1196: u8 hitDist = 14;
    0000221C DD 36 FD 0E      [19] 6224 	ld	-3 (ix), #0x0e
                                   6225 ;E:\Dropbox\FAUSTO\SVILUPPI\MSX\CODE\C\MSXgl\projects\soccerlg/soccerlg_s4_b1.c:1236: if (g_Players[i].Role == PLAYER_ROLE_GOALKEEPER) {
    00002220 DD 7E F0         [19] 6226 	ld	a, -16 (ix)
    00002223 C6 0D            [ 7] 6227 	add	a, #0x0d
    00002225 DD 77 F4         [19] 6228 	ld	-12 (ix), a
    00002228 DD 7E F1         [19] 6229 	ld	a, -15 (ix)
    0000222B CE 00            [ 7] 6230 	adc	a, #0x00
    0000222D DD 77 F5         [19] 6231 	ld	-11 (ix), a
                                   6232 ;E:\Dropbox\FAUSTO\SVILUPPI\MSX\CODE\C\MSXgl\projects\soccerlg/soccerlg_s4_b1.c:1197: if (g_Players[i].Role == PLAYER_ROLE_GOALKEEPER) {
    00002230 DD 6E F4         [19] 6233 	ld	l, -12 (ix)
    00002233 DD 66 F5         [19] 6234 	ld	h, -11 (ix)
    00002236 7E               [ 7] 6235 	ld	a, (hl)
    00002237 DD 77 FF         [19] 6236 	ld	-1 (ix), a
    0000223A B7               [ 4] 6237 	or	a, a
    0000223B 20 3E            [12] 6238 	jr	NZ, 00125$
                                   6239 ;E:\Dropbox\FAUSTO\SVILUPPI\MSX\CODE\C\MSXgl\projects\soccerlg/soccerlg_s4_b1.c:1198: const TeamStats* stats = GetTeamStats(g_Players[i].TeamId);
    0000223D DD 7E F0         [19] 6240 	ld	a, -16 (ix)
    00002240 DD 77 FE         [19] 6241 	ld	-2 (ix), a
    00002243 DD 7E F1         [19] 6242 	ld	a, -15 (ix)
    00002246 DD 77 FF         [19] 6243 	ld	-1 (ix), a
    00002249 DD 6E FE         [19] 6244 	ld	l, -2 (ix)
    0000224C DD 66 FF         [19] 6245 	ld	h, -1 (ix)
    0000224F 11 09 00         [10] 6246 	ld	de, #0x0009
    00002252 19               [11] 6247 	add	hl, de
    00002253 7E               [ 7] 6248 	ld	a, (hl)
    00002254 DD 77 FF         [19] 6249 	ld	-1 (ix), a
    00002257 CDr00r00         [17] 6250 	call	_GetTeamStats
    0000225A DD 73 FE         [19] 6251 	ld	-2 (ix), e
    0000225D DD 72 FF         [19] 6252 	ld	-1 (ix), d
                                   6253 ;E:\Dropbox\FAUSTO\SVILUPPI\MSX\CODE\C\MSXgl\projects\soccerlg/soccerlg_s4_b1.c:1199: if (g_Ball.ShotActive) hitDist = stats->GkSkill; 
    00002260 3Ar1Br00         [13] 6254 	ld	a, (#(_g_Ball + 27) + 0)
    00002263 B7               [ 4] 6255 	or	a, a
    00002264 28 11            [12] 6256 	jr	Z, 00122$
    00002266 DD 4E FE         [19] 6257 	ld	c, -2 (ix)
    00002269 DD 46 FF         [19] 6258 	ld	b, -1 (ix)
    0000226C 21 04 00         [10] 6259 	ld	hl, #4
    0000226F 09               [11] 6260 	add	hl, bc
    00002270 7E               [ 7] 6261 	ld	a, (hl)
    00002271 DD 77 FD         [19] 6262 	ld	-3 (ix), a
    00002274 C3r7Br22         [10] 6263 	jp	00125$
    00002277                       6264 00122$:
                                   6265 ;E:\Dropbox\FAUSTO\SVILUPPI\MSX\CODE\C\MSXgl\projects\soccerlg/soccerlg_s4_b1.c:1200: else hitDist = 14; 
    00002277 DD 36 FD 0E      [19] 6266 	ld	-3 (ix), #0x0e
    0000227B                       6267 00125$:
                                   6268 ;E:\Dropbox\FAUSTO\SVILUPPI\MSX\CODE\C\MSXgl\projects\soccerlg/soccerlg_s4_b1.c:1204: u16 diffX = (g_Ball.X > g_Players[i].X) ? (g_Ball.X - g_Players[i].X) : (g_Players[i].X - g_Ball.X);
    0000227B 21r02r00         [10] 6269 	ld	hl, #_g_Ball + 2
    0000227E 7E               [ 7] 6270 	ld	a, (hl)
    0000227F DD 77 F6         [19] 6271 	ld	-10 (ix), a
    00002282 23               [ 6] 6272 	inc	hl
    00002283 7E               [ 7] 6273 	ld	a, (hl)
    00002284 DD 77 F7         [19] 6274 	ld	-9 (ix), a
    00002287 DD 6E F0         [19] 6275 	ld	l, -16 (ix)
                                   6276 ;	spillPairReg hl
                                   6277 ;	spillPairReg hl
    0000228A DD 66 F1         [19] 6278 	ld	h, -15 (ix)
                                   6279 ;	spillPairReg hl
                                   6280 ;	spillPairReg hl
    0000228D 23               [ 6] 6281 	inc	hl
    0000228E 23               [ 6] 6282 	inc	hl
    0000228F 7E               [ 7] 6283 	ld	a, (hl)
    00002290 DD 77 F8         [19] 6284 	ld	-8 (ix), a
    00002293 23               [ 6] 6285 	inc	hl
    00002294 7E               [ 7] 6286 	ld	a, (hl)
    00002295 DD 77 F9         [19] 6287 	ld	-7 (ix), a
    00002298 DD 7E F8         [19] 6288 	ld	a, -8 (ix)
    0000229B DD 96 F6         [19] 6289 	sub	a, -10 (ix)
    0000229E DD 7E F9         [19] 6290 	ld	a, -7 (ix)
    000022A1 DD 9E F7         [19] 6291 	sbc	a, -9 (ix)
    000022A4 30 15            [12] 6292 	jr	NC, 00170$
    000022A6 DD 7E F6         [19] 6293 	ld	a, -10 (ix)
    000022A9 DD 96 F8         [19] 6294 	sub	a, -8 (ix)
    000022AC DD 77 FE         [19] 6295 	ld	-2 (ix), a
    000022AF DD 7E F7         [19] 6296 	ld	a, -9 (ix)
    000022B2 DD 9E F9         [19] 6297 	sbc	a, -7 (ix)
    000022B5 DD 77 FF         [19] 6298 	ld	-1 (ix), a
    000022B8 C3rCDr22         [10] 6299 	jp	00171$
    000022BB                       6300 00170$:
    000022BB DD 7E F8         [19] 6301 	ld	a, -8 (ix)
    000022BE DD 96 F6         [19] 6302 	sub	a, -10 (ix)
    000022C1 DD 77 FE         [19] 6303 	ld	-2 (ix), a
    000022C4 DD 7E F9         [19] 6304 	ld	a, -7 (ix)
    000022C7 DD 9E F7         [19] 6305 	sbc	a, -9 (ix)
    000022CA DD 77 FF         [19] 6306 	ld	-1 (ix), a
    000022CD                       6307 00171$:
                                   6308 ;E:\Dropbox\FAUSTO\SVILUPPI\MSX\CODE\C\MSXgl\projects\soccerlg/soccerlg_s4_b1.c:1205: u16 diffY = (g_Ball.Y > g_Players[i].Y) ? (g_Ball.Y - g_Players[i].Y) : (g_Players[i].Y - g_Ball.Y);
    000022CD ED 4Br00r00      [20] 6309 	ld	bc, (#_g_Ball + 0)
    000022D1 DD 6E F0         [19] 6310 	ld	l, -16 (ix)
    000022D4 DD 66 F1         [19] 6311 	ld	h, -15 (ix)
    000022D7 5E               [ 7] 6312 	ld	e, (hl)
    000022D8 23               [ 6] 6313 	inc	hl
    000022D9 56               [ 7] 6314 	ld	d, (hl)
    000022DA 7B               [ 4] 6315 	ld	a, e
    000022DB 91               [ 4] 6316 	sub	a, c
    000022DC 7A               [ 4] 6317 	ld	a, d
    000022DD 98               [ 4] 6318 	sbc	a, b
    000022DE 30 08            [12] 6319 	jr	NC, 00172$
    000022E0 79               [ 4] 6320 	ld	a, c
    000022E1 93               [ 4] 6321 	sub	a, e
    000022E2 5F               [ 4] 6322 	ld	e, a
    000022E3 78               [ 4] 6323 	ld	a, b
    000022E4 9A               [ 4] 6324 	sbc	a, d
    000022E5 C3rEDr22         [10] 6325 	jp	00173$
    000022E8                       6326 00172$:
    000022E8 7B               [ 4] 6327 	ld	a, e
    000022E9 91               [ 4] 6328 	sub	a, c
    000022EA 5F               [ 4] 6329 	ld	e, a
    000022EB 7A               [ 4] 6330 	ld	a, d
    000022EC 98               [ 4] 6331 	sbc	a, b
    000022ED                       6332 00173$:
    000022ED 57               [ 4] 6333 	ld	d, a
                                   6334 ;E:\Dropbox\FAUSTO\SVILUPPI\MSX\CODE\C\MSXgl\projects\soccerlg/soccerlg_s4_b1.c:1207: if(diffX < hitDist && diffY < hitDist){ 
    000022EE DD 6E FD         [19] 6335 	ld	l, -3 (ix)
                                   6336 ;	spillPairReg hl
                                   6337 ;	spillPairReg hl
    000022F1 26 00            [ 7] 6338 	ld	h, #0x00
                                   6339 ;	spillPairReg hl
                                   6340 ;	spillPairReg hl
    000022F3 DD 7E FE         [19] 6341 	ld	a, -2 (ix)
    000022F6 95               [ 4] 6342 	sub	a, l
    000022F7 DD 7E FF         [19] 6343 	ld	a, -1 (ix)
    000022FA 9C               [ 4] 6344 	sbc	a, h
    000022FB D2r8Br25         [10] 6345 	jp	NC, 00164$
    000022FE 7B               [ 4] 6346 	ld	a, e
    000022FF 95               [ 4] 6347 	sub	a, l
    00002300 7A               [ 4] 6348 	ld	a, d
    00002301 9C               [ 4] 6349 	sbc	a, h
    00002302 D2r8Br25         [10] 6350 	jp	NC, 00164$
                                   6351 ;E:\Dropbox\FAUSTO\SVILUPPI\MSX\CODE\C\MSXgl\projects\soccerlg/soccerlg_s4_b1.c:1208: if (g_Ball.PossessionPlayerId == NO_VALUE) {
    00002305 3Ar06r00         [13] 6352 	ld	a, (#(_g_Ball + 6) + 0)
    00002308 DD 77 FF         [19] 6353 	ld	-1 (ix), a
    0000230B 3C               [ 4] 6354 	inc	a
    0000230C C2r0Cr25         [10] 6355 	jp	NZ,00159$
                                   6356 ;E:\Dropbox\FAUSTO\SVILUPPI\MSX\CODE\C\MSXgl\projects\soccerlg/soccerlg_s4_b1.c:1227: if (g_Ball.ShotActive == 1 || g_Ball.PassTargetPlayerId != NO_VALUE) {
    0000230F 3Ar1Br00         [13] 6357 	ld	a, (#(_g_Ball + 27) + 0)
    00002312 DD 77 FA         [19] 6358 	ld	-6 (ix), a
    00002315 3D               [ 4] 6359 	dec	a
    00002316 28 07            [12] 6360 	jr	Z, 00132$
    00002318 3Ar10r00         [13] 6361 	ld	a, (#(_g_Ball + 16) + 0)
    0000231B 3C               [ 4] 6362 	inc	a
    0000231C CArC3r23         [10] 6363 	jp	Z,00133$
    0000231F                       6364 00132$:
                                   6365 ;E:\Dropbox\FAUSTO\SVILUPPI\MSX\CODE\C\MSXgl\projects\soccerlg/soccerlg_s4_b1.c:1228: i16 dxStart = (i16)g_Ball.X - (i16)g_Ball.PassStartX;
    0000231F DD 5E F6         [19] 6366 	ld	e, -10 (ix)
    00002322 DD 56 F7         [19] 6367 	ld	d, -9 (ix)
    00002325 2Ar11r00         [16] 6368 	ld	hl, (#(_g_Ball + 17) + 0)
    00002328 7B               [ 4] 6369 	ld	a, e
    00002329 95               [ 4] 6370 	sub	a, l
    0000232A 5F               [ 4] 6371 	ld	e, a
    0000232B 7A               [ 4] 6372 	ld	a, d
    0000232C 9C               [ 4] 6373 	sbc	a, h
    0000232D DD 73 FC         [19] 6374 	ld	-4 (ix), e
    00002330 DD 77 FD         [19] 6375 	ld	-3 (ix), a
                                   6376 ;E:\Dropbox\FAUSTO\SVILUPPI\MSX\CODE\C\MSXgl\projects\soccerlg/soccerlg_s4_b1.c:1229: i16 dyStart = (i16)g_Ball.Y - (i16)g_Ball.PassStartY;
    00002333 33               [ 6] 6377 	inc	sp
    00002334 33               [ 6] 6378 	inc	sp
    00002335 C5               [11] 6379 	push	bc
    00002336 21r13r00         [10] 6380 	ld	hl, #_g_Ball + 19
    00002339 7E               [ 7] 6381 	ld	a, (hl)
    0000233A DD 77 FE         [19] 6382 	ld	-2 (ix), a
    0000233D 23               [ 6] 6383 	inc	hl
    0000233E 7E               [ 7] 6384 	ld	a, (hl)
    0000233F DD 77 FF         [19] 6385 	ld	-1 (ix), a
    00002342 DD 7E FE         [19] 6386 	ld	a, -2 (ix)
    00002345 DD 77 ED         [19] 6387 	ld	-19 (ix), a
    00002348 DD 7E FF         [19] 6388 	ld	a, -1 (ix)
    0000234B DD 77 EE         [19] 6389 	ld	-18 (ix), a
    0000234E DD 7E EB         [19] 6390 	ld	a, -21 (ix)
    00002351 DD 96 ED         [19] 6391 	sub	a, -19 (ix)
    00002354 DD 77 FE         [19] 6392 	ld	-2 (ix), a
    00002357 DD 7E EC         [19] 6393 	ld	a, -20 (ix)
    0000235A DD 9E EE         [19] 6394 	sbc	a, -18 (ix)
    0000235D DD 77 FF         [19] 6395 	ld	-1 (ix), a
                                   6396 ;E:\Dropbox\FAUSTO\SVILUPPI\MSX\CODE\C\MSXgl\projects\soccerlg/soccerlg_s4_b1.c:1230: if (dxStart < 0) dxStart = -dxStart;
    00002360 DD 7E FC         [19] 6397 	ld	a, -4 (ix)
    00002363 DD 77 ED         [19] 6398 	ld	-19 (ix), a
    00002366 DD 7E FD         [19] 6399 	ld	a, -3 (ix)
    00002369 DD 77 EE         [19] 6400 	ld	-18 (ix), a
    0000236C DD CB EE 7E      [20] 6401 	bit	7, -18 (ix)
    00002370 28 0E            [12] 6402 	jr	Z, 00127$
    00002372 AF               [ 4] 6403 	xor	a, a
    00002373 DD 96 FC         [19] 6404 	sub	a, -4 (ix)
    00002376 DD 77 FC         [19] 6405 	ld	-4 (ix), a
    00002379 9F               [ 4] 6406 	sbc	a, a
    0000237A DD 96 FD         [19] 6407 	sub	a, -3 (ix)
    0000237D DD 77 FD         [19] 6408 	ld	-3 (ix), a
    00002380                       6409 00127$:
                                   6410 ;E:\Dropbox\FAUSTO\SVILUPPI\MSX\CODE\C\MSXgl\projects\soccerlg/soccerlg_s4_b1.c:1231: if (dyStart < 0) dyStart = -dyStart;
    00002380 DD 46 FF         [19] 6411 	ld	b, -1 (ix)
    00002383 CB 78            [ 8] 6412 	bit	7, b
    00002385 28 0E            [12] 6413 	jr	Z, 00129$
    00002387 AF               [ 4] 6414 	xor	a, a
    00002388 DD 96 FE         [19] 6415 	sub	a, -2 (ix)
    0000238B DD 77 FE         [19] 6416 	ld	-2 (ix), a
    0000238E 9F               [ 4] 6417 	sbc	a, a
    0000238F DD 96 FF         [19] 6418 	sub	a, -1 (ix)
    00002392 DD 77 FF         [19] 6419 	ld	-1 (ix), a
    00002395                       6420 00129$:
                                   6421 ;E:\Dropbox\FAUSTO\SVILUPPI\MSX\CODE\C\MSXgl\projects\soccerlg/soccerlg_s4_b1.c:1232: if ((dxStart + dyStart) < 24) continue; 
    00002395 DD 7E FE         [19] 6422 	ld	a, -2 (ix)
    00002398 DD 86 FC         [19] 6423 	add	a, -4 (ix)
    0000239B DD 77 ED         [19] 6424 	ld	-19 (ix), a
    0000239E DD 7E FF         [19] 6425 	ld	a, -1 (ix)
    000023A1 DD 8E FD         [19] 6426 	adc	a, -3 (ix)
    000023A4 DD 77 EE         [19] 6427 	ld	-18 (ix), a
    000023A7 DD 7E ED         [19] 6428 	ld	a, -19 (ix)
    000023AA DD 77 FE         [19] 6429 	ld	-2 (ix), a
    000023AD DD 7E EE         [19] 6430 	ld	a, -18 (ix)
    000023B0 DD 77 FF         [19] 6431 	ld	-1 (ix), a
    000023B3 DD 7E FE         [19] 6432 	ld	a, -2 (ix)
    000023B6 D6 18            [ 7] 6433 	sub	a, #0x18
    000023B8 DD 7E FF         [19] 6434 	ld	a, -1 (ix)
    000023BB 17               [ 4] 6435 	rla
    000023BC 3F               [ 4] 6436 	ccf
    000023BD 1F               [ 4] 6437 	rra
    000023BE DE 80            [ 7] 6438 	sbc	a, #0x80
    000023C0 DAr8Br25         [10] 6439 	jp	C, 00164$
    000023C3                       6440 00133$:
                                   6441 ;E:\Dropbox\FAUSTO\SVILUPPI\MSX\CODE\C\MSXgl\projects\soccerlg/soccerlg_s4_b1.c:1236: if (g_Players[i].Role == PLAYER_ROLE_GOALKEEPER) {
    000023C3 DD 6E F4         [19] 6442 	ld	l, -12 (ix)
    000023C6 DD 66 F5         [19] 6443 	ld	h, -11 (ix)
                                   6444 ;E:\Dropbox\FAUSTO\SVILUPPI\MSX\CODE\C\MSXgl\projects\soccerlg/soccerlg_s4_b1.c:1275: g_Ball.Size = 2;
                                   6445 ;E:\Dropbox\FAUSTO\SVILUPPI\MSX\CODE\C\MSXgl\projects\soccerlg/soccerlg_s4_b1.c:1236: if (g_Players[i].Role == PLAYER_ROLE_GOALKEEPER) {
    000023C9 7E               [ 7] 6446 	ld	a, (hl)
    000023CA B7               [ 4] 6447 	or	a, a
    000023CB C2rDDr24         [10] 6448 	jp	NZ, 00153$
                                   6449 ;E:\Dropbox\FAUSTO\SVILUPPI\MSX\CODE\C\MSXgl\projects\soccerlg/soccerlg_s4_b1.c:1238: bool wasShot = (g_Ball.ShotActive != 0);
    000023CE DD 7E FA         [19] 6450 	ld	a, -6 (ix)
    000023D1 D6 01            [ 7] 6451 	sub	a,#0x01
    000023D3 3E 00            [ 7] 6452 	ld	a, #0x00
    000023D5 17               [ 4] 6453 	rla
    000023D6 EE 01            [ 7] 6454 	xor	a, #0x01
    000023D8 DD 77 FD         [19] 6455 	ld	-3 (ix), a
                                   6456 ;E:\Dropbox\FAUSTO\SVILUPPI\MSX\CODE\C\MSXgl\projects\soccerlg/soccerlg_s4_b1.c:1252: u8 team = g_Players[i].TeamId;
    000023DB DD 7E F0         [19] 6457 	ld	a, -16 (ix)
    000023DE C6 09            [ 7] 6458 	add	a, #0x09
    000023E0 DD 77 FE         [19] 6459 	ld	-2 (ix), a
    000023E3 DD 7E F1         [19] 6460 	ld	a, -15 (ix)
    000023E6 CE 00            [ 7] 6461 	adc	a, #0x00
    000023E8 DD 77 FF         [19] 6462 	ld	-1 (ix), a
                                   6463 ;E:\Dropbox\FAUSTO\SVILUPPI\MSX\CODE\C\MSXgl\projects\soccerlg/soccerlg_s4_b1.c:1241: if (g_Ball.ShotActive) {
    000023EB DD 7E FA         [19] 6464 	ld	a, -6 (ix)
    000023EE B7               [ 4] 6465 	or	a, a
    000023EF CAr98r24         [10] 6466 	jp	Z, 00149$
                                   6467 ;E:\Dropbox\FAUSTO\SVILUPPI\MSX\CODE\C\MSXgl\projects\soccerlg/soccerlg_s4_b1.c:1242: i16 signedDiffX = (i16)g_Ball.X - (i16)g_Players[i].X;
    000023F2 DD 7E F6         [19] 6468 	ld	a, -10 (ix)
    000023F5 DD 77 FB         [19] 6469 	ld	-5 (ix), a
    000023F8 DD 7E F7         [19] 6470 	ld	a, -9 (ix)
    000023FB DD 77 FC         [19] 6471 	ld	-4 (ix), a
    000023FE DD 7E F8         [19] 6472 	ld	a, -8 (ix)
    00002401 DD 77 F5         [19] 6473 	ld	-11 (ix), a
    00002404 DD 7E F9         [19] 6474 	ld	a, -7 (ix)
    00002407 DD 77 F6         [19] 6475 	ld	-10 (ix), a
    0000240A DD 7E FB         [19] 6476 	ld	a, -5 (ix)
    0000240D DD 96 F5         [19] 6477 	sub	a, -11 (ix)
    00002410 DD 77 F9         [19] 6478 	ld	-7 (ix), a
    00002413 DD 7E FC         [19] 6479 	ld	a, -4 (ix)
    00002416 DD 9E F6         [19] 6480 	sbc	a, -10 (ix)
    00002419 DD 77 FA         [19] 6481 	ld	-6 (ix), a
    0000241C DD 7E F9         [19] 6482 	ld	a, -7 (ix)
    0000241F DD 77 FB         [19] 6483 	ld	-5 (ix), a
    00002422 DD 7E FA         [19] 6484 	ld	a, -6 (ix)
    00002425 DD 77 FC         [19] 6485 	ld	-4 (ix), a
                                   6486 ;E:\Dropbox\FAUSTO\SVILUPPI\MSX\CODE\C\MSXgl\projects\soccerlg/soccerlg_s4_b1.c:1245: if (signedDiffX >= -5 && signedDiffX <= 5) {
    00002428 DD 7E FB         [19] 6487 	ld	a, -5 (ix)
    0000242B DD 77 F9         [19] 6488 	ld	-7 (ix), a
    0000242E DD 7E FC         [19] 6489 	ld	a, -4 (ix)
    00002431 DD 77 FA         [19] 6490 	ld	-6 (ix), a
    00002434 3E 05            [ 7] 6491 	ld	a, #0x05
    00002436 DD BE F9         [19] 6492 	cp	a, -7 (ix)
    00002439 3E 00            [ 7] 6493 	ld	a, #0x00
    0000243B DD 9E FA         [19] 6494 	sbc	a, -6 (ix)
    0000243E E2r43r24         [10] 6495 	jp	PO, 00324$
    00002441 EE 80            [ 7] 6496 	xor	a, #0x80
    00002443                       6497 00324$:
    00002443 07               [ 4] 6498 	rlca
    00002444 E6 01            [ 7] 6499 	and	a,#0x01
    00002446 47               [ 4] 6500 	ld	b, a
    00002447 DD 7E FB         [19] 6501 	ld	a, -5 (ix)
    0000244A D6 FB            [ 7] 6502 	sub	a, #0xfb
    0000244C DD 7E FC         [19] 6503 	ld	a, -4 (ix)
    0000244F 17               [ 4] 6504 	rla
    00002450 3F               [ 4] 6505 	ccf
    00002451 1F               [ 4] 6506 	rra
    00002452 DE 7F            [ 7] 6507 	sbc	a, #0x7f
    00002454 38 04            [12] 6508 	jr	C, 00145$
    00002456 CB 40            [ 8] 6509 	bit	0, b
    00002458 28 3E            [12] 6510 	jr	Z, 00149$
    0000245A                       6511 00145$:
                                   6512 ;E:\Dropbox\FAUSTO\SVILUPPI\MSX\CODE\C\MSXgl\projects\soccerlg/soccerlg_s4_b1.c:1252: u8 team = g_Players[i].TeamId;
    0000245A DD 6E FE         [19] 6513 	ld	l, -2 (ix)
    0000245D DD 66 FF         [19] 6514 	ld	h, -1 (ix)
    00002460 7E               [ 7] 6515 	ld	a, (hl)
                                   6516 ;E:\Dropbox\FAUSTO\SVILUPPI\MSX\CODE\C\MSXgl\projects\soccerlg/soccerlg_s4_b1.c:1256: if (team == TEAM_1) divePose = PLAYER_POSE_TEAM1_GK_DOWN_RIGHT;
    00002461 3D               [ 4] 6517 	dec	a
    00002462 3E 01            [ 7] 6518 	ld	a, #0x01
    00002464 28 01            [12] 6519 	jr	Z, 00326$
    00002466 AF               [ 4] 6520 	xor	a, a
    00002467                       6521 00326$:
    00002467 4F               [ 4] 6522 	ld	c, a
                                   6523 ;E:\Dropbox\FAUSTO\SVILUPPI\MSX\CODE\C\MSXgl\projects\soccerlg/soccerlg_s4_b1.c:1255: if (signedDiffX > 5) { // Ball to Right
    00002468 78               [ 4] 6524 	ld	a, b
    00002469 B7               [ 4] 6525 	or	a, a
    0000246A 28 0E            [12] 6526 	jr	Z, 00142$
                                   6527 ;E:\Dropbox\FAUSTO\SVILUPPI\MSX\CODE\C\MSXgl\projects\soccerlg/soccerlg_s4_b1.c:1256: if (team == TEAM_1) divePose = PLAYER_POSE_TEAM1_GK_DOWN_RIGHT;
    0000246C 79               [ 4] 6528 	ld	a, c
    0000246D B7               [ 4] 6529 	or	a, a
    0000246E 28 05            [12] 6530 	jr	Z, 00136$
    00002470 0E 3F            [ 7] 6531 	ld	c, #0x3f
    00002472 C3r82r24         [10] 6532 	jp	00143$
    00002475                       6533 00136$:
                                   6534 ;E:\Dropbox\FAUSTO\SVILUPPI\MSX\CODE\C\MSXgl\projects\soccerlg/soccerlg_s4_b1.c:1257: else divePose = PLAYER_POSE_TEAM2_GK_DOWN_RIGHT;
    00002475 0E 2F            [ 7] 6535 	ld	c, #0x2f
    00002477 C3r82r24         [10] 6536 	jp	00143$
    0000247A                       6537 00142$:
                                   6538 ;E:\Dropbox\FAUSTO\SVILUPPI\MSX\CODE\C\MSXgl\projects\soccerlg/soccerlg_s4_b1.c:1259: if (team == TEAM_1) divePose = PLAYER_POSE_TEAM1_GK_DOWN_LEFT;
    0000247A 79               [ 4] 6539 	ld	a, c
    0000247B B7               [ 4] 6540 	or	a, a
                                   6541 ;E:\Dropbox\FAUSTO\SVILUPPI\MSX\CODE\C\MSXgl\projects\soccerlg/soccerlg_s4_b1.c:1260: else divePose = PLAYER_POSE_TEAM2_GK_DOWN_LEFT;
    0000247C 0E A0            [ 7] 6542 	ld	c, #0xa0
    0000247E 20 02            [12] 6543 	jr	NZ, 00143$
    00002480 0E A0            [ 7] 6544 	ld	c, #0xa0
    00002482                       6545 00143$:
                                   6546 ;E:\Dropbox\FAUSTO\SVILUPPI\MSX\CODE\C\MSXgl\projects\soccerlg/soccerlg_s4_b1.c:1263: g_Players[i].PatternId = divePose;
    00002482 DD 6E F0         [19] 6547 	ld	l, -16 (ix)
    00002485 DD 66 F1         [19] 6548 	ld	h, -15 (ix)
    00002488 11 08 00         [10] 6549 	ld	de, #0x0008
    0000248B 19               [11] 6550 	add	hl, de
    0000248C 71               [ 7] 6551 	ld	(hl), c
                                   6552 ;E:\Dropbox\FAUSTO\SVILUPPI\MSX\CODE\C\MSXgl\projects\soccerlg/soccerlg_s4_b1.c:1264: g_Players[i].Status = PLAYER_STATUS_POSITIONED; // Lock it
    0000248D DD 6E F2         [19] 6553 	ld	l, -14 (ix)
    00002490 DD 66 F3         [19] 6554 	ld	h, -13 (ix)
    00002493 36 04            [10] 6555 	ld	(hl), #0x04
    00002495 23               [ 6] 6556 	inc	hl
    00002496 36 00            [10] 6557 	ld	(hl), #0x00
    00002498                       6558 00149$:
                                   6559 ;E:\Dropbox\FAUSTO\SVILUPPI\MSX\CODE\C\MSXgl\projects\soccerlg/soccerlg_s4_b1.c:1268: Trampoline_VOID_P1(2,PutBallOnPlayerFeet,i);
    00002498 DD 7E EF         [19] 6560 	ld	a, -17 (ix)
    0000249B F5               [11] 6561 	push	af
    0000249C 33               [ 6] 6562 	inc	sp
    0000249D 11r00r00         [10] 6563 	ld	de, #_PutBallOnPlayerFeet
    000024A0 3E 02            [ 7] 6564 	ld	a, #0x02
    000024A2 CDr00r00         [17] 6565 	call	_Trampoline_VOID_P1
                                   6566 ;E:\Dropbox\FAUSTO\SVILUPPI\MSX\CODE\C\MSXgl\projects\soccerlg/soccerlg_s4_b1.c:1269: Trampoline_VOID_P2(2,GoalkeeperWithBall,g_Players[i].TeamId, !wasShot); 
    000024A5 DD 7E FD         [19] 6567 	ld	a, -3 (ix)
    000024A8 D6 01            [ 7] 6568 	sub	a,#0x01
    000024AA 3E 00            [ 7] 6569 	ld	a, #0x00
    000024AC 17               [ 4] 6570 	rla
    000024AD DD 6E FE         [19] 6571 	ld	l, -2 (ix)
    000024B0 DD 66 FF         [19] 6572 	ld	h, -1 (ix)
    000024B3 46               [ 7] 6573 	ld	b, (hl)
    000024B4 F5               [11] 6574 	push	af
    000024B5 33               [ 6] 6575 	inc	sp
    000024B6 C5               [11] 6576 	push	bc
    000024B7 33               [ 6] 6577 	inc	sp
    000024B8 11r00r00         [10] 6578 	ld	de, #_GoalkeeperWithBall
    000024BB 3E 02            [ 7] 6579 	ld	a, #0x02
    000024BD CDr00r00         [17] 6580 	call	_Trampoline_VOID_P2
                                   6581 ;E:\Dropbox\FAUSTO\SVILUPPI\MSX\CODE\C\MSXgl\projects\soccerlg/soccerlg_s4_b1.c:1270: if (!wasShot) g_GkIsGroundKick = false; // Force Slow/Hand mode for Steals
    000024C0 DD 7E FD         [19] 6582 	ld	a, -3 (ix)
    000024C3 B7               [ 4] 6583 	or	a, a
    000024C4 20 05            [12] 6584 	jr	NZ, 00151$
    000024C6 21r00r00         [10] 6585 	ld	hl, #_g_GkIsGroundKick
    000024C9 36 00            [10] 6586 	ld	(hl), #0x00
    000024CB                       6587 00151$:
                                   6588 ;E:\Dropbox\FAUSTO\SVILUPPI\MSX\CODE\C\MSXgl\projects\soccerlg/soccerlg_s4_b1.c:1273: g_Ball.PassTargetPlayerId = NO_VALUE;
    000024CB 21r10r00         [10] 6589 	ld	hl, #(_g_Ball + 16)
    000024CE 36 FF            [10] 6590 	ld	(hl), #0xff
                                   6591 ;E:\Dropbox\FAUSTO\SVILUPPI\MSX\CODE\C\MSXgl\projects\soccerlg/soccerlg_s4_b1.c:1274: g_Ball.ShotActive = 0;
    000024D0 21r1Br00         [10] 6592 	ld	hl, #(_g_Ball + 27)
    000024D3 36 00            [10] 6593 	ld	(hl), #0x00
                                   6594 ;E:\Dropbox\FAUSTO\SVILUPPI\MSX\CODE\C\MSXgl\projects\soccerlg/soccerlg_s4_b1.c:1275: g_Ball.Size = 2;
    000024D5 21r04r00         [10] 6595 	ld	hl, #(_g_Ball + 4)
    000024D8 36 02            [10] 6596 	ld	(hl), #0x02
                                   6597 ;E:\Dropbox\FAUSTO\SVILUPPI\MSX\CODE\C\MSXgl\projects\soccerlg/soccerlg_s4_b1.c:1277: return; // Stop checking
    000024DA C3r97r25         [10] 6598 	jp	00168$
    000024DD                       6599 00153$:
                                   6600 ;E:\Dropbox\FAUSTO\SVILUPPI\MSX\CODE\C\MSXgl\projects\soccerlg/soccerlg_s4_b1.c:1281: g_Ball.PassTargetPlayerId = NO_VALUE; 
    000024DD 21r10r00         [10] 6601 	ld	hl, #(_g_Ball + 16)
    000024E0 36 FF            [10] 6602 	ld	(hl), #0xff
                                   6603 ;E:\Dropbox\FAUSTO\SVILUPPI\MSX\CODE\C\MSXgl\projects\soccerlg/soccerlg_s4_b1.c:1282: g_Ball.ShotActive = 0; 
    000024E2 21r1Br00         [10] 6604 	ld	hl, #(_g_Ball + 27)
    000024E5 36 00            [10] 6605 	ld	(hl), #0x00
                                   6606 ;E:\Dropbox\FAUSTO\SVILUPPI\MSX\CODE\C\MSXgl\projects\soccerlg/soccerlg_s4_b1.c:1283: g_Ball.KickMoveState = 3; // Force ball to snap to feet immediately (No visual lag)
    000024E7 21r0Dr00         [10] 6607 	ld	hl, #(_g_Ball + 13)
    000024EA 36 03            [10] 6608 	ld	(hl), #0x03
                                   6609 ;E:\Dropbox\FAUSTO\SVILUPPI\MSX\CODE\C\MSXgl\projects\soccerlg/soccerlg_s4_b1.c:1284: g_Ball.Size = 1; // On feet = small
    000024EC 21r04r00         [10] 6610 	ld	hl, #(_g_Ball + 4)
    000024EF 36 01            [10] 6611 	ld	(hl), #0x01
                                   6612 ;E:\Dropbox\FAUSTO\SVILUPPI\MSX\CODE\C\MSXgl\projects\soccerlg/soccerlg_s4_b1.c:1285: Trampoline_VOID_P1(2,PutBallOnPlayerFeet,i);
    000024F1 DD 7E EF         [19] 6613 	ld	a, -17 (ix)
    000024F4 F5               [11] 6614 	push	af
    000024F5 33               [ 6] 6615 	inc	sp
    000024F6 11r00r00         [10] 6616 	ld	de, #_PutBallOnPlayerFeet
    000024F9 3E 02            [ 7] 6617 	ld	a, #0x02
    000024FB CDr00r00         [17] 6618 	call	_Trampoline_VOID_P1
                                   6619 ;E:\Dropbox\FAUSTO\SVILUPPI\MSX\CODE\C\MSXgl\projects\soccerlg/soccerlg_s4_b1.c:1286: g_Players[i].Status = PLAYER_STATUS_HAS_BALL;
    000024FE DD 6E F2         [19] 6620 	ld	l, -14 (ix)
    00002501 DD 66 F3         [19] 6621 	ld	h, -13 (ix)
    00002504 36 01            [10] 6622 	ld	(hl), #0x01
    00002506 23               [ 6] 6623 	inc	hl
    00002507 36 00            [10] 6624 	ld	(hl), #0x00
                                   6625 ;E:\Dropbox\FAUSTO\SVILUPPI\MSX\CODE\C\MSXgl\projects\soccerlg/soccerlg_s4_b1.c:1287: return; // Stop checking
    00002509 C3r97r25         [10] 6626 	jp	00168$
    0000250C                       6627 00159$:
                                   6628 ;E:\Dropbox\FAUSTO\SVILUPPI\MSX\CODE\C\MSXgl\projects\soccerlg/soccerlg_s4_b1.c:1291: u8 currentOwner = g_Ball.PossessionPlayerId;
    0000250C DD 4E FF         [19] 6629 	ld	c, -1 (ix)
                                   6630 ;E:\Dropbox\FAUSTO\SVILUPPI\MSX\CODE\C\MSXgl\projects\soccerlg/soccerlg_s4_b1.c:1294: if (g_Players[i].Role == PLAYER_ROLE_GOALKEEPER) {
    0000250F DD 6E F4         [19] 6631 	ld	l, -12 (ix)
    00002512 DD 66 F5         [19] 6632 	ld	h, -11 (ix)
    00002515 46               [ 7] 6633 	ld	b, (hl)
                                   6634 ;E:\Dropbox\FAUSTO\SVILUPPI\MSX\CODE\C\MSXgl\projects\soccerlg/soccerlg_s4_b1.c:1252: u8 team = g_Players[i].TeamId;
    00002516 DD 6E F0         [19] 6635 	ld	l, -16 (ix)
    00002519 DD 66 F1         [19] 6636 	ld	h, -15 (ix)
    0000251C 11 09 00         [10] 6637 	ld	de, #0x0009
    0000251F 19               [11] 6638 	add	hl, de
                                   6639 ;E:\Dropbox\FAUSTO\SVILUPPI\MSX\CODE\C\MSXgl\projects\soccerlg/soccerlg_s4_b1.c:1294: if (g_Players[i].Role == PLAYER_ROLE_GOALKEEPER) {
    00002520 78               [ 4] 6640 	ld	a, b
    00002521 B7               [ 4] 6641 	or	a, a
    00002522 20 35            [12] 6642 	jr	NZ, 00155$
                                   6643 ;E:\Dropbox\FAUSTO\SVILUPPI\MSX\CODE\C\MSXgl\projects\soccerlg/soccerlg_s4_b1.c:1295: Trampoline_VOID_P1(2,PutBallOnPlayerFeet,i);
    00002524 E5               [11] 6644 	push	hl
    00002525 DD 7E EF         [19] 6645 	ld	a, -17 (ix)
    00002528 F5               [11] 6646 	push	af
    00002529 33               [ 6] 6647 	inc	sp
    0000252A 11r00r00         [10] 6648 	ld	de, #_PutBallOnPlayerFeet
    0000252D 3E 02            [ 7] 6649 	ld	a, #0x02
    0000252F CDr00r00         [17] 6650 	call	_Trampoline_VOID_P1
    00002532 E1               [10] 6651 	pop	hl
                                   6652 ;E:\Dropbox\FAUSTO\SVILUPPI\MSX\CODE\C\MSXgl\projects\soccerlg/soccerlg_s4_b1.c:1296: Trampoline_VOID_P2(2,GoalkeeperWithBall,g_Players[i].TeamId, 1); 
    00002533 7E               [ 7] 6653 	ld	a, (hl)
    00002534 26 01            [ 7] 6654 	ld	h, #0x01
                                   6655 ;	spillPairReg hl
                                   6656 ;	spillPairReg hl
    00002536 E5               [11] 6657 	push	hl
    00002537 33               [ 6] 6658 	inc	sp
    00002538 F5               [11] 6659 	push	af
    00002539 33               [ 6] 6660 	inc	sp
    0000253A 11r00r00         [10] 6661 	ld	de, #_GoalkeeperWithBall
    0000253D 3E 02            [ 7] 6662 	ld	a, #0x02
    0000253F CDr00r00         [17] 6663 	call	_Trampoline_VOID_P2
                                   6664 ;E:\Dropbox\FAUSTO\SVILUPPI\MSX\CODE\C\MSXgl\projects\soccerlg/soccerlg_s4_b1.c:1297: g_GkIsGroundKick = false; // Force Slow/Hand mode for Steals
    00002542 21r00r00         [10] 6665 	ld	hl, #_g_GkIsGroundKick
    00002545 36 00            [10] 6666 	ld	(hl), #0x00
                                   6667 ;E:\Dropbox\FAUSTO\SVILUPPI\MSX\CODE\C\MSXgl\projects\soccerlg/soccerlg_s4_b1.c:1300: g_Ball.PassTargetPlayerId = NO_VALUE;
    00002547 21r10r00         [10] 6668 	ld	hl, #(_g_Ball + 16)
    0000254A 36 FF            [10] 6669 	ld	(hl), #0xff
                                   6670 ;E:\Dropbox\FAUSTO\SVILUPPI\MSX\CODE\C\MSXgl\projects\soccerlg/soccerlg_s4_b1.c:1301: g_Ball.ShotActive = 0;
    0000254C 21r1Br00         [10] 6671 	ld	hl, #(_g_Ball + 27)
    0000254F 36 00            [10] 6672 	ld	(hl), #0x00
                                   6673 ;E:\Dropbox\FAUSTO\SVILUPPI\MSX\CODE\C\MSXgl\projects\soccerlg/soccerlg_s4_b1.c:1302: g_Ball.Size = 2;
    00002551 21r04r00         [10] 6674 	ld	hl, #(_g_Ball + 4)
    00002554 36 02            [10] 6675 	ld	(hl), #0x02
                                   6676 ;E:\Dropbox\FAUSTO\SVILUPPI\MSX\CODE\C\MSXgl\projects\soccerlg/soccerlg_s4_b1.c:1303: return;
    00002556 C3r97r25         [10] 6677 	jp	00168$
    00002559                       6678 00155$:
                                   6679 ;E:\Dropbox\FAUSTO\SVILUPPI\MSX\CODE\C\MSXgl\projects\soccerlg/soccerlg_s4_b1.c:1306: if (g_Players[i].TeamId != g_Players[currentOwner].TeamId) {
    00002559 5E               [ 7] 6680 	ld	e, (hl)
    0000255A 06 00            [ 7] 6681 	ld	b, #0x00
    0000255C 69               [ 4] 6682 	ld	l, c
    0000255D 60               [ 4] 6683 	ld	h, b
    0000255E 29               [11] 6684 	add	hl, hl
    0000255F 29               [11] 6685 	add	hl, hl
    00002560 09               [11] 6686 	add	hl, bc
    00002561 29               [11] 6687 	add	hl, hl
    00002562 29               [11] 6688 	add	hl, hl
    00002563 09               [11] 6689 	add	hl, bc
    00002564 01r00r00         [10] 6690 	ld	bc, #_g_Players
    00002567 09               [11] 6691 	add	hl, bc
    00002568 01 09 00         [10] 6692 	ld	bc, #0x0009
    0000256B 09               [11] 6693 	add	hl, bc
    0000256C 4E               [ 7] 6694 	ld	c, (hl)
    0000256D 7B               [ 4] 6695 	ld	a, e
    0000256E 91               [ 4] 6696 	sub	a, c
    0000256F 28 1A            [12] 6697 	jr	Z, 00164$
                                   6698 ;E:\Dropbox\FAUSTO\SVILUPPI\MSX\CODE\C\MSXgl\projects\soccerlg/soccerlg_s4_b1.c:1308: Trampoline_VOID_P1(2,PutBallOnPlayerFeet,i);
    00002571 DD 7E EF         [19] 6699 	ld	a, -17 (ix)
    00002574 F5               [11] 6700 	push	af
    00002575 33               [ 6] 6701 	inc	sp
    00002576 11r00r00         [10] 6702 	ld	de, #_PutBallOnPlayerFeet
    00002579 3E 02            [ 7] 6703 	ld	a, #0x02
    0000257B CDr00r00         [17] 6704 	call	_Trampoline_VOID_P1
                                   6705 ;E:\Dropbox\FAUSTO\SVILUPPI\MSX\CODE\C\MSXgl\projects\soccerlg/soccerlg_s4_b1.c:1310: g_Ball.PassTargetPlayerId = NO_VALUE;
    0000257E 21r10r00         [10] 6706 	ld	hl, #(_g_Ball + 16)
    00002581 36 FF            [10] 6707 	ld	(hl), #0xff
                                   6708 ;E:\Dropbox\FAUSTO\SVILUPPI\MSX\CODE\C\MSXgl\projects\soccerlg/soccerlg_s4_b1.c:1311: g_Ball.ShotActive = 0;
    00002583 21r1Br00         [10] 6709 	ld	hl, #(_g_Ball + 27)
    00002586 36 00            [10] 6710 	ld	(hl), #0x00
                                   6711 ;E:\Dropbox\FAUSTO\SVILUPPI\MSX\CODE\C\MSXgl\projects\soccerlg/soccerlg_s4_b1.c:1312: return;
    00002588 C3r97r25         [10] 6712 	jp	00168$
    0000258B                       6713 00164$:
                                   6714 ;E:\Dropbox\FAUSTO\SVILUPPI\MSX\CODE\C\MSXgl\projects\soccerlg/soccerlg_s4_b1.c:1189: for(u8 i=0; i<14; i++){
    0000258B DD 34 FB         [23] 6715 	inc	-5 (ix)
    0000258E DD 7E FB         [19] 6716 	ld	a, -5 (ix)
    00002591 DD 77 EF         [19] 6717 	ld	-17 (ix), a
    00002594 C3rD6r21         [10] 6718 	jp	00167$
    00002597                       6719 00168$:
                                   6720 ;E:\Dropbox\FAUSTO\SVILUPPI\MSX\CODE\C\MSXgl\projects\soccerlg/soccerlg_s4_b1.c:1317: }
    00002597 DD F9            [10] 6721 	ld	sp, ix
    00002599 DD E1            [14] 6722 	pop	ix
    0000259B C9               [10] 6723 	ret
                                   6724 ;E:\Dropbox\FAUSTO\SVILUPPI\MSX\CODE\C\MSXgl\projects\soccerlg/soccerlg_s4_b1.c:1319: void PrintTeamName(u8 x, u8 teamPaletteId) {
                                   6725 ;	---------------------------------
                                   6726 ; Function PrintTeamName
                                   6727 ; ---------------------------------
    0000259C                       6728 _PrintTeamName::
    0000259C DD E5            [15] 6729 	push	ix
    0000259E DD 21 00 00      [14] 6730 	ld	ix,#0
    000025A2 DD 39            [15] 6731 	add	ix,sp
    000025A4 F5               [11] 6732 	push	af
    000025A5 DD 77 FF         [19] 6733 	ld	-1 (ix), a
    000025A8 4D               [ 4] 6734 	ld	c, l
                                   6735 ;E:\Dropbox\FAUSTO\SVILUPPI\MSX\CODE\C\MSXgl\projects\soccerlg/soccerlg_s4_b1.c:1324: switch (teamPaletteId) {
    000025A9 3E 05            [ 7] 6736 	ld	a, #0x05
    000025AB 91               [ 4] 6737 	sub	a, c
    000025AC 38 3F            [12] 6738 	jr	C, 00107$
    000025AE 06 00            [ 7] 6739 	ld	b, #0x00
    000025B0 21rB7r25         [10] 6740 	ld	hl, #00127$
    000025B3 09               [11] 6741 	add	hl, bc
    000025B4 09               [11] 6742 	add	hl, bc
    000025B5 09               [11] 6743 	add	hl, bc
    000025B6 E9               [ 4] 6744 	jp	(hl)
    000025B7                       6745 00127$:
    000025B7 C3rC9r25         [10] 6746 	jp	00101$
    000025BA C3rE7r25         [10] 6747 	jp	00106$
    000025BD C3rD5r25         [10] 6748 	jp	00103$
    000025C0 C3rCFr25         [10] 6749 	jp	00102$
    000025C3 C3rDBr25         [10] 6750 	jp	00104$
    000025C6 C3rE1r25         [10] 6751 	jp	00105$
                                   6752 ;E:\Dropbox\FAUSTO\SVILUPPI\MSX\CODE\C\MSXgl\projects\soccerlg/soccerlg_s4_b1.c:1326: case TEAM_AUS: pName = "AUS"; break;
    000025C9                       6753 00101$:
    000025C9 11r80r26         [10] 6754 	ld	de, #___str_5
    000025CC C3rF0r25         [10] 6755 	jp	00110$
                                   6756 ;E:\Dropbox\FAUSTO\SVILUPPI\MSX\CODE\C\MSXgl\projects\soccerlg/soccerlg_s4_b1.c:1327: case TEAM_BRA: pName = "BRA"; break;
    000025CF                       6757 00102$:
    000025CF 11r84r26         [10] 6758 	ld	de, #___str_6
    000025D2 C3rF0r25         [10] 6759 	jp	00110$
                                   6760 ;E:\Dropbox\FAUSTO\SVILUPPI\MSX\CODE\C\MSXgl\projects\soccerlg/soccerlg_s4_b1.c:1328: case TEAM_ITA: pName = "ITA"; break;
    000025D5                       6761 00103$:
    000025D5 11r88r26         [10] 6762 	ld	de, #___str_7
    000025D8 C3rF0r25         [10] 6763 	jp	00110$
                                   6764 ;E:\Dropbox\FAUSTO\SVILUPPI\MSX\CODE\C\MSXgl\projects\soccerlg/soccerlg_s4_b1.c:1329: case TEAM_FRA: pName = "FRA"; break;
    000025DB                       6765 00104$:
    000025DB 11r8Cr26         [10] 6766 	ld	de, #___str_8
    000025DE C3rF0r25         [10] 6767 	jp	00110$
                                   6768 ;E:\Dropbox\FAUSTO\SVILUPPI\MSX\CODE\C\MSXgl\projects\soccerlg/soccerlg_s4_b1.c:1330: case TEAM_GBR: pName = "GBR"; break;
    000025E1                       6769 00105$:
    000025E1 11r90r26         [10] 6770 	ld	de, #___str_9
    000025E4 C3rF0r25         [10] 6771 	jp	00110$
                                   6772 ;E:\Dropbox\FAUSTO\SVILUPPI\MSX\CODE\C\MSXgl\projects\soccerlg/soccerlg_s4_b1.c:1331: case TEAM_GER: pName = "GER"; break;
    000025E7                       6773 00106$:
    000025E7 11r94r26         [10] 6774 	ld	de, #___str_10
    000025EA C3rF0r25         [10] 6775 	jp	00110$
                                   6776 ;E:\Dropbox\FAUSTO\SVILUPPI\MSX\CODE\C\MSXgl\projects\soccerlg/soccerlg_s4_b1.c:1332: default:       pName = "   "; break;
    000025ED                       6777 00107$:
    000025ED 11r98r26         [10] 6778 	ld	de, #___str_11
                                   6779 ;E:\Dropbox\FAUSTO\SVILUPPI\MSX\CODE\C\MSXgl\projects\soccerlg/soccerlg_s4_b1.c:1333: }
    000025F0                       6780 00110$:
                                   6781 ;E:\Dropbox\FAUSTO\SVILUPPI\MSX\CODE\C\MSXgl\projects\soccerlg/soccerlg_s4_b1.c:1335: V9990_PrintLayerAStringAtPos(x, 0, pName);
    000025F0 D5               [11] 6782 	push	de
    000025F1 D5               [11] 6783 	push	de
    000025F2 2E 00            [ 7] 6784 	ld	l, #0x00
                                   6785 ;	spillPairReg hl
                                   6786 ;	spillPairReg hl
    000025F4 DD 7E FF         [19] 6787 	ld	a, -1 (ix)
    000025F7 CDr00r00         [17] 6788 	call	_V9990_PrintLayerAStringAtPos
    000025FA D1               [10] 6789 	pop	de
                                   6790 ;E:\Dropbox\FAUSTO\SVILUPPI\MSX\CODE\C\MSXgl\projects\soccerlg/soccerlg_s4_b1.c:1337: g_History1[0] = pName[0];
    000025FB 1A               [ 7] 6791 	ld	a, (de)
    000025FC DD 77 FE         [19] 6792 	ld	-2 (ix), a
                                   6793 ;E:\Dropbox\FAUSTO\SVILUPPI\MSX\CODE\C\MSXgl\projects\soccerlg/soccerlg_s4_b1.c:1338: g_History1[1] = pName[1];
    000025FF 4B               [ 4] 6794 	ld	c, e
    00002600 42               [ 4] 6795 	ld	b, d
    00002601 03               [ 6] 6796 	inc	bc
                                   6797 ;E:\Dropbox\FAUSTO\SVILUPPI\MSX\CODE\C\MSXgl\projects\soccerlg/soccerlg_s4_b1.c:1339: g_History1[2] = pName[2];
    00002602 13               [ 6] 6798 	inc	de
    00002603 13               [ 6] 6799 	inc	de
                                   6800 ;E:\Dropbox\FAUSTO\SVILUPPI\MSX\CODE\C\MSXgl\projects\soccerlg/soccerlg_s4_b1.c:1336: if(x==0){
    00002604 DD 7E FF         [19] 6801 	ld	a, -1 (ix)
    00002607 B7               [ 4] 6802 	or	a, a
    00002608 20 3A            [12] 6803 	jr	NZ, 00112$
                                   6804 ;E:\Dropbox\FAUSTO\SVILUPPI\MSX\CODE\C\MSXgl\projects\soccerlg/soccerlg_s4_b1.c:1337: g_History1[0] = pName[0];
    0000260A 21r00r00         [10] 6805 	ld	hl, #_g_History1
    0000260D DD 7E FE         [19] 6806 	ld	a, -2 (ix)
    00002610 77               [ 7] 6807 	ld	(hl), a
                                   6808 ;E:\Dropbox\FAUSTO\SVILUPPI\MSX\CODE\C\MSXgl\projects\soccerlg/soccerlg_s4_b1.c:1338: g_History1[1] = pName[1];
    00002611 23               [ 6] 6809 	inc	hl
    00002612 0A               [ 7] 6810 	ld	a, (bc)
    00002613 77               [ 7] 6811 	ld	(hl), a
                                   6812 ;E:\Dropbox\FAUSTO\SVILUPPI\MSX\CODE\C\MSXgl\projects\soccerlg/soccerlg_s4_b1.c:1339: g_History1[2] = pName[2];
    00002614 01r02r00         [10] 6813 	ld	bc, #_g_History1 + 2
    00002617 1A               [ 7] 6814 	ld	a, (de)
    00002618 02               [ 7] 6815 	ld	(bc), a
                                   6816 ;E:\Dropbox\FAUSTO\SVILUPPI\MSX\CODE\C\MSXgl\projects\soccerlg/soccerlg_s4_b1.c:1340: g_History1[3] = ':';
    00002619 21r03r00         [10] 6817 	ld	hl, #(_g_History1 + 3)
    0000261C 36 3A            [10] 6818 	ld	(hl), #0x3a
                                   6819 ;E:\Dropbox\FAUSTO\SVILUPPI\MSX\CODE\C\MSXgl\projects\soccerlg/soccerlg_s4_b1.c:1341: g_History1[4] = ' ';
    0000261E 21r04r00         [10] 6820 	ld	hl, #(_g_History1 + 4)
    00002621 36 20            [10] 6821 	ld	(hl), #0x20
                                   6822 ;E:\Dropbox\FAUSTO\SVILUPPI\MSX\CODE\C\MSXgl\projects\soccerlg/soccerlg_s4_b1.c:1342: g_History1[5] = ' ';
    00002623 21r05r00         [10] 6823 	ld	hl, #(_g_History1 + 5)
    00002626 36 20            [10] 6824 	ld	(hl), #0x20
                                   6825 ;E:\Dropbox\FAUSTO\SVILUPPI\MSX\CODE\C\MSXgl\projects\soccerlg/soccerlg_s4_b1.c:1343: g_History1[6] = ' ';
    00002628 21r06r00         [10] 6826 	ld	hl, #(_g_History1 + 6)
    0000262B 36 20            [10] 6827 	ld	(hl), #0x20
                                   6828 ;E:\Dropbox\FAUSTO\SVILUPPI\MSX\CODE\C\MSXgl\projects\soccerlg/soccerlg_s4_b1.c:1344: g_History1[7] = ' ';
    0000262D 21r07r00         [10] 6829 	ld	hl, #(_g_History1 + 7)
    00002630 36 20            [10] 6830 	ld	(hl), #0x20
                                   6831 ;E:\Dropbox\FAUSTO\SVILUPPI\MSX\CODE\C\MSXgl\projects\soccerlg/soccerlg_s4_b1.c:1345: g_History1[8] = ' ';
    00002632 21r08r00         [10] 6832 	ld	hl, #(_g_History1 + 8)
    00002635 36 20            [10] 6833 	ld	(hl), #0x20
                                   6834 ;E:\Dropbox\FAUSTO\SVILUPPI\MSX\CODE\C\MSXgl\projects\soccerlg/soccerlg_s4_b1.c:1346: g_History1[9] = ' ';
    00002637 21r09r00         [10] 6835 	ld	hl, #(_g_History1 + 9)
    0000263A 36 20            [10] 6836 	ld	(hl), #0x20
                                   6837 ;E:\Dropbox\FAUSTO\SVILUPPI\MSX\CODE\C\MSXgl\projects\soccerlg/soccerlg_s4_b1.c:1347: g_History1[10] = '\0';
    0000263C 21r0Ar00         [10] 6838 	ld	hl, #(_g_History1 + 10)
    0000263F 36 00            [10] 6839 	ld	(hl), #0x00
    00002641 C3r7Br26         [10] 6840 	jp	00114$
    00002644                       6841 00112$:
                                   6842 ;E:\Dropbox\FAUSTO\SVILUPPI\MSX\CODE\C\MSXgl\projects\soccerlg/soccerlg_s4_b1.c:1350: g_History2[0] = pName[0];
    00002644 21r00r00         [10] 6843 	ld	hl, #_g_History2
    00002647 DD 7E FE         [19] 6844 	ld	a, -2 (ix)
    0000264A 77               [ 7] 6845 	ld	(hl), a
                                   6846 ;E:\Dropbox\FAUSTO\SVILUPPI\MSX\CODE\C\MSXgl\projects\soccerlg/soccerlg_s4_b1.c:1351: g_History2[1] = pName[1];
    0000264B 0A               [ 7] 6847 	ld	a, (bc)
    0000264C 32r01r00         [13] 6848 	ld	(#(_g_History2 + 1)),a
                                   6849 ;E:\Dropbox\FAUSTO\SVILUPPI\MSX\CODE\C\MSXgl\projects\soccerlg/soccerlg_s4_b1.c:1352: g_History2[2] = pName[2];
    0000264F 1A               [ 7] 6850 	ld	a, (de)
    00002650 32r02r00         [13] 6851 	ld	(#(_g_History2 + 2)),a
                                   6852 ;E:\Dropbox\FAUSTO\SVILUPPI\MSX\CODE\C\MSXgl\projects\soccerlg/soccerlg_s4_b1.c:1353: g_History2[3] = ':';
    00002653 21r03r00         [10] 6853 	ld	hl, #(_g_History2 + 3)
    00002656 36 3A            [10] 6854 	ld	(hl), #0x3a
                                   6855 ;E:\Dropbox\FAUSTO\SVILUPPI\MSX\CODE\C\MSXgl\projects\soccerlg/soccerlg_s4_b1.c:1354: g_History2[4] = ' ';
    00002658 21r04r00         [10] 6856 	ld	hl, #(_g_History2 + 4)
    0000265B 36 20            [10] 6857 	ld	(hl), #0x20
                                   6858 ;E:\Dropbox\FAUSTO\SVILUPPI\MSX\CODE\C\MSXgl\projects\soccerlg/soccerlg_s4_b1.c:1355: g_History2[5] = ' ';
    0000265D 21r05r00         [10] 6859 	ld	hl, #(_g_History2 + 5)
    00002660 36 20            [10] 6860 	ld	(hl), #0x20
                                   6861 ;E:\Dropbox\FAUSTO\SVILUPPI\MSX\CODE\C\MSXgl\projects\soccerlg/soccerlg_s4_b1.c:1356: g_History2[6] = ' ';
    00002662 21r06r00         [10] 6862 	ld	hl, #(_g_History2 + 6)
    00002665 36 20            [10] 6863 	ld	(hl), #0x20
                                   6864 ;E:\Dropbox\FAUSTO\SVILUPPI\MSX\CODE\C\MSXgl\projects\soccerlg/soccerlg_s4_b1.c:1357: g_History2[7] = ' ';
    00002667 21r07r00         [10] 6865 	ld	hl, #(_g_History2 + 7)
    0000266A 36 20            [10] 6866 	ld	(hl), #0x20
                                   6867 ;E:\Dropbox\FAUSTO\SVILUPPI\MSX\CODE\C\MSXgl\projects\soccerlg/soccerlg_s4_b1.c:1358: g_History2[8] = ' ';
    0000266C 21r08r00         [10] 6868 	ld	hl, #(_g_History2 + 8)
    0000266F 36 20            [10] 6869 	ld	(hl), #0x20
                                   6870 ;E:\Dropbox\FAUSTO\SVILUPPI\MSX\CODE\C\MSXgl\projects\soccerlg/soccerlg_s4_b1.c:1359: g_History2[9] = ' ';
    00002671 21r09r00         [10] 6871 	ld	hl, #(_g_History2 + 9)
    00002674 36 20            [10] 6872 	ld	(hl), #0x20
                                   6873 ;E:\Dropbox\FAUSTO\SVILUPPI\MSX\CODE\C\MSXgl\projects\soccerlg/soccerlg_s4_b1.c:1360: g_History2[10] = '\0';
    00002676 21r0Ar00         [10] 6874 	ld	hl, #(_g_History2 + 10)
    00002679 36 00            [10] 6875 	ld	(hl), #0x00
    0000267B                       6876 00114$:
                                   6877 ;E:\Dropbox\FAUSTO\SVILUPPI\MSX\CODE\C\MSXgl\projects\soccerlg/soccerlg_s4_b1.c:1362: }
    0000267B DD F9            [10] 6878 	ld	sp, ix
    0000267D DD E1            [14] 6879 	pop	ix
    0000267F C9               [10] 6880 	ret
    00002680                       6881 ___str_5:
    00002680 41 55 53              6882 	.ascii "AUS"
    00002683 00                    6883 	.db 0x00
    00002684                       6884 ___str_6:
    00002684 42 52 41              6885 	.ascii "BRA"
    00002687 00                    6886 	.db 0x00
    00002688                       6887 ___str_7:
    00002688 49 54 41              6888 	.ascii "ITA"
    0000268B 00                    6889 	.db 0x00
    0000268C                       6890 ___str_8:
    0000268C 46 52 41              6891 	.ascii "FRA"
    0000268F 00                    6892 	.db 0x00
    00002690                       6893 ___str_9:
    00002690 47 42 52              6894 	.ascii "GBR"
    00002693 00                    6895 	.db 0x00
    00002694                       6896 ___str_10:
    00002694 47 45 52              6897 	.ascii "GER"
    00002697 00                    6898 	.db 0x00
    00002698                       6899 ___str_11:
    00002698 20 20 20              6900 	.ascii "   "
    0000269B 00                    6901 	.db 0x00
                                   6902 ;E:\Dropbox\FAUSTO\SVILUPPI\MSX\CODE\C\MSXgl\projects\soccerlg/soccerlg_s4_b1.c:1364: char *GetNumberString(u16 value)
                                   6903 ;	---------------------------------
                                   6904 ; Function GetNumberString
                                   6905 ; ---------------------------------
    0000269C                       6906 _GetNumberString::
    0000269C EB               [ 4] 6907 	ex	de, hl
                                   6908 ;E:\Dropbox\FAUSTO\SVILUPPI\MSX\CODE\C\MSXgl\projects\soccerlg/soccerlg_s4_b1.c:1368: if (value < 10) {
    0000269D 4B               [ 4] 6909 	ld	c, e
    0000269E 42               [ 4] 6910 	ld	b, d
    0000269F 79               [ 4] 6911 	ld	a, c
    000026A0 D6 0A            [ 7] 6912 	sub	a, #0x0a
    000026A2 78               [ 4] 6913 	ld	a, b
    000026A3 DE 00            [ 7] 6914 	sbc	a, #0x00
    000026A5 30 0D            [12] 6915 	jr	NC, 00102$
                                   6916 ;E:\Dropbox\FAUSTO\SVILUPPI\MSX\CODE\C\MSXgl\projects\soccerlg/soccerlg_s4_b1.c:1369: str[0] = '0' + value;
    000026A7 01r01r00         [10] 6917 	ld	bc, #_GetNumberString_str_65536_1582+0
    000026AA 7B               [ 4] 6918 	ld	a, e
    000026AB C6 30            [ 7] 6919 	add	a, #0x30
    000026AD 02               [ 7] 6920 	ld	(bc), a
                                   6921 ;E:\Dropbox\FAUSTO\SVILUPPI\MSX\CODE\C\MSXgl\projects\soccerlg/soccerlg_s4_b1.c:1370: str[1] = '\0';
    000026AE 03               [ 6] 6922 	inc	bc
    000026AF AF               [ 4] 6923 	xor	a, a
    000026B0 02               [ 7] 6924 	ld	(bc), a
    000026B1 C3rD7r26         [10] 6925 	jp	00103$
    000026B4                       6926 00102$:
                                   6927 ;E:\Dropbox\FAUSTO\SVILUPPI\MSX\CODE\C\MSXgl\projects\soccerlg/soccerlg_s4_b1.c:1372: str[0] = '0' + (value / 10);
    000026B4 C5               [11] 6928 	push	bc
    000026B5 11 0A 00         [10] 6929 	ld	de, #0x000a
    000026B8 69               [ 4] 6930 	ld	l, c
                                   6931 ;	spillPairReg hl
                                   6932 ;	spillPairReg hl
    000026B9 60               [ 4] 6933 	ld	h, b
                                   6934 ;	spillPairReg hl
                                   6935 ;	spillPairReg hl
    000026BA CDr00r00         [17] 6936 	call	__divuint
    000026BD C1               [10] 6937 	pop	bc
    000026BE 7B               [ 4] 6938 	ld	a, e
    000026BF C6 30            [ 7] 6939 	add	a, #0x30
    000026C1 32r01r00         [13] 6940 	ld	(#_GetNumberString_str_65536_1582),a
                                   6941 ;E:\Dropbox\FAUSTO\SVILUPPI\MSX\CODE\C\MSXgl\projects\soccerlg/soccerlg_s4_b1.c:1373: str[1] = '0' + (value % 10);
    000026C4 11 0A 00         [10] 6942 	ld	de, #0x000a
    000026C7 69               [ 4] 6943 	ld	l, c
                                   6944 ;	spillPairReg hl
                                   6945 ;	spillPairReg hl
    000026C8 60               [ 4] 6946 	ld	h, b
                                   6947 ;	spillPairReg hl
                                   6948 ;	spillPairReg hl
    000026C9 CDr00r00         [17] 6949 	call	__moduint
    000026CC 7B               [ 4] 6950 	ld	a, e
    000026CD C6 30            [ 7] 6951 	add	a, #0x30
    000026CF 32r02r00         [13] 6952 	ld	(#(_GetNumberString_str_65536_1582 + 1)),a
                                   6953 ;E:\Dropbox\FAUSTO\SVILUPPI\MSX\CODE\C\MSXgl\projects\soccerlg/soccerlg_s4_b1.c:1374: str[2] = '\0';
    000026D2 21r03r00         [10] 6954 	ld	hl, #(_GetNumberString_str_65536_1582 + 2)
    000026D5 36 00            [10] 6955 	ld	(hl), #0x00
    000026D7                       6956 00103$:
                                   6957 ;E:\Dropbox\FAUSTO\SVILUPPI\MSX\CODE\C\MSXgl\projects\soccerlg/soccerlg_s4_b1.c:1377: return str;
    000026D7 11r01r00         [10] 6958 	ld	de, #_GetNumberString_str_65536_1582
                                   6959 ;E:\Dropbox\FAUSTO\SVILUPPI\MSX\CODE\C\MSXgl\projects\soccerlg/soccerlg_s4_b1.c:1378: }
    000026DA C9               [10] 6960 	ret
                                   6961 ;E:\Dropbox\FAUSTO\SVILUPPI\MSX\CODE\C\MSXgl\projects\soccerlg/soccerlg_s4_b1.c:1380: void ShowHeaderInfo(){
                                   6962 ;	---------------------------------
                                   6963 ; Function ShowHeaderInfo
                                   6964 ; ---------------------------------
    000026DB                       6965 _ShowHeaderInfo::
    000026DB DD E5            [15] 6966 	push	ix
    000026DD DD 21 00 00      [14] 6967 	ld	ix,#0
    000026E1 DD 39            [15] 6968 	add	ix,sp
    000026E3 3B               [ 6] 6969 	dec	sp
                                   6970 ;E:\Dropbox\FAUSTO\SVILUPPI\MSX\CODE\C\MSXgl\projects\soccerlg/soccerlg_s4_b1.c:1381: u8 pos1 = (g_Team1Score >= 10) ? 4 : 5;
    000026E4 3Ar00r00         [13] 6971 	ld	a, (_g_Team1Score+0)
    000026E7 D6 0A            [ 7] 6972 	sub	a, #0x0a
    000026E9 38 06            [12] 6973 	jr	C, 00106$
    000026EB 01 04 00         [10] 6974 	ld	bc, #0x0004
    000026EE C3rF4r26         [10] 6975 	jp	00107$
    000026F1                       6976 00106$:
    000026F1 01 05 00         [10] 6977 	ld	bc, #0x0005
    000026F4                       6978 00107$:
                                   6979 ;E:\Dropbox\FAUSTO\SVILUPPI\MSX\CODE\C\MSXgl\projects\soccerlg/soccerlg_s4_b1.c:1382: u8 pos2 = (g_Team2Score >= 10) ? 9 : 10;
    000026F4 3Ar00r00         [13] 6980 	ld	a, (_g_Team2Score+0)
    000026F7 D6 0A            [ 7] 6981 	sub	a, #0x0a
    000026F9 38 06            [12] 6982 	jr	C, 00108$
    000026FB 11 09 00         [10] 6983 	ld	de, #0x0009
    000026FE C3r04r27         [10] 6984 	jp	00109$
    00002701                       6985 00108$:
    00002701 11 0A 00         [10] 6986 	ld	de, #0x000a
    00002704                       6987 00109$:
    00002704 DD 73 FF         [19] 6988 	ld	-1 (ix), e
                                   6989 ;E:\Dropbox\FAUSTO\SVILUPPI\MSX\CODE\C\MSXgl\projects\soccerlg/soccerlg_s4_b1.c:1384: PrintTeamName(0, g_Team1PaletteId);
    00002707 C5               [11] 6990 	push	bc
    00002708 3Ar00r00         [13] 6991 	ld	a, (_g_Team1PaletteId+0)
    0000270B 6F               [ 4] 6992 	ld	l, a
                                   6993 ;	spillPairReg hl
                                   6994 ;	spillPairReg hl
    0000270C AF               [ 4] 6995 	xor	a, a
    0000270D CDr9Cr25         [17] 6996 	call	_PrintTeamName
    00002710 C1               [10] 6997 	pop	bc
                                   6998 ;E:\Dropbox\FAUSTO\SVILUPPI\MSX\CODE\C\MSXgl\projects\soccerlg/soccerlg_s4_b1.c:1386: V9990_PrintLayerAStringAtPos(pos1, 0, GetNumberString(g_Team1Score));
    00002711 3Ar00r00         [13] 6999 	ld	a, (_g_Team1Score+0)
    00002714 6F               [ 4] 7000 	ld	l, a
                                   7001 ;	spillPairReg hl
                                   7002 ;	spillPairReg hl
    00002715 26 00            [ 7] 7003 	ld	h, #0x00
                                   7004 ;	spillPairReg hl
                                   7005 ;	spillPairReg hl
    00002717 C5               [11] 7006 	push	bc
    00002718 CDr9Cr26         [17] 7007 	call	_GetNumberString
    0000271B C1               [10] 7008 	pop	bc
    0000271C D5               [11] 7009 	push	de
    0000271D 2E 00            [ 7] 7010 	ld	l, #0x00
                                   7011 ;	spillPairReg hl
                                   7012 ;	spillPairReg hl
    0000271F 79               [ 4] 7013 	ld	a, c
    00002720 CDr00r00         [17] 7014 	call	_V9990_PrintLayerAStringAtPos
                                   7015 ;E:\Dropbox\FAUSTO\SVILUPPI\MSX\CODE\C\MSXgl\projects\soccerlg/soccerlg_s4_b1.c:1387: V9990_PrintLayerAStringAtPos(7, 0, "-");
    00002723 21rB1r27         [10] 7016 	ld	hl, #___str_12
    00002726 E5               [11] 7017 	push	hl
    00002727 2E 00            [ 7] 7018 	ld	l, #0x00
                                   7019 ;	spillPairReg hl
                                   7020 ;	spillPairReg hl
    00002729 3E 07            [ 7] 7021 	ld	a, #0x07
    0000272B CDr00r00         [17] 7022 	call	_V9990_PrintLayerAStringAtPos
                                   7023 ;E:\Dropbox\FAUSTO\SVILUPPI\MSX\CODE\C\MSXgl\projects\soccerlg/soccerlg_s4_b1.c:1388: V9990_PrintLayerAStringAtPos(pos2, 0, GetNumberString(g_Team2Score));
    0000272E 3Ar00r00         [13] 7024 	ld	a, (_g_Team2Score+0)
    00002731 6F               [ 4] 7025 	ld	l, a
                                   7026 ;	spillPairReg hl
                                   7027 ;	spillPairReg hl
    00002732 26 00            [ 7] 7028 	ld	h, #0x00
                                   7029 ;	spillPairReg hl
                                   7030 ;	spillPairReg hl
    00002734 CDr9Cr26         [17] 7031 	call	_GetNumberString
    00002737 D5               [11] 7032 	push	de
    00002738 2E 00            [ 7] 7033 	ld	l, #0x00
                                   7034 ;	spillPairReg hl
                                   7035 ;	spillPairReg hl
    0000273A DD 7E FF         [19] 7036 	ld	a, -1 (ix)
    0000273D CDr00r00         [17] 7037 	call	_V9990_PrintLayerAStringAtPos
                                   7038 ;E:\Dropbox\FAUSTO\SVILUPPI\MSX\CODE\C\MSXgl\projects\soccerlg/soccerlg_s4_b1.c:1390: PrintTeamName(12, g_Team2PaletteId);
    00002740 3Ar00r00         [13] 7039 	ld	a, (_g_Team2PaletteId+0)
    00002743 6F               [ 4] 7040 	ld	l, a
                                   7041 ;	spillPairReg hl
                                   7042 ;	spillPairReg hl
    00002744 3E 0C            [ 7] 7043 	ld	a, #0x0c
    00002746 CDr9Cr25         [17] 7044 	call	_PrintTeamName
                                   7045 ;E:\Dropbox\FAUSTO\SVILUPPI\MSX\CODE\C\MSXgl\projects\soccerlg/soccerlg_s4_b1.c:1391: u8 minutes=g_SecondsToEndOfMatch / 60;
    00002749 3Ar00r00         [13] 7046 	ld	a, (_g_SecondsToEndOfMatch+0)
    0000274C 6F               [ 4] 7047 	ld	l, a
                                   7048 ;	spillPairReg hl
                                   7049 ;	spillPairReg hl
    0000274D 26 00            [ 7] 7050 	ld	h, #0x00
                                   7051 ;	spillPairReg hl
                                   7052 ;	spillPairReg hl
    0000274F 11 3C 00         [10] 7053 	ld	de, #0x003c
    00002752 CDr00r00         [17] 7054 	call	__divsint
                                   7055 ;E:\Dropbox\FAUSTO\SVILUPPI\MSX\CODE\C\MSXgl\projects\soccerlg/soccerlg_s4_b1.c:1392: u8 seconds=g_SecondsToEndOfMatch - minutes*60;
    00002755 7B               [ 4] 7056 	ld	a, e
    00002756 4F               [ 4] 7057 	ld	c, a
    00002757 87               [ 4] 7058 	add	a, a
    00002758 87               [ 4] 7059 	add	a, a
    00002759 87               [ 4] 7060 	add	a, a
    0000275A 87               [ 4] 7061 	add	a, a
    0000275B 91               [ 4] 7062 	sub	a, c
    0000275C 87               [ 4] 7063 	add	a, a
    0000275D 87               [ 4] 7064 	add	a, a
    0000275E 4F               [ 4] 7065 	ld	c, a
    0000275F 3Ar00r00         [13] 7066 	ld	a, (_g_SecondsToEndOfMatch+0)
    00002762 91               [ 4] 7067 	sub	a, c
    00002763 4F               [ 4] 7068 	ld	c, a
                                   7069 ;E:\Dropbox\FAUSTO\SVILUPPI\MSX\CODE\C\MSXgl\projects\soccerlg/soccerlg_s4_b1.c:1393: V9990_PrintLayerAStringAtPos(28,0,GetNumberString(minutes));
    00002764 16 00            [ 7] 7070 	ld	d, #0x00
    00002766 C5               [11] 7071 	push	bc
    00002767 EB               [ 4] 7072 	ex	de, hl
    00002768 CDr9Cr26         [17] 7073 	call	_GetNumberString
    0000276B D5               [11] 7074 	push	de
    0000276C 2E 00            [ 7] 7075 	ld	l, #0x00
                                   7076 ;	spillPairReg hl
                                   7077 ;	spillPairReg hl
    0000276E 3E 1C            [ 7] 7078 	ld	a, #0x1c
    00002770 CDr00r00         [17] 7079 	call	_V9990_PrintLayerAStringAtPos
    00002773 21rB3r27         [10] 7080 	ld	hl, #___str_13
    00002776 E5               [11] 7081 	push	hl
    00002777 2E 00            [ 7] 7082 	ld	l, #0x00
                                   7083 ;	spillPairReg hl
                                   7084 ;	spillPairReg hl
    00002779 3E 1D            [ 7] 7085 	ld	a, #0x1d
    0000277B CDr00r00         [17] 7086 	call	_V9990_PrintLayerAStringAtPos
    0000277E C1               [10] 7087 	pop	bc
                                   7088 ;E:\Dropbox\FAUSTO\SVILUPPI\MSX\CODE\C\MSXgl\projects\soccerlg/soccerlg_s4_b1.c:1396: V9990_PrintLayerAStringAtPos(30,0,GetNumberString(seconds));
    0000277F 69               [ 4] 7089 	ld	l, c
                                   7090 ;	spillPairReg hl
                                   7091 ;	spillPairReg hl
    00002780 26 00            [ 7] 7092 	ld	h, #0x00
                                   7093 ;	spillPairReg hl
                                   7094 ;	spillPairReg hl
                                   7095 ;E:\Dropbox\FAUSTO\SVILUPPI\MSX\CODE\C\MSXgl\projects\soccerlg/soccerlg_s4_b1.c:1395: if(seconds>=10){
    00002782 79               [ 4] 7096 	ld	a, c
    00002783 D6 0A            [ 7] 7097 	sub	a, #0x0a
    00002785 38 0E            [12] 7098 	jr	C, 00102$
                                   7099 ;E:\Dropbox\FAUSTO\SVILUPPI\MSX\CODE\C\MSXgl\projects\soccerlg/soccerlg_s4_b1.c:1396: V9990_PrintLayerAStringAtPos(30,0,GetNumberString(seconds));
    00002787 CDr9Cr26         [17] 7100 	call	_GetNumberString
    0000278A D5               [11] 7101 	push	de
    0000278B 2E 00            [ 7] 7102 	ld	l, #0x00
                                   7103 ;	spillPairReg hl
                                   7104 ;	spillPairReg hl
    0000278D 3E 1E            [ 7] 7105 	ld	a, #0x1e
    0000278F CDr00r00         [17] 7106 	call	_V9990_PrintLayerAStringAtPos
    00002792 C3rADr27         [10] 7107 	jp	00104$
    00002795                       7108 00102$:
                                   7109 ;E:\Dropbox\FAUSTO\SVILUPPI\MSX\CODE\C\MSXgl\projects\soccerlg/soccerlg_s4_b1.c:1399: V9990_PrintLayerAStringAtPos(30,0,"0");
    00002795 01rB5r27         [10] 7110 	ld	bc, #___str_14+0
    00002798 E5               [11] 7111 	push	hl
    00002799 C5               [11] 7112 	push	bc
    0000279A 2E 00            [ 7] 7113 	ld	l, #0x00
                                   7114 ;	spillPairReg hl
                                   7115 ;	spillPairReg hl
    0000279C 3E 1E            [ 7] 7116 	ld	a, #0x1e
    0000279E CDr00r00         [17] 7117 	call	_V9990_PrintLayerAStringAtPos
    000027A1 E1               [10] 7118 	pop	hl
                                   7119 ;E:\Dropbox\FAUSTO\SVILUPPI\MSX\CODE\C\MSXgl\projects\soccerlg/soccerlg_s4_b1.c:1400: V9990_PrintLayerAStringAtPos(31,0,GetNumberString(seconds));
    000027A2 CDr9Cr26         [17] 7120 	call	_GetNumberString
    000027A5 D5               [11] 7121 	push	de
    000027A6 2E 00            [ 7] 7122 	ld	l, #0x00
                                   7123 ;	spillPairReg hl
                                   7124 ;	spillPairReg hl
    000027A8 3E 1F            [ 7] 7125 	ld	a, #0x1f
    000027AA CDr00r00         [17] 7126 	call	_V9990_PrintLayerAStringAtPos
    000027AD                       7127 00104$:
                                   7128 ;E:\Dropbox\FAUSTO\SVILUPPI\MSX\CODE\C\MSXgl\projects\soccerlg/soccerlg_s4_b1.c:1402: }
    000027AD 33               [ 6] 7129 	inc	sp
    000027AE DD E1            [14] 7130 	pop	ix
    000027B0 C9               [10] 7131 	ret
    000027B1                       7132 ___str_12:
    000027B1 2D                    7133 	.ascii "-"
    000027B2 00                    7134 	.db 0x00
    000027B3                       7135 ___str_13:
    000027B3 3A                    7136 	.ascii ":"
    000027B4 00                    7137 	.db 0x00
    000027B5                       7138 ___str_14:
    000027B5 30                    7139 	.ascii "0"
    000027B6 00                    7140 	.db 0x00
                                   7141 ;E:\Dropbox\FAUSTO\SVILUPPI\MSX\CODE\C\MSXgl\projects\soccerlg/soccerlg_s4_b1.c:1404: void SetTeamsPresentationSpritesPosition(){
                                   7142 ;	---------------------------------
                                   7143 ; Function SetTeamsPresentationSpritesPosition
                                   7144 ; ---------------------------------
    000027B7                       7145 _SetTeamsPresentationSpritesPosition::
    000027B7 DD E5            [15] 7146 	push	ix
    000027B9 DD 21 00 00      [14] 7147 	ld	ix,#0
    000027BD DD 39            [15] 7148 	add	ix,sp
    000027BF F5               [11] 7149 	push	af
    000027C0 F5               [11] 7150 	push	af
                                   7151 ;E:\Dropbox\FAUSTO\SVILUPPI\MSX\CODE\C\MSXgl\projects\soccerlg/soccerlg_s4_b1.c:1405: g_MatchStatus=MATCH_NOT_STARTED;
    000027C1 21r00r00         [10] 7152 	ld	hl, #_g_MatchStatus
                                   7153 ;E:\Dropbox\FAUSTO\SVILUPPI\MSX\CODE\C\MSXgl\projects\soccerlg/soccerlg_s4_b1.c:1406: for(u8 i=0;i<7;i++){
    000027C4 36 00            [10] 7154 	ld	(hl), #0x00
    000027C6 4E               [ 7] 7155 	ld	c, (hl)
    000027C7                       7156 00105$:
    000027C7 79               [ 4] 7157 	ld	a, c
    000027C8 D6 07            [ 7] 7158 	sub	a, #0x07
    000027CA 30 53            [12] 7159 	jr	NC, 00101$
                                   7160 ;E:\Dropbox\FAUSTO\SVILUPPI\MSX\CODE\C\MSXgl\projects\soccerlg/soccerlg_s4_b1.c:1407: g_Players[i].Y=230;
    000027CC 06 00            [ 7] 7161 	ld	b, #0x00
    000027CE 69               [ 4] 7162 	ld	l, c
    000027CF 60               [ 4] 7163 	ld	h, b
    000027D0 29               [11] 7164 	add	hl, hl
    000027D1 29               [11] 7165 	add	hl, hl
    000027D2 09               [11] 7166 	add	hl, bc
    000027D3 29               [11] 7167 	add	hl, hl
    000027D4 29               [11] 7168 	add	hl, hl
    000027D5 09               [11] 7169 	add	hl, bc
    000027D6 EB               [ 4] 7170 	ex	de, hl
    000027D7 21r00r00         [10] 7171 	ld	hl, #_g_Players
    000027DA 19               [11] 7172 	add	hl, de
    000027DB E3               [19] 7173 	ex	(sp), hl
    000027DC E1               [10] 7174 	pop	hl
    000027DD E5               [11] 7175 	push	hl
    000027DE 36 E6            [10] 7176 	ld	(hl), #0xe6
    000027E0 23               [ 6] 7177 	inc	hl
    000027E1 36 00            [10] 7178 	ld	(hl), #0x00
                                   7179 ;E:\Dropbox\FAUSTO\SVILUPPI\MSX\CODE\C\MSXgl\projects\soccerlg/soccerlg_s4_b1.c:1408: g_Players[i].X=72+i*20;
    000027E3 DD 7E FC         [19] 7180 	ld	a, -4 (ix)
    000027E6 C6 02            [ 7] 7181 	add	a, #0x02
    000027E8 DD 77 FE         [19] 7182 	ld	-2 (ix), a
    000027EB DD 7E FD         [19] 7183 	ld	a, -3 (ix)
    000027EE CE 00            [ 7] 7184 	adc	a, #0x00
    000027F0 DD 77 FF         [19] 7185 	ld	-1 (ix), a
    000027F3 59               [ 4] 7186 	ld	e, c
    000027F4 16 00            [ 7] 7187 	ld	d, #0x00
    000027F6 6B               [ 4] 7188 	ld	l, e
    000027F7 62               [ 4] 7189 	ld	h, d
    000027F8 29               [11] 7190 	add	hl, hl
    000027F9 29               [11] 7191 	add	hl, hl
    000027FA 19               [11] 7192 	add	hl, de
    000027FB 29               [11] 7193 	add	hl, hl
    000027FC 29               [11] 7194 	add	hl, hl
    000027FD 11 48 00         [10] 7195 	ld	de, #0x0048
    00002800 19               [11] 7196 	add	hl, de
    00002801 EB               [ 4] 7197 	ex	de, hl
    00002802 DD 6E FE         [19] 7198 	ld	l, -2 (ix)
    00002805 DD 66 FF         [19] 7199 	ld	h, -1 (ix)
    00002808 73               [ 7] 7200 	ld	(hl), e
    00002809 23               [ 6] 7201 	inc	hl
    0000280A 72               [ 7] 7202 	ld	(hl), d
                                   7203 ;E:\Dropbox\FAUSTO\SVILUPPI\MSX\CODE\C\MSXgl\projects\soccerlg/soccerlg_s4_b1.c:1409: g_Players[i].PatternId=PLAYER_POSE_FRONT;
    0000280B E1               [10] 7204 	pop	hl
    0000280C E5               [11] 7205 	push	hl
    0000280D 11 08 00         [10] 7206 	ld	de, #0x0008
    00002810 19               [11] 7207 	add	hl, de
    00002811 36 10            [10] 7208 	ld	(hl), #0x10
                                   7209 ;E:\Dropbox\FAUSTO\SVILUPPI\MSX\CODE\C\MSXgl\projects\soccerlg/soccerlg_s4_b1.c:1410: g_Players[i].TeamId=TEAM_2;
    00002813 E1               [10] 7210 	pop	hl
    00002814 E5               [11] 7211 	push	hl
    00002815 11 09 00         [10] 7212 	ld	de, #0x0009
    00002818 19               [11] 7213 	add	hl, de
    00002819 36 02            [10] 7214 	ld	(hl), #0x02
                                   7215 ;E:\Dropbox\FAUSTO\SVILUPPI\MSX\CODE\C\MSXgl\projects\soccerlg/soccerlg_s4_b1.c:1406: for(u8 i=0;i<7;i++){
    0000281B 0C               [ 4] 7216 	inc	c
    0000281C C3rC7r27         [10] 7217 	jp	00105$
    0000281F                       7218 00101$:
                                   7219 ;E:\Dropbox\FAUSTO\SVILUPPI\MSX\CODE\C\MSXgl\projects\soccerlg/soccerlg_s4_b1.c:1413: for(u8 i=7;i<14;i++){
    0000281F 0E 07            [ 7] 7220 	ld	c, #0x07
    00002821                       7221 00108$:
    00002821 79               [ 4] 7222 	ld	a, c
    00002822 D6 0E            [ 7] 7223 	sub	a, #0x0e
    00002824 30 55            [12] 7224 	jr	NC, 00102$
                                   7225 ;E:\Dropbox\FAUSTO\SVILUPPI\MSX\CODE\C\MSXgl\projects\soccerlg/soccerlg_s4_b1.c:1414: g_Players[i].Y=250;
    00002826 06 00            [ 7] 7226 	ld	b, #0x00
    00002828 69               [ 4] 7227 	ld	l, c
    00002829 60               [ 4] 7228 	ld	h, b
    0000282A 29               [11] 7229 	add	hl, hl
    0000282B 29               [11] 7230 	add	hl, hl
    0000282C 09               [11] 7231 	add	hl, bc
    0000282D 29               [11] 7232 	add	hl, hl
    0000282E 29               [11] 7233 	add	hl, hl
    0000282F 09               [11] 7234 	add	hl, bc
    00002830 11r00r00         [10] 7235 	ld	de, #_g_Players
    00002833 19               [11] 7236 	add	hl, de
    00002834 5D               [ 4] 7237 	ld	e, l
    00002835 54               [ 4] 7238 	ld	d, h
    00002836 36 FA            [10] 7239 	ld	(hl), #0xfa
    00002838 23               [ 6] 7240 	inc	hl
    00002839 36 00            [10] 7241 	ld	(hl), #0x00
                                   7242 ;E:\Dropbox\FAUSTO\SVILUPPI\MSX\CODE\C\MSXgl\projects\soccerlg/soccerlg_s4_b1.c:1415: g_Players[i].X=72+(i-7)*20;
    0000283B 21 02 00         [10] 7243 	ld	hl, #0x0002
    0000283E 19               [11] 7244 	add	hl, de
    0000283F E3               [19] 7245 	ex	(sp), hl
    00002840 79               [ 4] 7246 	ld	a, c
    00002841 06 00            [ 7] 7247 	ld	b, #0x00
    00002843 C6 F9            [ 7] 7248 	add	a, #0xf9
    00002845 6F               [ 4] 7249 	ld	l, a
                                   7250 ;	spillPairReg hl
                                   7251 ;	spillPairReg hl
    00002846 78               [ 4] 7252 	ld	a, b
    00002847 CE FF            [ 7] 7253 	adc	a, #0xff
    00002849 67               [ 4] 7254 	ld	h, a
                                   7255 ;	spillPairReg hl
                                   7256 ;	spillPairReg hl
    0000284A D5               [11] 7257 	push	de
    0000284B 5D               [ 4] 7258 	ld	e, l
    0000284C 54               [ 4] 7259 	ld	d, h
    0000284D 29               [11] 7260 	add	hl, hl
    0000284E 29               [11] 7261 	add	hl, hl
    0000284F 19               [11] 7262 	add	hl, de
    00002850 29               [11] 7263 	add	hl, hl
    00002851 29               [11] 7264 	add	hl, hl
    00002852 D1               [10] 7265 	pop	de
    00002853 7D               [ 4] 7266 	ld	a, l
    00002854 C6 48            [ 7] 7267 	add	a, #0x48
    00002856 47               [ 4] 7268 	ld	b, a
    00002857 7C               [ 4] 7269 	ld	a, h
    00002858 CE 00            [ 7] 7270 	adc	a, #0x00
    0000285A DD 70 FE         [19] 7271 	ld	-2 (ix), b
    0000285D DD 77 FF         [19] 7272 	ld	-1 (ix), a
    00002860 E1               [10] 7273 	pop	hl
    00002861 E5               [11] 7274 	push	hl
    00002862 DD 7E FE         [19] 7275 	ld	a, -2 (ix)
    00002865 77               [ 7] 7276 	ld	(hl), a
    00002866 23               [ 6] 7277 	inc	hl
    00002867 DD 7E FF         [19] 7278 	ld	a, -1 (ix)
    0000286A 77               [ 7] 7279 	ld	(hl), a
                                   7280 ;E:\Dropbox\FAUSTO\SVILUPPI\MSX\CODE\C\MSXgl\projects\soccerlg/soccerlg_s4_b1.c:1416: g_Players[i].PatternId=PLAYER_POSE_BACK;
    0000286B 21 08 00         [10] 7281 	ld	hl, #0x0008
    0000286E 19               [11] 7282 	add	hl, de
    0000286F 36 11            [10] 7283 	ld	(hl), #0x11
                                   7284 ;E:\Dropbox\FAUSTO\SVILUPPI\MSX\CODE\C\MSXgl\projects\soccerlg/soccerlg_s4_b1.c:1417: g_Players[i].TeamId=TEAM_1;
    00002871 21 09 00         [10] 7285 	ld	hl, #0x0009
    00002874 19               [11] 7286 	add	hl, de
    00002875 36 01            [10] 7287 	ld	(hl), #0x01
                                   7288 ;E:\Dropbox\FAUSTO\SVILUPPI\MSX\CODE\C\MSXgl\projects\soccerlg/soccerlg_s4_b1.c:1413: for(u8 i=7;i<14;i++){
    00002877 0C               [ 4] 7289 	inc	c
    00002878 C3r21r28         [10] 7290 	jp	00108$
    0000287B                       7291 00102$:
                                   7292 ;E:\Dropbox\FAUSTO\SVILUPPI\MSX\CODE\C\MSXgl\projects\soccerlg/soccerlg_s4_b1.c:1419: g_Players[REFEREE].Y=FIELD_POS_Y_CENTER;
    0000287B 21 F3 00         [10] 7293 	ld	hl, #0x00f3
    0000287E 22r26r01         [16] 7294 	ld	((_g_Players + 294)), hl
                                   7295 ;E:\Dropbox\FAUSTO\SVILUPPI\MSX\CODE\C\MSXgl\projects\soccerlg/soccerlg_s4_b1.c:1420: g_Players[REFEREE].X=30;
    00002881 2E 1E            [ 7] 7296 	ld	l, #0x1e
    00002883 22r28r01         [16] 7297 	ld	((_g_Players + 296)), hl
                                   7298 ;E:\Dropbox\FAUSTO\SVILUPPI\MSX\CODE\C\MSXgl\projects\soccerlg/soccerlg_s4_b1.c:1421: g_Players[REFEREE].PatternId=PLAYER_POSE_RIGHT;
    00002886 21r2Er01         [10] 7299 	ld	hl, #(_g_Players + 302)
    00002889 36 9D            [10] 7300 	ld	(hl), #0x9d
                                   7301 ;E:\Dropbox\FAUSTO\SVILUPPI\MSX\CODE\C\MSXgl\projects\soccerlg/soccerlg_s4_b1.c:1422: g_Players[REFEREE].TeamId=REFEREE;
    0000288B 21r2Fr01         [10] 7302 	ld	hl, #(_g_Players + 303)
    0000288E 36 0E            [10] 7303 	ld	(hl), #0x0e
                                   7304 ;E:\Dropbox\FAUSTO\SVILUPPI\MSX\CODE\C\MSXgl\projects\soccerlg/soccerlg_s4_b1.c:1423: g_Players[REFEREE].LastPose=0;
    00002890 21r32r01         [10] 7305 	ld	hl, #(_g_Players + 306)
    00002893 36 00            [10] 7306 	ld	(hl), #0x00
                                   7307 ;E:\Dropbox\FAUSTO\SVILUPPI\MSX\CODE\C\MSXgl\projects\soccerlg/soccerlg_s4_b1.c:1424: g_Players[REFEREE].Direction=DIRECTION_RIGHT;
    00002895 21r30r01         [10] 7308 	ld	hl, #(_g_Players + 304)
    00002898 36 03            [10] 7309 	ld	(hl), #0x03
                                   7310 ;E:\Dropbox\FAUSTO\SVILUPPI\MSX\CODE\C\MSXgl\projects\soccerlg/soccerlg_s4_b1.c:1425: g_Players[REFEREE].Role=NO_VALUE;
    0000289A 21r33r01         [10] 7311 	ld	hl, #(_g_Players + 307)
    0000289D 36 FF            [10] 7312 	ld	(hl), #0xff
                                   7313 ;E:\Dropbox\FAUSTO\SVILUPPI\MSX\CODE\C\MSXgl\projects\soccerlg/soccerlg_s4_b1.c:1426: g_Players[REFEREE].Status=PLAYER_STATUS_NONE;
    0000289F 21 00 00         [10] 7314 	ld	hl, #0x0000
    000028A2 22r38r01         [16] 7315 	ld	((_g_Players + 312)), hl
                                   7316 ;E:\Dropbox\FAUSTO\SVILUPPI\MSX\CODE\C\MSXgl\projects\soccerlg/soccerlg_s4_b1.c:1427: ResetPlayersInfo();
    000028A5 CDrD2r03         [17] 7317 	call	_ResetPlayersInfo
                                   7318 ;E:\Dropbox\FAUSTO\SVILUPPI\MSX\CODE\C\MSXgl\projects\soccerlg/soccerlg_s4_b1.c:1428: SetPlayerTarget(REFEREE); 
    000028A8 3E 0E            [ 7] 7319 	ld	a, #0x0e
    000028AA CDr32r29         [17] 7320 	call	_SetPlayerTarget
                                   7321 ;E:\Dropbox\FAUSTO\SVILUPPI\MSX\CODE\C\MSXgl\projects\soccerlg/soccerlg_s4_b1.c:1436: for(u8 i=0;i<14;i++){
    000028AD 0E 00            [ 7] 7322 	ld	c, #0x00
    000028AF                       7323 00111$:
    000028AF 79               [ 4] 7324 	ld	a, c
    000028B0 D6 0E            [ 7] 7325 	sub	a, #0x0e
    000028B2 30 39            [12] 7326 	jr	NC, 00103$
                                   7327 ;E:\Dropbox\FAUSTO\SVILUPPI\MSX\CODE\C\MSXgl\projects\soccerlg/soccerlg_s4_b1.c:1437: g_Players[i].AiTickCounter=0;
    000028B4 06 00            [ 7] 7328 	ld	b, #0x00
    000028B6 69               [ 4] 7329 	ld	l, c
    000028B7 60               [ 4] 7330 	ld	h, b
    000028B8 29               [11] 7331 	add	hl, hl
    000028B9 29               [11] 7332 	add	hl, hl
    000028BA 09               [11] 7333 	add	hl, bc
    000028BB 29               [11] 7334 	add	hl, hl
    000028BC 29               [11] 7335 	add	hl, hl
    000028BD 09               [11] 7336 	add	hl, bc
    000028BE EB               [ 4] 7337 	ex	de, hl
    000028BF 21r00r00         [10] 7338 	ld	hl, #_g_Players
    000028C2 19               [11] 7339 	add	hl, de
    000028C3 EB               [ 4] 7340 	ex	de, hl
    000028C4 21 14 00         [10] 7341 	ld	hl, #0x0014
    000028C7 19               [11] 7342 	add	hl, de
    000028C8 36 00            [10] 7343 	ld	(hl), #0x00
                                   7344 ;E:\Dropbox\FAUSTO\SVILUPPI\MSX\CODE\C\MSXgl\projects\soccerlg/soccerlg_s4_b1.c:1438: g_Players[i].Role = k_PlayerRoles[i % 7];
    000028CA 21 0D 00         [10] 7345 	ld	hl, #0x000d
    000028CD 19               [11] 7346 	add	hl, de
    000028CE DD 75 FE         [19] 7347 	ld	-2 (ix), l
    000028D1 DD 74 FF         [19] 7348 	ld	-1 (ix), h
    000028D4 69               [ 4] 7349 	ld	l, c
                                   7350 ;	spillPairReg hl
                                   7351 ;	spillPairReg hl
    000028D5 26 00            [ 7] 7352 	ld	h, #0x00
                                   7353 ;	spillPairReg hl
                                   7354 ;	spillPairReg hl
    000028D7 C5               [11] 7355 	push	bc
    000028D8 11 07 00         [10] 7356 	ld	de, #0x0007
    000028DB CDr00r00         [17] 7357 	call	__modsint
    000028DE C1               [10] 7358 	pop	bc
    000028DF 21r0Ar29         [10] 7359 	ld	hl, #_SetTeamsPresentationSpritesPosition_k_PlayerRoles_65537_1594
    000028E2 19               [11] 7360 	add	hl, de
    000028E3 7E               [ 7] 7361 	ld	a, (hl)
    000028E4 D1               [10] 7362 	pop	de
    000028E5 E1               [10] 7363 	pop	hl
    000028E6 E5               [11] 7364 	push	hl
    000028E7 D5               [11] 7365 	push	de
    000028E8 77               [ 7] 7366 	ld	(hl), a
                                   7367 ;E:\Dropbox\FAUSTO\SVILUPPI\MSX\CODE\C\MSXgl\projects\soccerlg/soccerlg_s4_b1.c:1436: for(u8 i=0;i<14;i++){
    000028E9 0C               [ 4] 7368 	inc	c
    000028EA C3rAFr28         [10] 7369 	jp	00111$
    000028ED                       7370 00103$:
                                   7371 ;E:\Dropbox\FAUSTO\SVILUPPI\MSX\CODE\C\MSXgl\projects\soccerlg/soccerlg_s4_b1.c:1440: g_Ball.X=FIELD_POS_X_CENTER;
    000028ED 21 78 00         [10] 7372 	ld	hl, #0x0078
    000028F0 22r02r00         [16] 7373 	ld	((_g_Ball + 2)), hl
                                   7374 ;E:\Dropbox\FAUSTO\SVILUPPI\MSX\CODE\C\MSXgl\projects\soccerlg/soccerlg_s4_b1.c:1441: g_Ball.Y=FIELD_POS_Y_CENTER;
    000028F3 2E F3            [ 7] 7375 	ld	l, #0xf3
    000028F5 22r00r00         [16] 7376 	ld	(_g_Ball), hl
                                   7377 ;E:\Dropbox\FAUSTO\SVILUPPI\MSX\CODE\C\MSXgl\projects\soccerlg/soccerlg_s4_b1.c:1442: g_Ball.PreviousY=g_Ball.Y;
    000028F8 ED 4Br00r00      [20] 7378 	ld	bc, (#_g_Ball + 0)
    000028FC ED 43r07r00      [20] 7379 	ld	((_g_Ball + 7)), bc
                                   7380 ;E:\Dropbox\FAUSTO\SVILUPPI\MSX\CODE\C\MSXgl\projects\soccerlg/soccerlg_s4_b1.c:1443: ResetBallInfo(true);
    00002900 3E 01            [ 7] 7381 	ld	a, #0x01
    00002902 CDr11r29         [17] 7382 	call	_ResetBallInfo
                                   7383 ;E:\Dropbox\FAUSTO\SVILUPPI\MSX\CODE\C\MSXgl\projects\soccerlg/soccerlg_s4_b1.c:1444: }
    00002905 DD F9            [10] 7384 	ld	sp, ix
    00002907 DD E1            [14] 7385 	pop	ix
    00002909 C9               [10] 7386 	ret
    0000290A                       7387 _SetTeamsPresentationSpritesPosition_k_PlayerRoles_65537_1594:
    0000290A 00                    7388 	.db #0x00	; 0
    0000290B 01                    7389 	.db #0x01	; 1
    0000290C 04                    7390 	.db #0x04	; 4
    0000290D 03                    7391 	.db #0x03	; 3
    0000290E 02                    7392 	.db #0x02	; 2
    0000290F 05                    7393 	.db #0x05	; 5
    00002910 06                    7394 	.db #0x06	; 6
                                   7395 ;E:\Dropbox\FAUSTO\SVILUPPI\MSX\CODE\C\MSXgl\projects\soccerlg/soccerlg_s4_b1.c:1446: void ResetBallInfo(bool resetPossessionPlayer){
                                   7396 ;	---------------------------------
                                   7397 ; Function ResetBallInfo
                                   7398 ; ---------------------------------
    00002911                       7399 _ResetBallInfo::
    00002911 4F               [ 4] 7400 	ld	c, a
                                   7401 ;E:\Dropbox\FAUSTO\SVILUPPI\MSX\CODE\C\MSXgl\projects\soccerlg/soccerlg_s4_b1.c:1447: g_Ball.PreviousY=g_Ball.Y;
    00002912 ED 5Br00r00      [20] 7402 	ld	de, (#_g_Ball + 0)
    00002916 ED 53r07r00      [20] 7403 	ld	((_g_Ball + 7)), de
                                   7404 ;E:\Dropbox\FAUSTO\SVILUPPI\MSX\CODE\C\MSXgl\projects\soccerlg/soccerlg_s4_b1.c:1448: g_Ball.KickMoveState=NO_VALUE;
    0000291A 21r0Dr00         [10] 7405 	ld	hl, #(_g_Ball + 13)
    0000291D 36 FF            [10] 7406 	ld	(hl), #0xff
                                   7407 ;E:\Dropbox\FAUSTO\SVILUPPI\MSX\CODE\C\MSXgl\projects\soccerlg/soccerlg_s4_b1.c:1449: g_Ball.Size=1;
    0000291F 21r04r00         [10] 7408 	ld	hl, #(_g_Ball + 4)
    00002922 36 01            [10] 7409 	ld	(hl), #0x01
                                   7410 ;E:\Dropbox\FAUSTO\SVILUPPI\MSX\CODE\C\MSXgl\projects\soccerlg/soccerlg_s4_b1.c:1450: g_Ball.Direction=DIRECTION_NONE;
    00002924 21r05r00         [10] 7411 	ld	hl, #(_g_Ball + 5)
    00002927 36 00            [10] 7412 	ld	(hl), #0x00
                                   7413 ;E:\Dropbox\FAUSTO\SVILUPPI\MSX\CODE\C\MSXgl\projects\soccerlg/soccerlg_s4_b1.c:1451: if(resetPossessionPlayer){
    00002929 79               [ 4] 7414 	ld	a, c
    0000292A B7               [ 4] 7415 	or	a, a
    0000292B C8               [11] 7416 	ret	Z
                                   7417 ;E:\Dropbox\FAUSTO\SVILUPPI\MSX\CODE\C\MSXgl\projects\soccerlg/soccerlg_s4_b1.c:1452: g_Ball.PossessionPlayerId=NO_VALUE;
    0000292C 21r06r00         [10] 7418 	ld	hl, #(_g_Ball + 6)
    0000292F 36 FF            [10] 7419 	ld	(hl), #0xff
                                   7420 ;E:\Dropbox\FAUSTO\SVILUPPI\MSX\CODE\C\MSXgl\projects\soccerlg/soccerlg_s4_b1.c:1454: }
    00002931 C9               [10] 7421 	ret
                                   7422 ;E:\Dropbox\FAUSTO\SVILUPPI\MSX\CODE\C\MSXgl\projects\soccerlg/soccerlg_s4_b1.c:1456: void SetPlayerTarget(u8 playerId){
                                   7423 ;	---------------------------------
                                   7424 ; Function SetPlayerTarget
                                   7425 ; ---------------------------------
    00002932                       7426 _SetPlayerTarget::
    00002932 DD E5            [15] 7427 	push	ix
    00002934 DD 21 00 00      [14] 7428 	ld	ix,#0
    00002938 DD 39            [15] 7429 	add	ix,sp
    0000293A 21 F1 FF         [10] 7430 	ld	hl, #-15
    0000293D 39               [11] 7431 	add	hl, sp
    0000293E F9               [ 6] 7432 	ld	sp, hl
    0000293F DD 77 FF         [19] 7433 	ld	-1 (ix), a
                                   7434 ;E:\Dropbox\FAUSTO\SVILUPPI\MSX\CODE\C\MSXgl\projects\soccerlg/soccerlg_s4_b1.c:1457: if(g_FieldScrollingActionInProgress!=NO_VALUE && g_MatchStatus!=MATCH_BEFORE_KICK_OFF){
    00002942 3Ar00r00         [13] 7435 	ld	a, (_g_MatchStatus+0)
    00002945 3D               [ 4] 7436 	dec	a
    00002946 3E 01            [ 7] 7437 	ld	a, #0x01
    00002948 28 01            [12] 7438 	jr	Z, 00188$
    0000294A AF               [ 4] 7439 	xor	a, a
    0000294B                       7440 00188$:
    0000294B DD 77 FE         [19] 7441 	ld	-2 (ix), a
    0000294E 3Ar00r00         [13] 7442 	ld	a, (_g_FieldScrollingActionInProgress+0)
    00002951 3C               [ 4] 7443 	inc	a
    00002952 28 07            [12] 7444 	jr	Z, 00102$
    00002954 DD CB FE 46      [20] 7445 	bit	0, -2 (ix)
                                   7446 ;E:\Dropbox\FAUSTO\SVILUPPI\MSX\CODE\C\MSXgl\projects\soccerlg/soccerlg_s4_b1.c:1458: return;
    00002958 CArB7r2A         [10] 7447 	jp	Z,00121$
    0000295B                       7448 00102$:
                                   7449 ;E:\Dropbox\FAUSTO\SVILUPPI\MSX\CODE\C\MSXgl\projects\soccerlg/soccerlg_s4_b1.c:1460: switch(g_MatchStatus){
    0000295B DD 7E FE         [19] 7450 	ld	a, -2 (ix)
    0000295E B7               [ 4] 7451 	or	a, a
    0000295F CArB7r2A         [10] 7452 	jp	Z, 00121$
                                   7453 ;E:\Dropbox\FAUSTO\SVILUPPI\MSX\CODE\C\MSXgl\projects\soccerlg/soccerlg_s4_b1.c:1482: if(g_Players[playerId].TeamId==REFEREE){
    00002962 01r00r00         [10] 7454 	ld	bc, #_g_Players+0
    00002965 DD 5E FF         [19] 7455 	ld	e, -1 (ix)
    00002968 16 00            [ 7] 7456 	ld	d, #0x00
    0000296A 6B               [ 4] 7457 	ld	l, e
    0000296B 62               [ 4] 7458 	ld	h, d
    0000296C 29               [11] 7459 	add	hl, hl
    0000296D 29               [11] 7460 	add	hl, hl
    0000296E 19               [11] 7461 	add	hl, de
    0000296F 29               [11] 7462 	add	hl, hl
    00002970 29               [11] 7463 	add	hl, hl
    00002971 19               [11] 7464 	add	hl, de
    00002972 09               [11] 7465 	add	hl, bc
    00002973 EB               [ 4] 7466 	ex	de, hl
    00002974 D5               [11] 7467 	push	de
    00002975 FD E1            [14] 7468 	pop	iy
    00002977 FD 7E 09         [19] 7469 	ld	a, 9 (iy)
    0000297A DD 77 F3         [19] 7470 	ld	-13 (ix), a
                                   7471 ;E:\Dropbox\FAUSTO\SVILUPPI\MSX\CODE\C\MSXgl\projects\soccerlg/soccerlg_s4_b1.c:1484: g_Players[playerId].TargetX=FIELD_POS_X_CENTER - 30; 
    0000297D 21 10 00         [10] 7472 	ld	hl, #0x0010
    00002980 19               [11] 7473 	add	hl, de
    00002981 DD 75 F4         [19] 7474 	ld	-12 (ix), l
    00002984 DD 74 F5         [19] 7475 	ld	-11 (ix), h
                                   7476 ;E:\Dropbox\FAUSTO\SVILUPPI\MSX\CODE\C\MSXgl\projects\soccerlg/soccerlg_s4_b1.c:1485: g_Players[playerId].TargetY=FIELD_POS_Y_CENTER - 40; 
    00002987 21 0E 00         [10] 7477 	ld	hl, #0x000e
    0000298A 19               [11] 7478 	add	hl, de
    0000298B DD 75 F6         [19] 7479 	ld	-10 (ix), l
    0000298E DD 74 F7         [19] 7480 	ld	-9 (ix), h
                                   7481 ;E:\Dropbox\FAUSTO\SVILUPPI\MSX\CODE\C\MSXgl\projects\soccerlg/soccerlg_s4_b1.c:1482: if(g_Players[playerId].TeamId==REFEREE){
    00002991 DD 7E F3         [19] 7482 	ld	a, -13 (ix)
    00002994 D6 0E            [ 7] 7483 	sub	a, #0x0e
    00002996 20 19            [12] 7484 	jr	NZ, 00118$
                                   7485 ;E:\Dropbox\FAUSTO\SVILUPPI\MSX\CODE\C\MSXgl\projects\soccerlg/soccerlg_s4_b1.c:1484: g_Players[playerId].TargetX=FIELD_POS_X_CENTER - 30; 
    00002998 DD 6E F4         [19] 7486 	ld	l, -12 (ix)
    0000299B DD 66 F5         [19] 7487 	ld	h, -11 (ix)
    0000299E 36 5A            [10] 7488 	ld	(hl), #0x5a
    000029A0 23               [ 6] 7489 	inc	hl
    000029A1 36 00            [10] 7490 	ld	(hl), #0x00
                                   7491 ;E:\Dropbox\FAUSTO\SVILUPPI\MSX\CODE\C\MSXgl\projects\soccerlg/soccerlg_s4_b1.c:1485: g_Players[playerId].TargetY=FIELD_POS_Y_CENTER - 40; 
    000029A3 DD 6E F6         [19] 7492 	ld	l, -10 (ix)
    000029A6 DD 66 F7         [19] 7493 	ld	h, -9 (ix)
    000029A9 36 CB            [10] 7494 	ld	(hl), #0xcb
    000029AB 23               [ 6] 7495 	inc	hl
    000029AC 36 00            [10] 7496 	ld	(hl), #0x00
    000029AE C3rB7r2A         [10] 7497 	jp	00121$
    000029B1                       7498 00118$:
                                   7499 ;E:\Dropbox\FAUSTO\SVILUPPI\MSX\CODE\C\MSXgl\projects\soccerlg/soccerlg_s4_b1.c:1488: u8 role = g_Players[playerId].Role;
    000029B1 21 0D 00         [10] 7500 	ld	hl, #13
    000029B4 19               [11] 7501 	add	hl, de
    000029B5 7E               [ 7] 7502 	ld	a, (hl)
    000029B6 DD 77 F8         [19] 7503 	ld	-8 (ix), a
                                   7504 ;E:\Dropbox\FAUSTO\SVILUPPI\MSX\CODE\C\MSXgl\projects\soccerlg/soccerlg_s4_b1.c:1489: if (role > 6) role = 0; // Safety
    000029B9 3E 06            [ 7] 7505 	ld	a, #0x06
    000029BB DD 96 F8         [19] 7506 	sub	a, -8 (ix)
    000029BE 30 04            [12] 7507 	jr	NC, 00106$
    000029C0 DD 36 F8 00      [19] 7508 	ld	-8 (ix), #0x00
    000029C4                       7509 00106$:
                                   7510 ;E:\Dropbox\FAUSTO\SVILUPPI\MSX\CODE\C\MSXgl\projects\soccerlg/soccerlg_s4_b1.c:1491: bool isTeam1 = (g_Players[playerId].TeamId == TEAM_1);
    000029C4 DD 7E F3         [19] 7511 	ld	a, -13 (ix)
    000029C7 3D               [ 4] 7512 	dec	a
    000029C8 3E 01            [ 7] 7513 	ld	a, #0x01
    000029CA 28 01            [12] 7514 	jr	Z, 00193$
    000029CC AF               [ 4] 7515 	xor	a, a
    000029CD                       7516 00193$:
    000029CD DD 77 F9         [19] 7517 	ld	-7 (ix), a
                                   7518 ;E:\Dropbox\FAUSTO\SVILUPPI\MSX\CODE\C\MSXgl\projects\soccerlg/soccerlg_s4_b1.c:1494: u16 tx = k_KO_X[role];
    000029D0 01rBCr2A         [10] 7519 	ld	bc, #_SetPlayerTarget_k_KO_X_196608_1604+0
    000029D3 DD 6E F8         [19] 7520 	ld	l, -8 (ix)
    000029D6 26 00            [ 7] 7521 	ld	h, #0x00
    000029D8 09               [11] 7522 	add	hl, bc
    000029D9 7E               [ 7] 7523 	ld	a, (hl)
    000029DA DD 77 FE         [19] 7524 	ld	-2 (ix), a
    000029DD DD 77 FA         [19] 7525 	ld	-6 (ix), a
    000029E0 DD 36 FB 00      [19] 7526 	ld	-5 (ix), #0x00
                                   7527 ;E:\Dropbox\FAUSTO\SVILUPPI\MSX\CODE\C\MSXgl\projects\soccerlg/soccerlg_s4_b1.c:1495: u16 ty = isTeam1 ? k_KO_Y_T1[role] : k_KO_Y_T2[role];
    000029E4 DD 7E F8         [19] 7528 	ld	a, -8 (ix)
    000029E7 DD 77 FD         [19] 7529 	ld	-3 (ix), a
    000029EA DD 36 FE 00      [19] 7530 	ld	-2 (ix), #0x00
    000029EE DD CB FD 26      [23] 7531 	sla	-3 (ix)
    000029F2 DD CB FE 16      [23] 7532 	rl	-2 (ix)
    000029F6 DD 7E F9         [19] 7533 	ld	a, -7 (ix)
    000029F9 B7               [ 4] 7534 	or	a, a
    000029FA 28 16            [12] 7535 	jr	Z, 00123$
    000029FC 01rC3r2A         [10] 7536 	ld	bc, #_SetPlayerTarget_k_KO_Y_T1_196608_1604+0
    000029FF DD 6E FD         [19] 7537 	ld	l, -3 (ix)
    00002A02 DD 66 FE         [19] 7538 	ld	h, -2 (ix)
    00002A05 09               [11] 7539 	add	hl, bc
    00002A06 7E               [ 7] 7540 	ld	a, (hl)
    00002A07 DD 77 F1         [19] 7541 	ld	-15 (ix), a
    00002A0A 23               [ 6] 7542 	inc	hl
    00002A0B 7E               [ 7] 7543 	ld	a, (hl)
    00002A0C DD 77 F2         [19] 7544 	ld	-14 (ix), a
    00002A0F C3r27r2A         [10] 7545 	jp	00124$
    00002A12                       7546 00123$:
    00002A12 DD 7E FD         [19] 7547 	ld	a, -3 (ix)
    00002A15 C6rD1            [ 7] 7548 	add	a, #<(_SetPlayerTarget_k_KO_Y_T2_196608_1604)
    00002A17 4F               [ 4] 7549 	ld	c, a
    00002A18 DD 7E FE         [19] 7550 	ld	a, -2 (ix)
    00002A1B CEs2A            [ 7] 7551 	adc	a, #>(_SetPlayerTarget_k_KO_Y_T2_196608_1604)
    00002A1D 47               [ 4] 7552 	ld	b, a
    00002A1E 0A               [ 7] 7553 	ld	a, (bc)
    00002A1F DD 77 F1         [19] 7554 	ld	-15 (ix), a
    00002A22 03               [ 6] 7555 	inc	bc
    00002A23 0A               [ 7] 7556 	ld	a, (bc)
    00002A24 DD 77 F2         [19] 7557 	ld	-14 (ix), a
    00002A27                       7558 00124$:
    00002A27 DD 7E F1         [19] 7559 	ld	a, -15 (ix)
    00002A2A DD 77 FC         [19] 7560 	ld	-4 (ix), a
    00002A2D DD 7E F2         [19] 7561 	ld	a, -14 (ix)
    00002A30 DD 77 FD         [19] 7562 	ld	-3 (ix), a
                                   7563 ;E:\Dropbox\FAUSTO\SVILUPPI\MSX\CODE\C\MSXgl\projects\soccerlg/soccerlg_s4_b1.c:1498: if (!isTeam1 && role == PLAYER_ROLE_RIGHT_HALFFIELDER) {
    00002A33 DD 7E F9         [19] 7564 	ld	a, -7 (ix)
    00002A36 B7               [ 4] 7565 	or	a, a
    00002A37 20 0F            [12] 7566 	jr	NZ, 00108$
    00002A39 DD 7E F8         [19] 7567 	ld	a, -8 (ix)
    00002A3C D6 04            [ 7] 7568 	sub	a, #0x04
    00002A3E 20 08            [12] 7569 	jr	NZ, 00108$
                                   7570 ;E:\Dropbox\FAUSTO\SVILUPPI\MSX\CODE\C\MSXgl\projects\soccerlg/soccerlg_s4_b1.c:1499: tx = FIELD_POS_X_RIGHT - 116; 
    00002A40 DD 36 FA 52      [19] 7571 	ld	-6 (ix), #0x52
    00002A44 DD 36 FB 00      [19] 7572 	ld	-5 (ix), #0
    00002A48                       7573 00108$:
                                   7574 ;E:\Dropbox\FAUSTO\SVILUPPI\MSX\CODE\C\MSXgl\projects\soccerlg/soccerlg_s4_b1.c:1503: if ((role == PLAYER_ROLE_LEFT_HALFFIELDER || role == PLAYER_ROLE_RIGHT_HALFFIELDER) &&
    00002A48 DD 7E F8         [19] 7575 	ld	a, -8 (ix)
    00002A4B D6 03            [ 7] 7576 	sub	a, #0x03
    00002A4D 3E 01            [ 7] 7577 	ld	a, #0x01
    00002A4F 28 01            [12] 7578 	jr	Z, 00198$
    00002A51 AF               [ 4] 7579 	xor	a, a
    00002A52                       7580 00198$:
    00002A52 DD 77 FE         [19] 7581 	ld	-2 (ix), a
    00002A55 B7               [ 4] 7582 	or	a, a
    00002A56 20 07            [12] 7583 	jr	NZ, 00116$
    00002A58 DD 7E F8         [19] 7584 	ld	a, -8 (ix)
    00002A5B D6 04            [ 7] 7585 	sub	a, #0x04
    00002A5D 20 3A            [12] 7586 	jr	NZ, 00114$
    00002A5F                       7587 00116$:
                                   7588 ;E:\Dropbox\FAUSTO\SVILUPPI\MSX\CODE\C\MSXgl\projects\soccerlg/soccerlg_s4_b1.c:1504: g_RestartKickTeamId == g_Players[playerId].TeamId) 
    00002A5F 3Ar00r00         [13] 7589 	ld	a, (_g_RestartKickTeamId+0)
    00002A62 DD 96 F3         [19] 7590 	sub	a, -13 (ix)
    00002A65 20 32            [12] 7591 	jr	NZ, 00114$
                                   7592 ;E:\Dropbox\FAUSTO\SVILUPPI\MSX\CODE\C\MSXgl\projects\soccerlg/soccerlg_s4_b1.c:1506: ty = isTeam1 ? FIELD_POS_Y_CENTER : (FIELD_POS_Y_CENTER - 10);
    00002A67 DD 7E F9         [19] 7593 	ld	a, -7 (ix)
    00002A6A B7               [ 4] 7594 	or	a, a
    00002A6B 28 0B            [12] 7595 	jr	Z, 00125$
    00002A6D DD 36 FC F3      [19] 7596 	ld	-4 (ix), #0xf3
    00002A71 DD 36 FD 00      [19] 7597 	ld	-3 (ix), #0
    00002A75 C3r80r2A         [10] 7598 	jp	00126$
    00002A78                       7599 00125$:
    00002A78 DD 36 FC E9      [19] 7600 	ld	-4 (ix), #0xe9
    00002A7C DD 36 FD 00      [19] 7601 	ld	-3 (ix), #0
    00002A80                       7602 00126$:
                                   7603 ;E:\Dropbox\FAUSTO\SVILUPPI\MSX\CODE\C\MSXgl\projects\soccerlg/soccerlg_s4_b1.c:1507: if (role == PLAYER_ROLE_LEFT_HALFFIELDER) tx = FIELD_POS_X_CENTER - 7;
    00002A80 DD 7E FE         [19] 7604 	ld	a, -2 (ix)
    00002A83 B7               [ 4] 7605 	or	a, a
    00002A84 28 0B            [12] 7606 	jr	Z, 00111$
    00002A86 DD 36 FA 71      [19] 7607 	ld	-6 (ix), #0x71
    00002A8A DD 36 FB 00      [19] 7608 	ld	-5 (ix), #0
    00002A8E C3r99r2A         [10] 7609 	jp	00114$
    00002A91                       7610 00111$:
                                   7611 ;E:\Dropbox\FAUSTO\SVILUPPI\MSX\CODE\C\MSXgl\projects\soccerlg/soccerlg_s4_b1.c:1508: else tx = FIELD_POS_X_CENTER + 7;
    00002A91 DD 36 FA 7F      [19] 7612 	ld	-6 (ix), #0x7f
    00002A95 DD 36 FB 00      [19] 7613 	ld	-5 (ix), #0
    00002A99                       7614 00114$:
                                   7615 ;E:\Dropbox\FAUSTO\SVILUPPI\MSX\CODE\C\MSXgl\projects\soccerlg/soccerlg_s4_b1.c:1511: g_Players[playerId].TargetX = tx;
    00002A99 DD 6E F4         [19] 7616 	ld	l, -12 (ix)
    00002A9C DD 66 F5         [19] 7617 	ld	h, -11 (ix)
    00002A9F DD 7E FA         [19] 7618 	ld	a, -6 (ix)
    00002AA2 77               [ 7] 7619 	ld	(hl), a
    00002AA3 23               [ 6] 7620 	inc	hl
    00002AA4 DD 7E FB         [19] 7621 	ld	a, -5 (ix)
    00002AA7 77               [ 7] 7622 	ld	(hl), a
                                   7623 ;E:\Dropbox\FAUSTO\SVILUPPI\MSX\CODE\C\MSXgl\projects\soccerlg/soccerlg_s4_b1.c:1512: g_Players[playerId].TargetY = ty;
    00002AA8 DD 6E F6         [19] 7624 	ld	l, -10 (ix)
    00002AAB DD 66 F7         [19] 7625 	ld	h, -9 (ix)
    00002AAE DD 7E FC         [19] 7626 	ld	a, -4 (ix)
    00002AB1 77               [ 7] 7627 	ld	(hl), a
    00002AB2 23               [ 6] 7628 	inc	hl
    00002AB3 DD 7E FD         [19] 7629 	ld	a, -3 (ix)
    00002AB6 77               [ 7] 7630 	ld	(hl), a
                                   7631 ;E:\Dropbox\FAUSTO\SVILUPPI\MSX\CODE\C\MSXgl\projects\soccerlg/soccerlg_s4_b1.c:1516: }
    00002AB7                       7632 00121$:
                                   7633 ;E:\Dropbox\FAUSTO\SVILUPPI\MSX\CODE\C\MSXgl\projects\soccerlg/soccerlg_s4_b1.c:1517: }
    00002AB7 DD F9            [10] 7634 	ld	sp, ix
    00002AB9 DD E1            [14] 7635 	pop	ix
    00002ABB C9               [10] 7636 	ret
    00002ABC                       7637 _SetPlayerTarget_k_KO_X_196608_1604:
    00002ABC 78                    7638 	.db #0x78	; 120	'x'
    00002ABD 28                    7639 	.db #0x28	; 40
    00002ABE C6                    7640 	.db #0xc6	; 198
    00002ABF 8C                    7641 	.db #0x8c	; 140
    00002AC0 62                    7642 	.db #0x62	; 98	'b'
    00002AC1 28                    7643 	.db #0x28	; 40
    00002AC2 C6                    7644 	.db #0xc6	; 198
    00002AC3                       7645 _SetPlayerTarget_k_KO_Y_T1_196608_1604:
    00002AC3 A8 01                 7646 	.dw #0x01a8
    00002AC5 76 01                 7647 	.dw #0x0176
    00002AC7 76 01                 7648 	.dw #0x0176
    00002AC9 44 01                 7649 	.dw #0x0144
    00002ACB 44 01                 7650 	.dw #0x0144
    00002ACD 1C 01                 7651 	.dw #0x011c
    00002ACF 1C 01                 7652 	.dw #0x011c
    00002AD1                       7653 _SetPlayerTarget_k_KO_Y_T2_196608_1604:
    00002AD1 32 00                 7654 	.dw #0x0032
    00002AD3 82 00                 7655 	.dw #0x0082
    00002AD5 82 00                 7656 	.dw #0x0082
    00002AD7 B4 00                 7657 	.dw #0x00b4
    00002AD9 B4 00                 7658 	.dw #0x00b4
    00002ADB DC 00                 7659 	.dw #0x00dc
    00002ADD DC 00                 7660 	.dw #0x00dc
                                   7661 ;E:\Dropbox\FAUSTO\SVILUPPI\MSX\CODE\C\MSXgl\projects\soccerlg/soccerlg_s4_b1.c:1519: void ShowField(){
                                   7662 ;	---------------------------------
                                   7663 ; Function ShowField
                                   7664 ; ---------------------------------
    00002ADF                       7665 _ShowField::
    00002ADF DD E5            [15] 7666 	push	ix
    00002AE1 DD 21 00 00      [14] 7667 	ld	ix,#0
    00002AE5 DD 39            [15] 7668 	add	ix,sp
    00002AE7 F5               [11] 7669 	push	af
    00002AE8 F5               [11] 7670 	push	af
                                   7671 ;E:\Dropbox\FAUSTO\SVILUPPI\MSX\CODE\C\MSXgl\projects\soccerlg/soccerlg_s4_b1.c:1521: u16 tileId=0;
    00002AE9 01 00 00         [10] 7672 	ld	bc, #0x0000
                                   7673 ;E:\Dropbox\FAUSTO\SVILUPPI\MSX\CODE\C\MSXgl\projects\soccerlg/soccerlg_s4_b1.c:1523: for (u8 y=0;y<64;y++){
    00002AEC DD 36 FE 00      [19] 7674 	ld	-2 (ix), #0x00
    00002AF0                       7675 00116$:
    00002AF0 DD 7E FE         [19] 7676 	ld	a, -2 (ix)
    00002AF3 D6 40            [ 7] 7677 	sub	a, #0x40
    00002AF5 30 48            [12] 7678 	jr	NC, 00102$
                                   7679 ;E:\Dropbox\FAUSTO\SVILUPPI\MSX\CODE\C\MSXgl\projects\soccerlg/soccerlg_s4_b1.c:1524: for (u8 x=0;x<32;x++){
    00002AF7 DD 36 FF 00      [19] 7680 	ld	-1 (ix), #0x00
    00002AFB                       7681 00113$:
    00002AFB DD 7E FF         [19] 7682 	ld	a, -1 (ix)
    00002AFE D6 20            [ 7] 7683 	sub	a, #0x20
    00002B00 30 37            [12] 7684 	jr	NC, 00139$
                                   7685 ;E:\Dropbox\FAUSTO\SVILUPPI\MSX\CODE\C\MSXgl\projects\soccerlg/soccerlg_s4_b1.c:1525: V9_Poke16(V9_CellAddrP1B(x,y), tileId++);
    00002B02 33               [ 6] 7686 	inc	sp
    00002B03 33               [ 6] 7687 	inc	sp
    00002B04 C5               [11] 7688 	push	bc
    00002B05 03               [ 6] 7689 	inc	bc
                                   7690 ;E:/Dropbox/FAUSTO/SVILUPPI/MSX/CODE/C/MSXgl/engine/src/v9990.h:1437: inline u32 V9_CellAddrP1B(u8 x, u8 y) { return V9_P1_PNT_B + (((64 * y) + x) * 2); }
    00002B06 DD 6E FE         [19] 7691 	ld	l, -2 (ix)
                                   7692 ;	spillPairReg hl
                                   7693 ;	spillPairReg hl
    00002B09 26 00            [ 7] 7694 	ld	h, #0x00
                                   7695 ;	spillPairReg hl
                                   7696 ;	spillPairReg hl
    00002B0B 29               [11] 7697 	add	hl, hl
    00002B0C 29               [11] 7698 	add	hl, hl
    00002B0D 29               [11] 7699 	add	hl, hl
    00002B0E 29               [11] 7700 	add	hl, hl
    00002B0F 29               [11] 7701 	add	hl, hl
    00002B10 29               [11] 7702 	add	hl, hl
    00002B11 DD 5E FF         [19] 7703 	ld	e, -1 (ix)
    00002B14 16 00            [ 7] 7704 	ld	d, #0x00
    00002B16 19               [11] 7705 	add	hl, de
    00002B17 29               [11] 7706 	add	hl, hl
    00002B18 7C               [ 4] 7707 	ld	a, h
    00002B19 07               [ 4] 7708 	rlca
    00002B1A 9F               [ 4] 7709 	sbc	a, a
    00002B1B 5F               [ 4] 7710 	ld	e, a
    00002B1C 57               [ 4] 7711 	ld	d, a
    00002B1D 7C               [ 4] 7712 	ld	a, h
    00002B1E C6 E0            [ 7] 7713 	add	a, #0xe0
    00002B20 67               [ 4] 7714 	ld	h, a
                                   7715 ;	spillPairReg hl
                                   7716 ;	spillPairReg hl
    00002B21 7B               [ 4] 7717 	ld	a, e
    00002B22 CE 07            [ 7] 7718 	adc	a, #0x07
    00002B24 5F               [ 4] 7719 	ld	e, a
    00002B25 30 01            [12] 7720 	jr	NC, 00184$
    00002B27 14               [ 4] 7721 	inc	d
    00002B28                       7722 00184$:
                                   7723 ;E:/Dropbox/FAUSTO/SVILUPPI/MSX/CODE/C/MSXgl/engine/src/v9990.h:396: inline void V9_Poke16(u32 addr, u16 val) { V9_SetWriteAddress(addr); V9_Poke16_CurrentAddr(val); }
    00002B28 C5               [11] 7724 	push	bc
    00002B29 EB               [ 4] 7725 	ex	de, hl
    00002B2A CDr00r00         [17] 7726 	call	_V9_SetWriteAddress
    00002B2D C1               [10] 7727 	pop	bc
    00002B2E E1               [10] 7728 	pop	hl
    00002B2F E5               [11] 7729 	push	hl
    00002B30 CDr00r00         [17] 7730 	call	_V9_Poke16_CurrentAddr
                                   7731 ;E:\Dropbox\FAUSTO\SVILUPPI\MSX\CODE\C\MSXgl\projects\soccerlg/soccerlg_s4_b1.c:1524: for (u8 x=0;x<32;x++){
    00002B33 DD 34 FF         [23] 7732 	inc	-1 (ix)
    00002B36 C3rFBr2A         [10] 7733 	jp	00113$
    00002B39                       7734 00139$:
                                   7735 ;E:\Dropbox\FAUSTO\SVILUPPI\MSX\CODE\C\MSXgl\projects\soccerlg/soccerlg_s4_b1.c:1523: for (u8 y=0;y<64;y++){
    00002B39 DD 34 FE         [23] 7736 	inc	-2 (ix)
    00002B3C C3rF0r2A         [10] 7737 	jp	00116$
    00002B3F                       7738 00102$:
                                   7739 ;E:\Dropbox\FAUSTO\SVILUPPI\MSX\CODE\C\MSXgl\projects\soccerlg/soccerlg_s4_b1.c:1529: for (u8 y=0;y<64;y++){
    00002B3F 0E 00            [ 7] 7740 	ld	c, #0x00
    00002B41                       7741 00122$:
    00002B41 79               [ 4] 7742 	ld	a, c
    00002B42 D6 40            [ 7] 7743 	sub	a, #0x40
    00002B44 30 39            [12] 7744 	jr	NC, 00104$
                                   7745 ;E:\Dropbox\FAUSTO\SVILUPPI\MSX\CODE\C\MSXgl\projects\soccerlg/soccerlg_s4_b1.c:1530: for (u8 x=0;x<32;x++){
    00002B46 06 00            [ 7] 7746 	ld	b, #0x00
    00002B48                       7747 00119$:
    00002B48 78               [ 4] 7748 	ld	a, b
    00002B49 D6 20            [ 7] 7749 	sub	a, #0x20
    00002B4B 30 2E            [12] 7750 	jr	NC, 00123$
                                   7751 ;E:/Dropbox/FAUSTO/SVILUPPI/MSX/CODE/C/MSXgl/engine/src/v9990.h:1426: inline u32 V9_CellAddrP1A(u8 x, u8 y) { return V9_P1_PNT_A + (((64 * y) + x) * 2); }
    00002B4D 69               [ 4] 7752 	ld	l, c
                                   7753 ;	spillPairReg hl
                                   7754 ;	spillPairReg hl
    00002B4E 26 00            [ 7] 7755 	ld	h, #0x00
                                   7756 ;	spillPairReg hl
                                   7757 ;	spillPairReg hl
    00002B50 29               [11] 7758 	add	hl, hl
    00002B51 29               [11] 7759 	add	hl, hl
    00002B52 29               [11] 7760 	add	hl, hl
    00002B53 29               [11] 7761 	add	hl, hl
    00002B54 29               [11] 7762 	add	hl, hl
    00002B55 29               [11] 7763 	add	hl, hl
    00002B56 58               [ 4] 7764 	ld	e, b
    00002B57 16 00            [ 7] 7765 	ld	d, #0x00
    00002B59 19               [11] 7766 	add	hl, de
    00002B5A 29               [11] 7767 	add	hl, hl
    00002B5B 7C               [ 4] 7768 	ld	a, h
    00002B5C 07               [ 4] 7769 	rlca
    00002B5D 9F               [ 4] 7770 	sbc	a, a
    00002B5E 5F               [ 4] 7771 	ld	e, a
    00002B5F 57               [ 4] 7772 	ld	d, a
    00002B60 7C               [ 4] 7773 	ld	a, h
    00002B61 C6 C0            [ 7] 7774 	add	a, #0xc0
    00002B63 67               [ 4] 7775 	ld	h, a
                                   7776 ;	spillPairReg hl
                                   7777 ;	spillPairReg hl
    00002B64 7B               [ 4] 7778 	ld	a, e
    00002B65 CE 07            [ 7] 7779 	adc	a, #0x07
    00002B67 5F               [ 4] 7780 	ld	e, a
    00002B68 30 01            [12] 7781 	jr	NC, 00185$
    00002B6A 14               [ 4] 7782 	inc	d
    00002B6B                       7783 00185$:
                                   7784 ;E:/Dropbox/FAUSTO/SVILUPPI/MSX/CODE/C/MSXgl/engine/src/v9990.h:396: inline void V9_Poke16(u32 addr, u16 val) { V9_SetWriteAddress(addr); V9_Poke16_CurrentAddr(val); }
    00002B6B C5               [11] 7785 	push	bc
    00002B6C EB               [ 4] 7786 	ex	de, hl
    00002B6D CDr00r00         [17] 7787 	call	_V9_SetWriteAddress
    00002B70 C1               [10] 7788 	pop	bc
    00002B71 21 00 00         [10] 7789 	ld	hl, #0x0000
    00002B74 CDr00r00         [17] 7790 	call	_V9_Poke16_CurrentAddr
                                   7791 ;E:\Dropbox\FAUSTO\SVILUPPI\MSX\CODE\C\MSXgl\projects\soccerlg/soccerlg_s4_b1.c:1530: for (u8 x=0;x<32;x++){
    00002B77 04               [ 4] 7792 	inc	b
    00002B78 C3r48r2B         [10] 7793 	jp	00119$
    00002B7B                       7794 00123$:
                                   7795 ;E:\Dropbox\FAUSTO\SVILUPPI\MSX\CODE\C\MSXgl\projects\soccerlg/soccerlg_s4_b1.c:1529: for (u8 y=0;y<64;y++){
    00002B7B 0C               [ 4] 7796 	inc	c
    00002B7C C3r41r2B         [10] 7797 	jp	00122$
    00002B7F                       7798 00104$:
                                   7799 ;E:\Dropbox\FAUSTO\SVILUPPI\MSX\CODE\C\MSXgl\projects\soccerlg/soccerlg_s4_b1.c:1534: for (u8 x=0;x<64;x++){
    00002B7F 0E 00            [ 7] 7800 	ld	c, #0x00
    00002B81                       7801 00125$:
    00002B81 79               [ 4] 7802 	ld	a, c
    00002B82 D6 40            [ 7] 7803 	sub	a, #0x40
    00002B84 30 24            [12] 7804 	jr	NC, 00127$
                                   7805 ;E:/Dropbox/FAUSTO/SVILUPPI/MSX/CODE/C/MSXgl/engine/src/v9990.h:1426: inline u32 V9_CellAddrP1A(u8 x, u8 y) { return V9_P1_PNT_A + (((64 * y) + x) * 2); }
    00002B86 69               [ 4] 7806 	ld	l, c
                                   7807 ;	spillPairReg hl
                                   7808 ;	spillPairReg hl
    00002B87 26 00            [ 7] 7809 	ld	h, #0x00
                                   7810 ;	spillPairReg hl
                                   7811 ;	spillPairReg hl
    00002B89 29               [11] 7812 	add	hl, hl
    00002B8A 7C               [ 4] 7813 	ld	a, h
    00002B8B 07               [ 4] 7814 	rlca
    00002B8C 9F               [ 4] 7815 	sbc	a, a
    00002B8D 5F               [ 4] 7816 	ld	e, a
    00002B8E 57               [ 4] 7817 	ld	d, a
    00002B8F 7C               [ 4] 7818 	ld	a, h
    00002B90 C6 C0            [ 7] 7819 	add	a, #0xc0
    00002B92 67               [ 4] 7820 	ld	h, a
                                   7821 ;	spillPairReg hl
                                   7822 ;	spillPairReg hl
    00002B93 7B               [ 4] 7823 	ld	a, e
    00002B94 CE 07            [ 7] 7824 	adc	a, #0x07
    00002B96 5F               [ 4] 7825 	ld	e, a
    00002B97 30 01            [12] 7826 	jr	NC, 00186$
    00002B99 14               [ 4] 7827 	inc	d
    00002B9A                       7828 00186$:
                                   7829 ;E:/Dropbox/FAUSTO/SVILUPPI/MSX/CODE/C/MSXgl/engine/src/v9990.h:396: inline void V9_Poke16(u32 addr, u16 val) { V9_SetWriteAddress(addr); V9_Poke16_CurrentAddr(val); }
    00002B9A C5               [11] 7830 	push	bc
    00002B9B EB               [ 4] 7831 	ex	de, hl
    00002B9C CDr00r00         [17] 7832 	call	_V9_SetWriteAddress
    00002B9F C1               [10] 7833 	pop	bc
    00002BA0 21 20 00         [10] 7834 	ld	hl, #0x0020
    00002BA3 CDr00r00         [17] 7835 	call	_V9_Poke16_CurrentAddr
                                   7836 ;E:\Dropbox\FAUSTO\SVILUPPI\MSX\CODE\C\MSXgl\projects\soccerlg/soccerlg_s4_b1.c:1534: for (u8 x=0;x<64;x++){
    00002BA6 0C               [ 4] 7837 	inc	c
    00002BA7 C3r81r2B         [10] 7838 	jp	00125$
    00002BAA                       7839 00127$:
                                   7840 ;E:\Dropbox\FAUSTO\SVILUPPI\MSX\CODE\C\MSXgl\projects\soccerlg/soccerlg_s4_b1.c:1537: }
    00002BAA DD F9            [10] 7841 	ld	sp, ix
    00002BAC DD E1            [14] 7842 	pop	ix
    00002BAE C9               [10] 7843 	ret
                                   7844 	.area _SEG4
                                   7845 	.area _INITIALIZER
                                   7846 	.area _CABS (ABS)
