;--------------------------------------------------------
; File Created by SDCC : free open source ANSI-C Compiler
; Version 4.2.0 #13081 (MINGW64)
;--------------------------------------------------------
	.module soccerlg_s2_b1
	.optsdcc -mz80
	
;--------------------------------------------------------
; Public variables in this module
;--------------------------------------------------------
	.globl _DEBUG_INIT
	.globl _ShowMenu
	.globl _InitializeMenuV9990Layers
	.globl _PutPonPonGirlSprite
	.globl _Trampoline_VOID_P1
	.globl _Trampoline_VOID
	.globl _V9990_LoadImagePresentationData
	.globl _LoadMsxVdpFonts
	.globl _V9_Detect
	.globl _V9_SetPaletteEntry
	.globl _V9_SetScrollingBY
	.globl _V9_SetColorMode
	.globl _V9_SetScreenMode
	.globl _V9_GetRegister
	.globl _V9_SetRegister16
	.globl _V9_SetRegister
	.globl _V9_SetPort
	.globl _Print_SetColor
	.globl _Print_DrawText
	.globl _VDP_RegWriteBakMask
	.globl _VDP_SetMode
	.globl _VDP_ClearVRAM
	.globl _Keyboard_IsKeyPressed
	.globl _Joystick_Read
	.globl _g_SLTSL
	.globl _g_GRPACY
	.globl _g_GRPACX
	.globl _g_LOGOPR
	.globl _g_CMASK
	.globl _g_CLOC
	.globl _g_FNKSTR
	.globl _g_ATRBYT
	.globl _g_BDRCLR
	.globl _g_BAKCLR
	.globl _g_FORCLR
	.globl _g_CSRX
	.globl _g_CSRY
	.globl _g_CLIKSW
	.globl _g_MLTPAT
	.globl _g_MLTATR
	.globl _g_MLTCGP
	.globl _g_MLTCOL
	.globl _g_MLTNAM
	.globl _g_GRPPAT
	.globl _g_GRPATR
	.globl _g_GRPCGP
	.globl _g_GRPCOL
	.globl _g_GRPNAM
	.globl _g_T32PAT
	.globl _g_T32ATR
	.globl _g_T32CGP
	.globl _g_T32COL
	.globl _g_T32NAM
	.globl _g_TXTPAT
	.globl _g_TXTATR
	.globl _g_TXTCGP
	.globl _g_TXTCOL
	.globl _g_TXTNAM
	.globl _g_CLMLST
	.globl _g_CRTCNT
	.globl _g_LINLEN
	.globl _g_LINL32
	.globl _g_LINL40
	.globl _g_BDOS
	.globl _g_MASTER
	.globl _g_RAMAD3
	.globl _g_RAMAD2
	.globl _g_RAMAD1
	.globl _g_RAMAD0
	.globl _g_BREAKV
	.globl _g_DISKVE
	.globl _g_KANJTABLE
	.globl _g_STRSRC
	.globl _g_SUBRID
	.globl _g_CHAR_16
	.globl _g_MSXMID
	.globl _g_MSXVER
	.globl _g_ROMVersion
	.globl _g_BASRVN
	.globl _g_VDP_DW
	.globl _g_VDP_DR
	.globl _g_CGTABL
	.globl _g_SVFFFD
	.globl _g_RG27SAV
	.globl _g_RG26SAV
	.globl _g_RG25SAV
	.globl _g_SVFFF8
	.globl _g_MINROM
	.globl _g_RG23SAV
	.globl _g_RG22SAV
	.globl _g_RG21SAV
	.globl _g_RG20SAV
	.globl _g_RG19SAV
	.globl _g_RG18SAV
	.globl _g_RG17SAV
	.globl _g_RG16SAV
	.globl _g_RG15SAV
	.globl _g_RG14SAV
	.globl _g_RG13SAV
	.globl _g_RG12SAV
	.globl _g_RG11SAV
	.globl _g_RG10SAV
	.globl _g_RG09SAV
	.globl _g_RG08SAV
	.globl _g_PROCNM
	.globl _g_SLTWRK
	.globl _g_SLTATR
	.globl _g_SLTTBL
	.globl _g_EXPTBL
	.globl _g_MNROM
	.globl _g_DRWANG
	.globl _g_DRWSCL
	.globl _g_DRWFLG
	.globl _g_GYPOS
	.globl _g_GXPOS
	.globl _g_BRDATR
	.globl _g_CASPRV
	.globl _g_OLDSCR
	.globl _g_SCRMOD
	.globl _g_FLBMEM
	.globl _g_KANAMD
	.globl _g_KANAST
	.globl _g_CAPST
	.globl _g_CSTYLE
	.globl _g_CSRSW
	.globl _g_INSFLG
	.globl _g_ESCCNT
	.globl _g_GRPHED
	.globl _g_WINWID
	.globl _g_LOWLIM
	.globl _g_INTCNT
	.globl _g_INTVAL
	.globl _g_JIFFY
	.globl _g_PADX
	.globl _g_PADY
	.globl _g_INTFLG
	.globl _g_RTYCNT
	.globl _g_TRPTBL
	.globl _g_HIMEM
	.globl _g_BOTTOM
	.globl _g_PATWRK
	.globl _g_LINWRK
	.globl _g_KEYBUF
	.globl _g_NEWKEY
	.globl _g_OLDKEY
	.globl _g_CLIKFL
	.globl _g_ONGSBF
	.globl _g_FNKFLG
	.globl _g_FNKSWI
	.globl _g_CODSAV
	.globl _g_FSTPOS
	.globl _g_LINTTB
	.globl _g_BASROM
	.globl _g_ENSTOP
	.globl _g_VCBC
	.globl _g_VCBB
	.globl _g_VCBA
	.globl _g_PLYCNT
	.globl _g_MUSICF
	.globl _g_QUEUEN
	.globl _g_MCLPTR
	.globl _g_MCLLEN
	.globl _g_SAVVOL
	.globl _g_VOICEN
	.globl _g_SAVSP
	.globl _g_PRSCNT
	.globl _g_LSTMOD
	.globl _g_LSTCOM
	.globl _g_COMMSK
	.globl _g_ESTBLS
	.globl _g_FLAGS
	.globl _g_ERRORS
	.globl _g_DATCNT
	.globl _g_DEVNUM
	.globl _g_OLDINT
	.globl _g_OLDSTT
	.globl _g_MEXBIh
	.globl _g_RSIQLN
	.globl _g_RSFCB
	.globl _g_TOCNT
	.globl _g_RSTMP
	.globl _g_YSAVE
	.globl _g_XSAVE
	.globl _g_NORUSE
	.globl _g_MODE
	.globl _g_ROMA
	.globl _g_CHRCNT
	.globl _g_EXBRSA
	.globl _g_AVCSAV
	.globl _g_ACPAGE
	.globl _g_DPPAGE
	.globl _g_RS2IQ
	.globl _g_VOICCQ
	.globl _g_VOICBQ
	.globl _g_VOICAQ
	.globl _g_QUEBAK
	.globl _g_QUETAB
	.globl _g_ASPCT2
	.globl _g_ASPCT1
	.globl _g_HEADER
	.globl _g_HIGH
	.globl _g_LOW
	.globl _g_CS240
	.globl _g_CS120
	.globl _g_GETPNT
	.globl _g_PUTPNT
	.globl _g_REPCNT
	.globl _g_SCNCNT
	.globl _g_FRCNEW
	.globl _g_QUEUES
	.globl _g_MINUPD
	.globl _g_MAXUPD
	.globl _g_TRGFLG
	.globl _g_STATFL
	.globl _g_RG7SAV
	.globl _g_RG6SAV
	.globl _g_RG5SAV
	.globl _g_RG4SAV
	.globl _g_RG3SAV
	.globl _g_RG2SAV
	.globl _g_RG1SAV
	.globl _g_RG0SAV
	.globl _g_CNSDFG
	.globl _g_USRTAB
	.globl _g_CLPRIM
	.globl _g_WRPRIM
	.globl _g_RDPRIM
	.globl _IsTeamJoystickTriggerPressed
	.globl _GetJoystickDirection
	.globl _InitVariables
	.globl _LoadPresentation
	.globl _TickGameFieldScrolling
	.globl _MainSub
;--------------------------------------------------------
; special function registers
;--------------------------------------------------------
_g_PortPrimarySlot	=	0x00a8
_g_PortReadKeyboard	=	0x00a9
_g_PortAccessKeyboard	=	0x00aa
_g_PortControl	=	0x00ab
_g_VDP_DataPort	=	0x0098
_g_VDP_RegPort	=	0x0099
_g_VDP_AddrPort	=	0x0099
_g_VDP_StatPort	=	0x0099
_g_PSG_RegPort	=	0x00a0
_g_PSG_DataPort	=	0x00a1
_g_PSG_StatPort	=	0x00a2
_g_PSG_Ext_RegPort	=	0x0010
_g_PSG_Ext_DataPort	=	0x0011
_g_PSG_Ext_StatPort	=	0x0012
_g_MSXMusic_IndexPort	=	0x007c
_g_MSXMusic_DataPort	=	0x007d
_g_MSXAudio_IndexPort	=	0x00c0
_g_MSXAudio_DataPort	=	0x00c1
_g_MSXAudio_IndexPort2	=	0x00c2
_g_MSXAudio_DataPort2	=	0x00c3
_g_RTC_AddrPort	=	0x00b4
_g_RTC_DataPort	=	0x00b5
_g_V9_VRAMPort	=	0x0060
_g_V9_PalettePort	=	0x0061
_g_V9_CmdDataPort	=	0x0062
_g_V9_RegDataPort	=	0x0063
_g_V9_RegSelectPort	=	0x0064
_g_V9_SatusPort	=	0x0065
_g_V9_IntFlagPort	=	0x0066
_g_V9_SysCtrlPort	=	0x0067
_g_V9_KanjiAddrLPort	=	0x0068
_g_V9_KanjiAddrHPort	=	0x0069
_g_V9_KanjiDataPort	=	0x0069
_g_V9_Kanji2AddrLPort	=	0x006a
_g_V9_Kanji2AddrHPort	=	0x006b
_g_V9_Kanji2DataPort	=	0x006b
_g_V9_OutputCtrPort	=	0x006f
;--------------------------------------------------------
; ram data
;--------------------------------------------------------
	.area _DATA
_g_LINL40	=	0xf3ae
_g_LINL32	=	0xf3af
_g_LINLEN	=	0xf3b0
_g_CRTCNT	=	0xf3b1
_g_CLMLST	=	0xf3b2
_g_TXTNAM	=	0xf3b3
_g_TXTCOL	=	0xf3b5
_g_TXTCGP	=	0xf3b7
_g_TXTATR	=	0xf3b9
_g_TXTPAT	=	0xf3bb
_g_T32NAM	=	0xf3bd
_g_T32COL	=	0xf3bf
_g_T32CGP	=	0xf3c1
_g_T32ATR	=	0xf3c3
_g_T32PAT	=	0xf3c5
_g_GRPNAM	=	0xf3c7
_g_GRPCOL	=	0xf3c9
_g_GRPCGP	=	0xf3cb
_g_GRPATR	=	0xf3cd
_g_GRPPAT	=	0xf3cf
_g_MLTNAM	=	0xf3d1
_g_MLTCOL	=	0xf3d3
_g_MLTCGP	=	0xf3d5
_g_MLTATR	=	0xf3d7
_g_MLTPAT	=	0xf3d9
_g_CLIKSW	=	0xf3db
_g_CSRY	=	0xf3dc
_g_CSRX	=	0xf3dd
_g_FORCLR	=	0xf3e9
_g_BAKCLR	=	0xf3ea
_g_BDRCLR	=	0xf3eb
_g_ATRBYT	=	0xf3f2
_g_FNKSTR	=	0xf87f
_g_CLOC	=	0xf92a
_g_CMASK	=	0xf92c
_g_LOGOPR	=	0xfb02
_g_GRPACX	=	0xfcb7
_g_GRPACY	=	0xfcb9
_g_SLTSL	=	0xffff
;--------------------------------------------------------
; ram data
;--------------------------------------------------------
	.area _INITIALIZED
;--------------------------------------------------------
; absolute external ram data
;--------------------------------------------------------
	.area _DABS (ABS)
;--------------------------------------------------------
; global & static initialisations
;--------------------------------------------------------
	.area _HOME
	.area _GSINIT
	.area _GSFINAL
	.area _GSINIT
;--------------------------------------------------------
; Home
;--------------------------------------------------------
	.area _HOME
	.area _HOME
;--------------------------------------------------------
; code
;--------------------------------------------------------
	.area _SEG2
;E:\Dropbox\FAUSTO\SVILUPPI\MSX\CODE\C\MSXgl\projects\soccerlg/soccerlg_s2_b1.c:23: bool IsTeamJoystickTriggerPressed(){		
;	---------------------------------
; Function IsTeamJoystickTriggerPressed
; ---------------------------------
_IsTeamJoystickTriggerPressed::
;E:\Dropbox\FAUSTO\SVILUPPI\MSX\CODE\C\MSXgl\projects\soccerlg/soccerlg_s2_b1.c:24: u8 joyStat = Joystick_Read(JOY_PORT_1);
	ld	l, #0x0f
;	spillPairReg hl
;	spillPairReg hl
	call	_Joystick_Read
;E:\Dropbox\FAUSTO\SVILUPPI\MSX\CODE\C\MSXgl\projects\soccerlg/soccerlg_s2_b1.c:25: if (IS_JOY_PRESSED(joyStat, JOY_INPUT_TRIGGER_A))
	bit	4, l
	jr	NZ, 00102$
;E:\Dropbox\FAUSTO\SVILUPPI\MSX\CODE\C\MSXgl\projects\soccerlg/soccerlg_s2_b1.c:27: return true;
	ld	a, #0x01
	ret
00102$:
;E:\Dropbox\FAUSTO\SVILUPPI\MSX\CODE\C\MSXgl\projects\soccerlg/soccerlg_s2_b1.c:29: if(Keyboard_IsKeyPressed(KEY_SPACE))
	ld	a, #0x08
	call	_Keyboard_IsKeyPressed
	or	a, a
;E:\Dropbox\FAUSTO\SVILUPPI\MSX\CODE\C\MSXgl\projects\soccerlg/soccerlg_s2_b1.c:31: return true;
;E:\Dropbox\FAUSTO\SVILUPPI\MSX\CODE\C\MSXgl\projects\soccerlg/soccerlg_s2_b1.c:33: return FALSE;
	ld	a, #0x01
	ret	NZ
	xor	a, a
;E:\Dropbox\FAUSTO\SVILUPPI\MSX\CODE\C\MSXgl\projects\soccerlg/soccerlg_s2_b1.c:34: }
	ret
_g_RDPRIM	=	0xf380
_g_WRPRIM	=	0xf385
_g_CLPRIM	=	0xf38c
_g_USRTAB	=	0xf39a
_g_CNSDFG	=	0xf3de
_g_RG0SAV	=	0xf3df
_g_RG1SAV	=	0xf3e0
_g_RG2SAV	=	0xf3e1
_g_RG3SAV	=	0xf3e2
_g_RG4SAV	=	0xf3e3
_g_RG5SAV	=	0xf3e4
_g_RG6SAV	=	0xf3e5
_g_RG7SAV	=	0xf3e6
_g_STATFL	=	0xf3e7
_g_TRGFLG	=	0xf3e8
_g_MAXUPD	=	0xf3ec
_g_MINUPD	=	0xf3ef
_g_QUEUES	=	0xf3f3
_g_FRCNEW	=	0xf3f5
_g_SCNCNT	=	0xf3f6
_g_REPCNT	=	0xf3f7
_g_PUTPNT	=	0xf3f8
_g_GETPNT	=	0xf3fa
_g_CS120	=	0xf3fc
_g_CS240	=	0xf401
_g_LOW	=	0xf406
_g_HIGH	=	0xf408
_g_HEADER	=	0xf40a
_g_ASPCT1	=	0xf40b
_g_ASPCT2	=	0xf40d
_g_QUETAB	=	0xf959
_g_QUEBAK	=	0xf971
_g_VOICAQ	=	0xf975
_g_VOICBQ	=	0xf9f5
_g_VOICCQ	=	0xfa75
_g_RS2IQ	=	0xfaf5
_g_DPPAGE	=	0xfaf5
_g_ACPAGE	=	0xfaf6
_g_AVCSAV	=	0xfaf7
_g_EXBRSA	=	0xfaf8
_g_CHRCNT	=	0xfaf9
_g_ROMA	=	0xfafa
_g_MODE	=	0xfafc
_g_NORUSE	=	0xfafd
_g_XSAVE	=	0xfafe
_g_YSAVE	=	0xfb00
_g_RSTMP	=	0xfb03
_g_TOCNT	=	0xfb03
_g_RSFCB	=	0xfb04
_g_RSIQLN	=	0xfb06
_g_MEXBIh	=	0xfb07
_g_OLDSTT	=	0xfb0c
_g_OLDINT	=	0xfb0c
_g_DEVNUM	=	0xfb16
_g_DATCNT	=	0xfb17
_g_ERRORS	=	0xfb1a
_g_FLAGS	=	0xfb1b
_g_ESTBLS	=	0xfb1c
_g_COMMSK	=	0xfb1d
_g_LSTCOM	=	0xfb1e
_g_LSTMOD	=	0xfb1f
_g_PRSCNT	=	0xfb35
_g_SAVSP	=	0xfb36
_g_VOICEN	=	0xfb38
_g_SAVVOL	=	0xfb39
_g_MCLLEN	=	0xfb3b
_g_MCLPTR	=	0xfb3c
_g_QUEUEN	=	0xfb3e
_g_MUSICF	=	0xfb3f
_g_PLYCNT	=	0xfb40
_g_VCBA	=	0xfb41
_g_VCBB	=	0xfb66
_g_VCBC	=	0xfb8b
_g_ENSTOP	=	0xfbb0
_g_BASROM	=	0xfbb1
_g_LINTTB	=	0xfbb2
_g_FSTPOS	=	0xfbca
_g_CODSAV	=	0xfbcc
_g_FNKSWI	=	0xfbcd
_g_FNKFLG	=	0xfbce
_g_ONGSBF	=	0xfbd8
_g_CLIKFL	=	0xfbd9
_g_OLDKEY	=	0xfbda
_g_NEWKEY	=	0xfbe5
_g_KEYBUF	=	0xfbf0
_g_LINWRK	=	0xfc18
_g_PATWRK	=	0xfc40
_g_BOTTOM	=	0xfc48
_g_HIMEM	=	0xfc4a
_g_TRPTBL	=	0xfc4c
_g_RTYCNT	=	0xfc9a
_g_INTFLG	=	0xfc9b
_g_PADY	=	0xfc9c
_g_PADX	=	0xfc9d
_g_JIFFY	=	0xfc9e
_g_INTVAL	=	0xfca0
_g_INTCNT	=	0xfca2
_g_LOWLIM	=	0xfca4
_g_WINWID	=	0xfca5
_g_GRPHED	=	0xfca6
_g_ESCCNT	=	0xfca7
_g_INSFLG	=	0xfca8
_g_CSRSW	=	0xfca9
_g_CSTYLE	=	0xfcaa
_g_CAPST	=	0xfcab
_g_KANAST	=	0xfcac
_g_KANAMD	=	0xfcad
_g_FLBMEM	=	0xfcae
_g_SCRMOD	=	0xfcaf
_g_OLDSCR	=	0xfcb0
_g_CASPRV	=	0xfcb1
_g_BRDATR	=	0xfcb2
_g_GXPOS	=	0xfcb3
_g_GYPOS	=	0xfcb5
_g_DRWFLG	=	0xfcbb
_g_DRWSCL	=	0xfcbc
_g_DRWANG	=	0xfcbd
_g_MNROM	=	0xfcc1
_g_EXPTBL	=	0xfcc1
_g_SLTTBL	=	0xfcc5
_g_SLTATR	=	0xfcc9
_g_SLTWRK	=	0xfd09
_g_PROCNM	=	0xfd89
_g_RG08SAV	=	0xffe7
_g_RG09SAV	=	0xffe8
_g_RG10SAV	=	0xffe9
_g_RG11SAV	=	0xffea
_g_RG12SAV	=	0xffeb
_g_RG13SAV	=	0xffec
_g_RG14SAV	=	0xffed
_g_RG15SAV	=	0xffee
_g_RG16SAV	=	0xffef
_g_RG17SAV	=	0xfff0
_g_RG18SAV	=	0xfff1
_g_RG19SAV	=	0xfff2
_g_RG20SAV	=	0xfff3
_g_RG21SAV	=	0xfff4
_g_RG22SAV	=	0xfff5
_g_RG23SAV	=	0xfff6
_g_MINROM	=	0xfff7
_g_SVFFF8	=	0xfff8
_g_RG25SAV	=	0xfffa
_g_RG26SAV	=	0xfffb
_g_RG27SAV	=	0xfffc
_g_SVFFFD	=	0xfffd
_g_CGTABL	=	0x0004
_g_VDP_DR	=	0x0006
_g_VDP_DW	=	0x0007
_g_BASRVN	=	0x002b
_g_ROMVersion	=	0x002b
_g_MSXVER	=	0x002d
_g_MSXMID	=	0x002e
_g_CHAR_16	=	0x0034
_g_SUBRID	=	0x0000
_g_STRSRC	=	0x0002
_g_KANJTABLE	=	0xf30f
_g_DISKVE	=	0xf323
_g_BREAKV	=	0xf325
_g_RAMAD0	=	0xf341
_g_RAMAD1	=	0xf342
_g_RAMAD2	=	0xf343
_g_RAMAD3	=	0xf344
_g_MASTER	=	0xf348
_g_BDOS	=	0xf37d
;E:\Dropbox\FAUSTO\SVILUPPI\MSX\CODE\C\MSXgl\projects\soccerlg/soccerlg_s2_b1.c:37: u8 GetJoystickDirection(){
;	---------------------------------
; Function GetJoystickDirection
; ---------------------------------
_GetJoystickDirection::
;E:/Dropbox/FAUSTO/SVILUPPI/MSX/CODE/C/MSXgl/engine/src/input.h:182: u8 in = ~Joystick_Read(port);
	ld	l, #0x0f
;	spillPairReg hl
;	spillPairReg hl
	call	_Joystick_Read
	ld	a, l
	cpl
;E:\Dropbox\FAUSTO\SVILUPPI\MSX\CODE\C\MSXgl\projects\soccerlg/soccerlg_s2_b1.c:38: u8 dir = Joystick_GetDirection(JOY_PORT_1);
	and	a, #0x0f
	ld	b, a
	ld	e, b
;E:\Dropbox\FAUSTO\SVILUPPI\MSX\CODE\C\MSXgl\projects\soccerlg/soccerlg_s2_b1.c:39: u8 retValue=DIRECTION_NONE;
	ld	c, #0x00
;E:\Dropbox\FAUSTO\SVILUPPI\MSX\CODE\C\MSXgl\projects\soccerlg/soccerlg_s2_b1.c:40: switch (dir){
	ld	a, #0x0a
	sub	a, b
	jr	C, 00109$
	ld	d, #0x00
	ld	hl, #00229$
	add	hl, de
	add	hl, de
	add	hl, de
	jp	(hl)
00229$:
	jp	00109$
	jp	00101$
	jp	00102$
	jp	00109$
	jp	00103$
	jp	00106$
	jp	00108$
	jp	00109$
	jp	00104$
	jp	00105$
	jp	00107$
;E:\Dropbox\FAUSTO\SVILUPPI\MSX\CODE\C\MSXgl\projects\soccerlg/soccerlg_s2_b1.c:41: case JOY_INPUT_DIR_UP:
00101$:
;E:\Dropbox\FAUSTO\SVILUPPI\MSX\CODE\C\MSXgl\projects\soccerlg/soccerlg_s2_b1.c:42: retValue=DIRECTION_UP;
	ld	c, #0x01
;E:\Dropbox\FAUSTO\SVILUPPI\MSX\CODE\C\MSXgl\projects\soccerlg/soccerlg_s2_b1.c:43: break;
	jp	00109$
;E:\Dropbox\FAUSTO\SVILUPPI\MSX\CODE\C\MSXgl\projects\soccerlg/soccerlg_s2_b1.c:44: case JOY_INPUT_DIR_DOWN:
00102$:
;E:\Dropbox\FAUSTO\SVILUPPI\MSX\CODE\C\MSXgl\projects\soccerlg/soccerlg_s2_b1.c:45: retValue=DIRECTION_DOWN;
	ld	c, #0x05
;E:\Dropbox\FAUSTO\SVILUPPI\MSX\CODE\C\MSXgl\projects\soccerlg/soccerlg_s2_b1.c:46: break;
	jp	00109$
;E:\Dropbox\FAUSTO\SVILUPPI\MSX\CODE\C\MSXgl\projects\soccerlg/soccerlg_s2_b1.c:47: case JOY_INPUT_DIR_LEFT:
00103$:
;E:\Dropbox\FAUSTO\SVILUPPI\MSX\CODE\C\MSXgl\projects\soccerlg/soccerlg_s2_b1.c:48: retValue=DIRECTION_LEFT;
	ld	c, #0x07
;E:\Dropbox\FAUSTO\SVILUPPI\MSX\CODE\C\MSXgl\projects\soccerlg/soccerlg_s2_b1.c:49: break;
	jp	00109$
;E:\Dropbox\FAUSTO\SVILUPPI\MSX\CODE\C\MSXgl\projects\soccerlg/soccerlg_s2_b1.c:50: case JOY_INPUT_DIR_RIGHT:
00104$:
;E:\Dropbox\FAUSTO\SVILUPPI\MSX\CODE\C\MSXgl\projects\soccerlg/soccerlg_s2_b1.c:51: retValue=DIRECTION_RIGHT;
	ld	c, #0x03
;E:\Dropbox\FAUSTO\SVILUPPI\MSX\CODE\C\MSXgl\projects\soccerlg/soccerlg_s2_b1.c:52: break;
	jp	00109$
;E:\Dropbox\FAUSTO\SVILUPPI\MSX\CODE\C\MSXgl\projects\soccerlg/soccerlg_s2_b1.c:53: case JOY_INPUT_DIR_UP_RIGHT:
00105$:
;E:\Dropbox\FAUSTO\SVILUPPI\MSX\CODE\C\MSXgl\projects\soccerlg/soccerlg_s2_b1.c:54: retValue=DIRECTION_UP_RIGHT;
	ld	c, #0x02
;E:\Dropbox\FAUSTO\SVILUPPI\MSX\CODE\C\MSXgl\projects\soccerlg/soccerlg_s2_b1.c:55: break;
	jp	00109$
;E:\Dropbox\FAUSTO\SVILUPPI\MSX\CODE\C\MSXgl\projects\soccerlg/soccerlg_s2_b1.c:56: case JOY_INPUT_DIR_UP_LEFT:
00106$:
;E:\Dropbox\FAUSTO\SVILUPPI\MSX\CODE\C\MSXgl\projects\soccerlg/soccerlg_s2_b1.c:57: retValue=DIRECTION_UP_LEFT;
	ld	c, #0x08
;E:\Dropbox\FAUSTO\SVILUPPI\MSX\CODE\C\MSXgl\projects\soccerlg/soccerlg_s2_b1.c:58: break;
	jp	00109$
;E:\Dropbox\FAUSTO\SVILUPPI\MSX\CODE\C\MSXgl\projects\soccerlg/soccerlg_s2_b1.c:59: case JOY_INPUT_DIR_DOWN_RIGHT:
00107$:
;E:\Dropbox\FAUSTO\SVILUPPI\MSX\CODE\C\MSXgl\projects\soccerlg/soccerlg_s2_b1.c:60: retValue=DIRECTION_DOWN_RIGHT;
	ld	c, #0x04
;E:\Dropbox\FAUSTO\SVILUPPI\MSX\CODE\C\MSXgl\projects\soccerlg/soccerlg_s2_b1.c:61: break;
	jp	00109$
;E:\Dropbox\FAUSTO\SVILUPPI\MSX\CODE\C\MSXgl\projects\soccerlg/soccerlg_s2_b1.c:62: case JOY_INPUT_DIR_DOWN_LEFT:
00108$:
;E:\Dropbox\FAUSTO\SVILUPPI\MSX\CODE\C\MSXgl\projects\soccerlg/soccerlg_s2_b1.c:63: retValue=DIRECTION_DOWN_LEFT;
	ld	c, #0x06
;E:\Dropbox\FAUSTO\SVILUPPI\MSX\CODE\C\MSXgl\projects\soccerlg/soccerlg_s2_b1.c:65: }
00109$:
;E:\Dropbox\FAUSTO\SVILUPPI\MSX\CODE\C\MSXgl\projects\soccerlg/soccerlg_s2_b1.c:66: if(retValue==DIRECTION_NONE){
	ld	a, c
	or	a, a
	jp	NZ, 00135$
;E:\Dropbox\FAUSTO\SVILUPPI\MSX\CODE\C\MSXgl\projects\soccerlg/soccerlg_s2_b1.c:67: if(Keyboard_IsKeyPressed(KEY_LEFT) && Keyboard_IsKeyPressed(KEY_UP))
	push	bc
	ld	a, #0x48
	call	_Keyboard_IsKeyPressed
	pop	bc
	or	a, a
	jr	Z, 00111$
	push	bc
	ld	a, #0x58
	call	_Keyboard_IsKeyPressed
	pop	bc
	or	a, a
	jr	Z, 00111$
;E:\Dropbox\FAUSTO\SVILUPPI\MSX\CODE\C\MSXgl\projects\soccerlg/soccerlg_s2_b1.c:69: retValue=DIRECTION_UP_LEFT;
	ld	c, #0x08
00111$:
;E:\Dropbox\FAUSTO\SVILUPPI\MSX\CODE\C\MSXgl\projects\soccerlg/soccerlg_s2_b1.c:71: if(Keyboard_IsKeyPressed(KEY_LEFT) && Keyboard_IsKeyPressed(KEY_DOWN))
	push	bc
	ld	a, #0x48
	call	_Keyboard_IsKeyPressed
	pop	bc
	or	a, a
	jr	Z, 00114$
	push	bc
	ld	a, #0x68
	call	_Keyboard_IsKeyPressed
	pop	bc
	or	a, a
	jr	Z, 00114$
;E:\Dropbox\FAUSTO\SVILUPPI\MSX\CODE\C\MSXgl\projects\soccerlg/soccerlg_s2_b1.c:73: retValue=DIRECTION_DOWN_LEFT;
	ld	c, #0x06
00114$:
;E:\Dropbox\FAUSTO\SVILUPPI\MSX\CODE\C\MSXgl\projects\soccerlg/soccerlg_s2_b1.c:75: if(Keyboard_IsKeyPressed(KEY_RIGHT) && Keyboard_IsKeyPressed(KEY_DOWN))
	push	bc
	ld	a, #0x78
	call	_Keyboard_IsKeyPressed
	pop	bc
	or	a, a
	jr	Z, 00117$
	push	bc
	ld	a, #0x68
	call	_Keyboard_IsKeyPressed
	pop	bc
	or	a, a
	jr	Z, 00117$
;E:\Dropbox\FAUSTO\SVILUPPI\MSX\CODE\C\MSXgl\projects\soccerlg/soccerlg_s2_b1.c:77: retValue=DIRECTION_DOWN_RIGHT;
	ld	c, #0x04
00117$:
;E:\Dropbox\FAUSTO\SVILUPPI\MSX\CODE\C\MSXgl\projects\soccerlg/soccerlg_s2_b1.c:79: if(Keyboard_IsKeyPressed(KEY_RIGHT) && Keyboard_IsKeyPressed(KEY_UP))
	push	bc
	ld	a, #0x78
	call	_Keyboard_IsKeyPressed
	pop	bc
	or	a, a
	jr	Z, 00120$
	push	bc
	ld	a, #0x58
	call	_Keyboard_IsKeyPressed
	pop	bc
	or	a, a
	jr	Z, 00120$
;E:\Dropbox\FAUSTO\SVILUPPI\MSX\CODE\C\MSXgl\projects\soccerlg/soccerlg_s2_b1.c:81: retValue=DIRECTION_UP_RIGHT;
	ld	c, #0x02
00120$:
;E:\Dropbox\FAUSTO\SVILUPPI\MSX\CODE\C\MSXgl\projects\soccerlg/soccerlg_s2_b1.c:83: if(retValue==DIRECTION_NONE && Keyboard_IsKeyPressed(KEY_LEFT))
	ld	a, c
	or	a, a
	jr	NZ, 00123$
	push	bc
	ld	a, #0x48
	call	_Keyboard_IsKeyPressed
	pop	bc
	or	a, a
	jr	Z, 00123$
;E:\Dropbox\FAUSTO\SVILUPPI\MSX\CODE\C\MSXgl\projects\soccerlg/soccerlg_s2_b1.c:85: retValue=DIRECTION_LEFT;
	ld	c, #0x07
00123$:
;E:\Dropbox\FAUSTO\SVILUPPI\MSX\CODE\C\MSXgl\projects\soccerlg/soccerlg_s2_b1.c:87: if(retValue==DIRECTION_NONE && Keyboard_IsKeyPressed(KEY_RIGHT))
	ld	a, c
	or	a, a
	jr	NZ, 00126$
	push	bc
	ld	a, #0x78
	call	_Keyboard_IsKeyPressed
	pop	bc
	or	a, a
	jr	Z, 00126$
;E:\Dropbox\FAUSTO\SVILUPPI\MSX\CODE\C\MSXgl\projects\soccerlg/soccerlg_s2_b1.c:89: retValue=DIRECTION_RIGHT;
	ld	c, #0x03
00126$:
;E:\Dropbox\FAUSTO\SVILUPPI\MSX\CODE\C\MSXgl\projects\soccerlg/soccerlg_s2_b1.c:91: if(retValue==DIRECTION_NONE && Keyboard_IsKeyPressed(KEY_UP))
	ld	a, c
	or	a, a
	jr	NZ, 00129$
	push	bc
	ld	a, #0x58
	call	_Keyboard_IsKeyPressed
	pop	bc
	or	a, a
	jr	Z, 00129$
;E:\Dropbox\FAUSTO\SVILUPPI\MSX\CODE\C\MSXgl\projects\soccerlg/soccerlg_s2_b1.c:93: retValue=DIRECTION_UP;
	ld	c, #0x01
00129$:
;E:\Dropbox\FAUSTO\SVILUPPI\MSX\CODE\C\MSXgl\projects\soccerlg/soccerlg_s2_b1.c:95: if(retValue==DIRECTION_NONE && Keyboard_IsKeyPressed(KEY_DOWN))
	ld	a, c
	or	a, a
	jr	NZ, 00135$
	push	bc
	ld	a, #0x68
	call	_Keyboard_IsKeyPressed
	pop	bc
	or	a, a
	jr	Z, 00135$
;E:\Dropbox\FAUSTO\SVILUPPI\MSX\CODE\C\MSXgl\projects\soccerlg/soccerlg_s2_b1.c:97: retValue=DIRECTION_DOWN;
	ld	c, #0x05
00135$:
;E:\Dropbox\FAUSTO\SVILUPPI\MSX\CODE\C\MSXgl\projects\soccerlg/soccerlg_s2_b1.c:100: return retValue;
	ld	a, c
;E:\Dropbox\FAUSTO\SVILUPPI\MSX\CODE\C\MSXgl\projects\soccerlg/soccerlg_s2_b1.c:101: }
	ret
;E:\Dropbox\FAUSTO\SVILUPPI\MSX\CODE\C\MSXgl\projects\soccerlg/soccerlg_s2_b1.c:104: void InitVariables(){
;	---------------------------------
; Function InitVariables
; ---------------------------------
_InitVariables::
;E:\Dropbox\FAUSTO\SVILUPPI\MSX\CODE\C\MSXgl\projects\soccerlg/soccerlg_s2_b1.c:105: g_ShowButtonsInfo=true;
	ld	hl, #_g_ShowButtonsInfo
	ld	(hl), #0x01
;E:\Dropbox\FAUSTO\SVILUPPI\MSX\CODE\C\MSXgl\projects\soccerlg/soccerlg_s2_b1.c:107: g_Ball.PossessionPlayerId = NO_VALUE;
	ld	hl, #(_g_Ball + 6)
	ld	(hl), #0xff
;E:\Dropbox\FAUSTO\SVILUPPI\MSX\CODE\C\MSXgl\projects\soccerlg/soccerlg_s2_b1.c:108: g_Ball.PassTargetPlayerId = NO_VALUE;
	ld	hl, #(_g_Ball + 16)
	ld	(hl), #0xff
;E:\Dropbox\FAUSTO\SVILUPPI\MSX\CODE\C\MSXgl\projects\soccerlg/soccerlg_s2_b1.c:109: g_Ball.ShotActive = 0;
	ld	hl, #(_g_Ball + 27)
	ld	(hl), #0x00
;E:\Dropbox\FAUSTO\SVILUPPI\MSX\CODE\C\MSXgl\projects\soccerlg/soccerlg_s2_b1.c:110: g_Ball.LastTouchTeamId = NO_VALUE;
	ld	hl, #(_g_Ball + 14)
	ld	(hl), #0xff
;E:\Dropbox\FAUSTO\SVILUPPI\MSX\CODE\C\MSXgl\projects\soccerlg/soccerlg_s2_b1.c:111: g_Ball.ComingFromRestart = 0;
	ld	hl, #(_g_Ball + 29)
	ld	(hl), #0x00
;E:\Dropbox\FAUSTO\SVILUPPI\MSX\CODE\C\MSXgl\projects\soccerlg/soccerlg_s2_b1.c:112: }
	ret
;E:\Dropbox\FAUSTO\SVILUPPI\MSX\CODE\C\MSXgl\projects\soccerlg/soccerlg_s2_b1.c:115: void LoadPresentation(){
;	---------------------------------
; Function LoadPresentation
; ---------------------------------
_LoadPresentation::
	push	af
	dec	sp
;E:\Dropbox\FAUSTO\SVILUPPI\MSX\CODE\C\MSXgl\projects\soccerlg/soccerlg_s2_b1.c:116: V9_SetScreenMode(V9_MODE_B1);
	ld	a, #0x03
	call	_V9_SetScreenMode
;E:/Dropbox/FAUSTO/SVILUPPI/MSX/CODE/C/MSXgl/engine/src/v9990.h:258: inline void V9_SetFlag(u8 reg, u8 mask, u8 flag) { V9_SetRegister(reg, V9_GetRegister(reg) & (~mask) | flag); }
	ld	a, #0x08
	call	_V9_GetRegister
	ld	l, a
;	spillPairReg hl
;	spillPairReg hl
	res	7, l
	ld	a, #0x08
	call	_V9_SetRegister
;E:\Dropbox\FAUSTO\SVILUPPI\MSX\CODE\C\MSXgl\projects\soccerlg/soccerlg_s2_b1.c:118: V9_SetColorMode(V9_COLOR_BD8);
	ld	a, #0x03
	call	_V9_SetColorMode
;E:\Dropbox\FAUSTO\SVILUPPI\MSX\CODE\C\MSXgl\projects\soccerlg/soccerlg_s2_b1.c:119: const u8 colorBlack[3] = { 0, 0, 0 };
	ld	hl, #0
	add	hl, sp
	ex	de, hl
	xor	a, a
	ld	(de), a
	ld	c, e
	ld	b, d
	inc	bc
	xor	a, a
	ld	(bc), a
	ld	c, e
	ld	b, d
	inc	bc
	inc	bc
	xor	a, a
	ld	(bc), a
;E:\Dropbox\FAUSTO\SVILUPPI\MSX\CODE\C\MSXgl\projects\soccerlg/soccerlg_s2_b1.c:120: V9_SetPaletteEntry(0, colorBlack);    
	xor	a, a
	call	_V9_SetPaletteEntry
;E:/Dropbox/FAUSTO/SVILUPPI/MSX/CODE/C/MSXgl/engine/src/v9990.h:480: inline void V9_SetBackgroundColor(u8 color) { V9_SetRegister(15, color); }
	ld	l, #0x00
;	spillPairReg hl
;	spillPairReg hl
	ld	a, #0x0f
	call	_V9_SetRegister
;E:\Dropbox\FAUSTO\SVILUPPI\MSX\CODE\C\MSXgl\projects\soccerlg/soccerlg_s2_b1.c:123: V9990_LoadImagePresentationData(); 
	call	_V9990_LoadImagePresentationData
;E:\Dropbox\FAUSTO\SVILUPPI\MSX\CODE\C\MSXgl\projects\soccerlg/soccerlg_s2_b1.c:126: g_MatchStatus=MATCH_PRESENTATION;
	ld	hl, #_g_MatchStatus
	ld	(hl), #0x0f
;E:\Dropbox\FAUSTO\SVILUPPI\MSX\CODE\C\MSXgl\projects\soccerlg/soccerlg_s2_b1.c:127: g_Timer=0;
	ld	hl, #_g_Timer
	ld	(hl), #0x00
;E:/Dropbox/FAUSTO/SVILUPPI/MSX/CODE/C/MSXgl/engine/src/v9990.h:258: inline void V9_SetFlag(u8 reg, u8 mask, u8 flag) { V9_SetRegister(reg, V9_GetRegister(reg) & (~mask) | flag); }
	ld	a, #0x08
	call	_V9_GetRegister
	res	7, a
	ld	l, a
;	spillPairReg hl
;	spillPairReg hl
	set	7, l
	ld	a, #0x08
	call	_V9_SetRegister
;E:/Dropbox/FAUSTO/SVILUPPI/MSX/CODE/C/MSXgl/engine/src/v9990.h:606: inline void V9_SetInterruptLine(u16 line) { V9_SetRegister16(10, line); }
	ld	de, #0x0047
	ld	a, #0x0a
	call	_V9_SetRegister16
;E:/Dropbox/FAUSTO/SVILUPPI/MSX/CODE/C/MSXgl/engine/src/v9990.h:574: inline void V9_SetInterrupt(u8 flags) { V9_SetRegister(9, flags); }
	ld	l, #0x01
;	spillPairReg hl
;	spillPairReg hl
	ld	a, #0x09
	call	_V9_SetRegister
;E:\Dropbox\FAUSTO\SVILUPPI\MSX\CODE\C\MSXgl\projects\soccerlg/soccerlg_s2_b1.c:131: while (g_Timer!=200)
00101$:
	ld	a, (_g_Timer+0)
	sub	a, #0xc8
	jr	NZ, 00101$
;E:\Dropbox\FAUSTO\SVILUPPI\MSX\CODE\C\MSXgl\projects\soccerlg/soccerlg_s2_b1.c:135: g_MatchStatus=MATCH_NOT_STARTED;
	ld	hl, #_g_MatchStatus
	ld	(hl), #0x00
;E:/Dropbox/FAUSTO/SVILUPPI/MSX/CODE/C/MSXgl/engine/src/v9990.h:258: inline void V9_SetFlag(u8 reg, u8 mask, u8 flag) { V9_SetRegister(reg, V9_GetRegister(reg) & (~mask) | flag); }
	ld	a, #0x08
	call	_V9_GetRegister
	ld	l, a
;	spillPairReg hl
;	spillPairReg hl
	res	7, l
	ld	a, #0x08
	call	_V9_SetRegister
;E:\Dropbox\FAUSTO\SVILUPPI\MSX\CODE\C\MSXgl\projects\soccerlg/soccerlg_s2_b1.c:137: V9_SetDisplayEnable(FALSE);
;E:\Dropbox\FAUSTO\SVILUPPI\MSX\CODE\C\MSXgl\projects\soccerlg/soccerlg_s2_b1.c:139: }
	pop	af
	inc	sp
	ret
;E:\Dropbox\FAUSTO\SVILUPPI\MSX\CODE\C\MSXgl\projects\soccerlg/soccerlg_s2_b1.c:142: void TickGameFieldScrolling(){
;	---------------------------------
; Function TickGameFieldScrolling
; ---------------------------------
_TickGameFieldScrolling::
;E:\Dropbox\FAUSTO\SVILUPPI\MSX\CODE\C\MSXgl\projects\soccerlg/soccerlg_s2_b1.c:143: switch (g_FieldScrollingActionInProgress) {
	ld	a, (_g_FieldScrollingActionInProgress+0)
	or	a, a
	jr	Z, 00101$
	ld	a, (_g_FieldScrollingActionInProgress+0)
	dec	a
	jr	Z, 00104$
	ld	a, (_g_FieldScrollingActionInProgress+0)
	sub	a, #0x02
	jp	Z,00115$
	jp	00118$
;E:\Dropbox\FAUSTO\SVILUPPI\MSX\CODE\C\MSXgl\projects\soccerlg/soccerlg_s2_b1.c:144: case FIELD_NORTH_ZONE:
00101$:
;E:\Dropbox\FAUSTO\SVILUPPI\MSX\CODE\C\MSXgl\projects\soccerlg/soccerlg_s2_b1.c:145: g_FieldCurrentYPosition = g_FieldCurrentYPosition - g_FieldScrollSpeed;
	ld	a, (_g_FieldScrollSpeed+0)
	ld	c, a
	ld	b, #0x00
	ld	hl, #_g_FieldCurrentYPosition
	ld	a, (hl)
	sub	a, c
	ld	(hl), a
	inc	hl
	ld	a, (hl)
	sbc	a, b
	ld	(hl), a
;E:\Dropbox\FAUSTO\SVILUPPI\MSX\CODE\C\MSXgl\projects\soccerlg/soccerlg_s2_b1.c:146: if (g_FieldCurrentYPosition < 0) {
	ld	a, (_g_FieldCurrentYPosition+1)
	bit	7, a
	jp	Z, 00118$
;E:\Dropbox\FAUSTO\SVILUPPI\MSX\CODE\C\MSXgl\projects\soccerlg/soccerlg_s2_b1.c:147: g_FieldCurrentYPosition = 1;
	ld	hl, #0x0001
	ld	(_g_FieldCurrentYPosition), hl
;E:\Dropbox\FAUSTO\SVILUPPI\MSX\CODE\C\MSXgl\projects\soccerlg/soccerlg_s2_b1.c:148: g_FieldScrollingActionInProgress = NO_VALUE;
	ld	hl, #_g_FieldScrollingActionInProgress
	ld	(hl), #0xff
;E:\Dropbox\FAUSTO\SVILUPPI\MSX\CODE\C\MSXgl\projects\soccerlg/soccerlg_s2_b1.c:149: g_ActiveFieldZone = FIELD_NORTH_ZONE;
	ld	hl, #_g_ActiveFieldZone
	ld	(hl), #0x00
;E:\Dropbox\FAUSTO\SVILUPPI\MSX\CODE\C\MSXgl\projects\soccerlg/soccerlg_s2_b1.c:151: break;
	jp	00118$
;E:\Dropbox\FAUSTO\SVILUPPI\MSX\CODE\C\MSXgl\projects\soccerlg/soccerlg_s2_b1.c:152: case FIELD_CENTRAL_ZONE:
00104$:
;E:\Dropbox\FAUSTO\SVILUPPI\MSX\CODE\C\MSXgl\projects\soccerlg/soccerlg_s2_b1.c:153: if (g_FieldCurrentYPosition != 136) {
	ld	a, (_g_FieldCurrentYPosition+0)
	sub	a, #0x88
	ld	iy, #_g_FieldCurrentYPosition
	or	a, 1 (iy)
	jr	Z, 00113$
;E:\Dropbox\FAUSTO\SVILUPPI\MSX\CODE\C\MSXgl\projects\soccerlg/soccerlg_s2_b1.c:145: g_FieldCurrentYPosition = g_FieldCurrentYPosition - g_FieldScrollSpeed;
	ld	a, (_g_FieldScrollSpeed+0)
	ld	c, a
	ld	b, #0x00
;E:\Dropbox\FAUSTO\SVILUPPI\MSX\CODE\C\MSXgl\projects\soccerlg/soccerlg_s2_b1.c:154: if (g_FieldCurrentYPosition > FIELD_CENTRAL_Y) {
	ld	a, #0x8c
	cp	a, 0 (iy)
	ld	a, #0x00
	sbc	a, 1 (iy)
	jp	PO, 00185$
	xor	a, #0x80
00185$:
	jp	P, 00110$
;E:\Dropbox\FAUSTO\SVILUPPI\MSX\CODE\C\MSXgl\projects\soccerlg/soccerlg_s2_b1.c:155: g_FieldCurrentYPosition = g_FieldCurrentYPosition - g_FieldScrollSpeed;
	ld	hl, #_g_FieldCurrentYPosition
	ld	a, (hl)
	sub	a, c
	ld	(hl), a
	inc	hl
	ld	a, (hl)
	sbc	a, b
	ld	(hl), a
;E:\Dropbox\FAUSTO\SVILUPPI\MSX\CODE\C\MSXgl\projects\soccerlg/soccerlg_s2_b1.c:156: if(g_FieldCurrentYPosition < 136) g_FieldCurrentYPosition = 136;
	ld	a, (_g_FieldCurrentYPosition+0)
	sub	a, #0x88
	ld	a, (_g_FieldCurrentYPosition+1)
	rla
	ccf
	rra
	sbc	a, #0x80
	jr	NC, 00118$
	ld	hl, #0x0088
	ld	(_g_FieldCurrentYPosition), hl
	jp	00118$
00110$:
;E:\Dropbox\FAUSTO\SVILUPPI\MSX\CODE\C\MSXgl\projects\soccerlg/soccerlg_s2_b1.c:159: g_FieldCurrentYPosition = g_FieldCurrentYPosition + g_FieldScrollSpeed;
	ld	a, c
	ld	iy, #_g_FieldCurrentYPosition
	add	a, 0 (iy)
	ld	(_g_FieldCurrentYPosition+0), a
	ld	a, b
	adc	a, 1 (iy)
	ld	(_g_FieldCurrentYPosition+1), a
;E:\Dropbox\FAUSTO\SVILUPPI\MSX\CODE\C\MSXgl\projects\soccerlg/soccerlg_s2_b1.c:160: if(g_FieldCurrentYPosition > 136) g_FieldCurrentYPosition = 136;
	ld	a, #0x88
	cp	a, 0 (iy)
	ld	a, #0x00
	sbc	a, 1 (iy)
	jp	PO, 00186$
	xor	a, #0x80
00186$:
	jp	P, 00118$
	ld	hl, #0x0088
	ld	(_g_FieldCurrentYPosition), hl
	jp	00118$
00113$:
;E:\Dropbox\FAUSTO\SVILUPPI\MSX\CODE\C\MSXgl\projects\soccerlg/soccerlg_s2_b1.c:165: g_FieldScrollingActionInProgress = NO_VALUE;
	ld	hl, #_g_FieldScrollingActionInProgress
	ld	(hl), #0xff
;E:\Dropbox\FAUSTO\SVILUPPI\MSX\CODE\C\MSXgl\projects\soccerlg/soccerlg_s2_b1.c:166: g_ActiveFieldZone = FIELD_CENTRAL_ZONE;
	ld	hl, #_g_ActiveFieldZone
	ld	(hl), #0x01
;E:\Dropbox\FAUSTO\SVILUPPI\MSX\CODE\C\MSXgl\projects\soccerlg/soccerlg_s2_b1.c:168: break;
	jp	00118$
;E:\Dropbox\FAUSTO\SVILUPPI\MSX\CODE\C\MSXgl\projects\soccerlg/soccerlg_s2_b1.c:169: case FIELD_SOUTH_ZONE:
00115$:
;E:\Dropbox\FAUSTO\SVILUPPI\MSX\CODE\C\MSXgl\projects\soccerlg/soccerlg_s2_b1.c:170: g_FieldCurrentYPosition = g_FieldCurrentYPosition + g_FieldScrollSpeed;
	ld	a, (_g_FieldScrollSpeed+0)
	ld	c, a
	ld	b, #0x00
	ld	a, c
	ld	iy, #_g_FieldCurrentYPosition
	add	a, 0 (iy)
	ld	(_g_FieldCurrentYPosition+0), a
	ld	a, b
	adc	a, 1 (iy)
	ld	(_g_FieldCurrentYPosition+1), a
;E:\Dropbox\FAUSTO\SVILUPPI\MSX\CODE\C\MSXgl\projects\soccerlg/soccerlg_s2_b1.c:171: if (g_FieldCurrentYPosition >= FIELD_BOTTOM_Y) {
	ld	a, (_g_FieldCurrentYPosition+0)
	sub	a, #0x18
	ld	a, (_g_FieldCurrentYPosition+1)
	rla
	ccf
	rra
	sbc	a, #0x81
	jr	C, 00118$
;E:\Dropbox\FAUSTO\SVILUPPI\MSX\CODE\C\MSXgl\projects\soccerlg/soccerlg_s2_b1.c:172: g_ActiveFieldZone = FIELD_SOUTH_ZONE;
	ld	hl, #_g_ActiveFieldZone
	ld	(hl), #0x02
;E:\Dropbox\FAUSTO\SVILUPPI\MSX\CODE\C\MSXgl\projects\soccerlg/soccerlg_s2_b1.c:173: g_FieldScrollingActionInProgress = NO_VALUE;
	ld	hl, #_g_FieldScrollingActionInProgress
	ld	(hl), #0xff
;E:\Dropbox\FAUSTO\SVILUPPI\MSX\CODE\C\MSXgl\projects\soccerlg/soccerlg_s2_b1.c:176: }
00118$:
;E:\Dropbox\FAUSTO\SVILUPPI\MSX\CODE\C\MSXgl\projects\soccerlg/soccerlg_s2_b1.c:177: V9_SetScrollingBY(g_FieldCurrentYPosition);
	ld	hl, (_g_FieldCurrentYPosition)
	call	_V9_SetScrollingBY
;E:\Dropbox\FAUSTO\SVILUPPI\MSX\CODE\C\MSXgl\projects\soccerlg/soccerlg_s2_b1.c:179: for(u8 i=0;i<6;i++){
	ld	b, #0x00
00121$:
	ld	a, b
	sub	a, #0x06
	ret	NC
;E:\Dropbox\FAUSTO\SVILUPPI\MSX\CODE\C\MSXgl\projects\soccerlg/soccerlg_s2_b1.c:180: Trampoline_VOID_P1(3,PutPonPonGirlSprite,i);
	push	bc
	push	bc
	inc	sp
	ld	de, #_PutPonPonGirlSprite
	ld	a, #0x03
	call	_Trampoline_VOID_P1
	pop	bc
;E:\Dropbox\FAUSTO\SVILUPPI\MSX\CODE\C\MSXgl\projects\soccerlg/soccerlg_s2_b1.c:179: for(u8 i=0;i<6;i++){
	inc	b
;E:\Dropbox\FAUSTO\SVILUPPI\MSX\CODE\C\MSXgl\projects\soccerlg/soccerlg_s2_b1.c:182: }
	jp	00121$
;E:\Dropbox\FAUSTO\SVILUPPI\MSX\CODE\C\MSXgl\projects\soccerlg/soccerlg_s2_b1.c:185: void MainSub(){
;	---------------------------------
; Function MainSub
; ---------------------------------
_MainSub::
	push	ix
	ld	ix,#0
	add	ix,sp
	dec	sp
;E:\Dropbox\FAUSTO\SVILUPPI\MSX\CODE\C\MSXgl\projects\soccerlg/soccerlg_s2_b1.c:187: DEBUG_INIT();
	call	_DEBUG_INIT
;E:\Dropbox\FAUSTO\SVILUPPI\MSX\CODE\C\MSXgl\projects\soccerlg/soccerlg_s2_b1.c:189: InitVariables();
	call	_InitVariables
;E:\Dropbox\FAUSTO\SVILUPPI\MSX\CODE\C\MSXgl\projects\soccerlg/soccerlg_s2_b1.c:191: V9_SetPort(V9_P15, 0);
	ld	l, #0x00
;	spillPairReg hl
;	spillPairReg hl
	ld	a, #0x6f
	call	_V9_SetPort
;E:\Dropbox\FAUSTO\SVILUPPI\MSX\CODE\C\MSXgl\projects\soccerlg/soccerlg_s2_b1.c:193: VDP_SetMode(VDP_MODE_SCREEN0);
	xor	a, a
	call	_VDP_SetMode
;E:/Dropbox/FAUSTO/SVILUPPI/MSX/CODE/C/MSXgl/engine/src/vdp.h:712: inline void VDP_EnableVBlank(bool enable) { VDP_RegWriteBakMask(1, (u8)~R01_IE0, enable ? R01_IE0 : 0); }
	xor	a, a
	push	af
	inc	sp
	ld	l, #0xdf
;	spillPairReg hl
;	spillPairReg hl
	ld	a, #0x01
	call	_VDP_RegWriteBakMask
;E:\Dropbox\FAUSTO\SVILUPPI\MSX\CODE\C\MSXgl\projects\soccerlg/soccerlg_s2_b1.c:195: VDP_ClearVRAM();
	call	_VDP_ClearVRAM
;E:\Dropbox\FAUSTO\SVILUPPI\MSX\CODE\C\MSXgl\projects\soccerlg/soccerlg_s2_b1.c:198: LoadMsxVdpFonts();
	call	_LoadMsxVdpFonts
;E:\Dropbox\FAUSTO\SVILUPPI\MSX\CODE\C\MSXgl\projects\soccerlg/soccerlg_s2_b1.c:200: Print_SetColor(15, 1);
	ld	l, #0x01
;	spillPairReg hl
;	spillPairReg hl
	ld	a, #0x0f
	call	_Print_SetColor
;E:/Dropbox/FAUSTO/SVILUPPI/MSX/CODE/C/MSXgl/engine/src/print.h:223: g_PrintData.CursorX = x;
	ld	bc, #_g_PrintData + 5
	xor	a, a
	ld	(bc), a
;E:/Dropbox/FAUSTO/SVILUPPI/MSX/CODE/C/MSXgl/engine/src/print.h:224: g_PrintData.CursorY = y;
	ld	hl, #(_g_PrintData + 6)
	ld	(hl), #0x00
;E:\Dropbox\FAUSTO\SVILUPPI\MSX\CODE\C\MSXgl\projects\soccerlg/soccerlg_s2_b1.c:202: Print_DrawText("Soccer League - 2026 Fausto Pracek");
	push	bc
	ld	hl, #___str_1
	call	_Print_DrawText
	pop	bc
;E:/Dropbox/FAUSTO/SVILUPPI/MSX/CODE/C/MSXgl/engine/src/print.h:223: g_PrintData.CursorX = x;
	xor	a, a
	ld	(bc), a
;E:/Dropbox/FAUSTO/SVILUPPI/MSX/CODE/C/MSXgl/engine/src/print.h:224: g_PrintData.CursorY = y;
	ld	hl, #(_g_PrintData + 6)
	ld	(hl), #0x01
;E:\Dropbox\FAUSTO\SVILUPPI\MSX\CODE\C\MSXgl\projects\soccerlg/soccerlg_s2_b1.c:204: Print_DrawText("fpracek@gmail.com");
	push	bc
	ld	hl, #___str_2
	call	_Print_DrawText
	pop	bc
;E:\Dropbox\FAUSTO\SVILUPPI\MSX\CODE\C\MSXgl\projects\soccerlg/soccerlg_s2_b1.c:206: const c8* str = "V9990 not found!";
	ld	de, #___str_0
;E:\Dropbox\FAUSTO\SVILUPPI\MSX\CODE\C\MSXgl\projects\soccerlg/soccerlg_s2_b1.c:207: bool v9990IsFound=V9_Detect();
	push	bc
	push	de
	call	_V9_Detect
	pop	de
	pop	bc
	ld	-1 (ix), a
;E:\Dropbox\FAUSTO\SVILUPPI\MSX\CODE\C\MSXgl\projects\soccerlg/soccerlg_s2_b1.c:209: if (v9990IsFound){
	or	a, a
	jr	Z, 00102$
;E:\Dropbox\FAUSTO\SVILUPPI\MSX\CODE\C\MSXgl\projects\soccerlg/soccerlg_s2_b1.c:210: str = "V9990 found!";
	ld	de, #___str_3
;E:/Dropbox/FAUSTO/SVILUPPI/MSX/CODE/C/MSXgl/engine/src/print.h:223: g_PrintData.CursorX = x;
	xor	a, a
	ld	(bc), a
;E:/Dropbox/FAUSTO/SVILUPPI/MSX/CODE/C/MSXgl/engine/src/print.h:224: g_PrintData.CursorY = y;
	ld	hl, #(_g_PrintData + 6)
	ld	(hl), #0x07
;E:\Dropbox\FAUSTO\SVILUPPI\MSX\CODE\C\MSXgl\projects\soccerlg/soccerlg_s2_b1.c:212: Print_DrawText("The game is running on V9990 monitor.");
	push	bc
	push	de
	ld	hl, #___str_4
	call	_Print_DrawText
	pop	de
	pop	bc
00102$:
;E:/Dropbox/FAUSTO/SVILUPPI/MSX/CODE/C/MSXgl/engine/src/print.h:223: g_PrintData.CursorX = x;
	xor	a, a
	ld	(bc), a
;E:/Dropbox/FAUSTO/SVILUPPI/MSX/CODE/C/MSXgl/engine/src/print.h:224: g_PrintData.CursorY = y;
	ld	hl, #(_g_PrintData + 6)
	ld	(hl), #0x03
;E:\Dropbox\FAUSTO\SVILUPPI\MSX\CODE\C\MSXgl\projects\soccerlg/soccerlg_s2_b1.c:215: Print_DrawText(str);
	ex	de, hl
	call	_Print_DrawText
;E:\Dropbox\FAUSTO\SVILUPPI\MSX\CODE\C\MSXgl\projects\soccerlg/soccerlg_s2_b1.c:216: if(!v9990IsFound){
	ld	a, -1 (ix)
	or	a, a
	jr	NZ, 00105$
00113$:
	jp	00113$
00105$:
;E:/Dropbox/FAUSTO/SVILUPPI/MSX/CODE/C/MSXgl/engine/src/v9990.h:574: inline void V9_SetInterrupt(u8 flags) { V9_SetRegister(9, flags); }
	ld	l, #0x00
;	spillPairReg hl
;	spillPairReg hl
	ld	a, #0x09
	call	_V9_SetRegister
;E:\Dropbox\FAUSTO\SVILUPPI\MSX\CODE\C\MSXgl\projects\soccerlg/soccerlg_s2_b1.c:222: LoadPresentation();
	call	_LoadPresentation
;E:\Dropbox\FAUSTO\SVILUPPI\MSX\CODE\C\MSXgl\projects\soccerlg/soccerlg_s2_b1.c:223: Trampoline_VOID(3,InitializeMenuV9990Layers);
	ld	de, #_InitializeMenuV9990Layers
	ld	a, #0x03
	call	_Trampoline_VOID
;E:\Dropbox\FAUSTO\SVILUPPI\MSX\CODE\C\MSXgl\projects\soccerlg/soccerlg_s2_b1.c:224: Trampoline_VOID(4,ShowMenu);
	ld	de, #_ShowMenu
	ld	a, #0x04
	call	_Trampoline_VOID
;E:\Dropbox\FAUSTO\SVILUPPI\MSX\CODE\C\MSXgl\projects\soccerlg/soccerlg_s2_b1.c:225: V9_SetPort(V9_P15, 0x10);
	ld	l, #0x10
;	spillPairReg hl
;	spillPairReg hl
	ld	a, #0x6f
	call	_V9_SetPort
;E:\Dropbox\FAUSTO\SVILUPPI\MSX\CODE\C\MSXgl\projects\soccerlg/soccerlg_s2_b1.c:228: }
	inc	sp
	pop	ix
	ret
___str_0:
	.ascii "V9990 not found!"
	.db 0x00
___str_1:
	.ascii "Soccer League - 2026 Fausto Pracek"
	.db 0x00
___str_2:
	.ascii "fpracek@gmail.com"
	.db 0x00
___str_3:
	.ascii "V9990 found!"
	.db 0x00
___str_4:
	.ascii "The game is running on V9990 monitor."
	.db 0x00
	.area _SEG2
	.area _INITIALIZER
	.area _CABS (ABS)
