                                      1 ;--------------------------------------------------------
                                      2 ; File Created by SDCC : free open source ANSI-C Compiler
                                      3 ; Version 4.2.0 #13081 (MINGW64)
                                      4 ;--------------------------------------------------------
                                      5 	.module soccerlg_s4_b1
                                      6 	.optsdcc -mz80
                                      7 	
                                      8 ;--------------------------------------------------------
                                      9 ; Public variables in this module
                                     10 ;--------------------------------------------------------
                                     11 	.globl _VGM_Stop
                                     12 	.globl _PSG_Mute
                                     13 	.globl _InitPonPonGirls
                                     14 	.globl _SetPlayerBallPossession
                                     15 	.globl _V9990_PrintLayerAStringAtPos
                                     16 	.globl _V9990_InitPalette
                                     17 	.globl _IsTeamJoystickTriggerPressed
                                     18 	.globl _GetJoystickDirection
                                     19 	.globl _PlayPcm
                                     20 	.globl _Trampoline_VOID_RETURN
                                     21 	.globl _Trampoline_VOID_P1
                                     22 	.globl _Trampoline_VOID
                                     23 	.globl _V9990_LoadButtonsImageData
                                     24 	.globl _V9990_LoadSprites
                                     25 	.globl _V9990_LoadP1LayerB
                                     26 	.globl _V9990_LoadP1LayerA
                                     27 	.globl _V9990_LoadMenuTeamsData
                                     28 	.globl _V9990_WaitSynch
                                     29 	.globl _V9_SetPaletteEntry
                                     30 	.globl _V9_SetScrollingBY
                                     31 	.globl _V9_SetScrollingY
                                     32 	.globl _V9_Poke16_CurrentAddr
                                     33 	.globl _V9_WriteVRAM_CurrentAddr
                                     34 	.globl _V9_FillVRAM_CurrentAddr
                                     35 	.globl _V9_SetWriteAddress
                                     36 	.globl _V9_GetRegister
                                     37 	.globl _V9_SetRegister
                                     38 	.globl _g_SLTSL
                                     39 	.globl _g_GRPACY
                                     40 	.globl _g_GRPACX
                                     41 	.globl _g_LOGOPR
                                     42 	.globl _g_CMASK
                                     43 	.globl _g_CLOC
                                     44 	.globl _g_FNKSTR
                                     45 	.globl _g_ATRBYT
                                     46 	.globl _g_BDRCLR
                                     47 	.globl _g_BAKCLR
                                     48 	.globl _g_FORCLR
                                     49 	.globl _g_CSRX
                                     50 	.globl _g_CSRY
                                     51 	.globl _g_CLIKSW
                                     52 	.globl _g_MLTPAT
                                     53 	.globl _g_MLTATR
                                     54 	.globl _g_MLTCGP
                                     55 	.globl _g_MLTCOL
                                     56 	.globl _g_MLTNAM
                                     57 	.globl _g_GRPPAT
                                     58 	.globl _g_GRPATR
                                     59 	.globl _g_GRPCGP
                                     60 	.globl _g_GRPCOL
                                     61 	.globl _g_GRPNAM
                                     62 	.globl _g_T32PAT
                                     63 	.globl _g_T32ATR
                                     64 	.globl _g_T32CGP
                                     65 	.globl _g_T32COL
                                     66 	.globl _g_T32NAM
                                     67 	.globl _g_TXTPAT
                                     68 	.globl _g_TXTATR
                                     69 	.globl _g_TXTCGP
                                     70 	.globl _g_TXTCOL
                                     71 	.globl _g_TXTNAM
                                     72 	.globl _g_CLMLST
                                     73 	.globl _g_CRTCNT
                                     74 	.globl _g_LINLEN
                                     75 	.globl _g_LINL32
                                     76 	.globl _g_LINL40
                                     77 	.globl _g_Data_Palette_Team_BRA
                                     78 	.globl _g_Data_Palette_Team_GBR
                                     79 	.globl _g_Data_Palette_Team_GER
                                     80 	.globl _g_Data_Palette_Team_FRA
                                     81 	.globl _g_Data_Palette_Team_AUS
                                     82 	.globl _g_Data_Palette_Team_ITA
                                     83 	.globl _g_BDOS
                                     84 	.globl _g_MASTER
                                     85 	.globl _g_RAMAD3
                                     86 	.globl _g_RAMAD2
                                     87 	.globl _g_RAMAD1
                                     88 	.globl _g_RAMAD0
                                     89 	.globl _g_BREAKV
                                     90 	.globl _g_DISKVE
                                     91 	.globl _g_KANJTABLE
                                     92 	.globl _g_STRSRC
                                     93 	.globl _g_SUBRID
                                     94 	.globl _g_CHAR_16
                                     95 	.globl _g_MSXMID
                                     96 	.globl _g_MSXVER
                                     97 	.globl _g_ROMVersion
                                     98 	.globl _g_BASRVN
                                     99 	.globl _g_VDP_DW
                                    100 	.globl _g_VDP_DR
                                    101 	.globl _g_CGTABL
                                    102 	.globl _g_SVFFFD
                                    103 	.globl _g_RG27SAV
                                    104 	.globl _g_RG26SAV
                                    105 	.globl _g_RG25SAV
                                    106 	.globl _g_SVFFF8
                                    107 	.globl _g_MINROM
                                    108 	.globl _g_RG23SAV
                                    109 	.globl _g_RG22SAV
                                    110 	.globl _g_RG21SAV
                                    111 	.globl _g_RG20SAV
                                    112 	.globl _g_RG19SAV
                                    113 	.globl _g_RG18SAV
                                    114 	.globl _g_RG17SAV
                                    115 	.globl _g_RG16SAV
                                    116 	.globl _g_RG15SAV
                                    117 	.globl _g_RG14SAV
                                    118 	.globl _g_RG13SAV
                                    119 	.globl _g_RG12SAV
                                    120 	.globl _g_RG11SAV
                                    121 	.globl _g_RG10SAV
                                    122 	.globl _g_RG09SAV
                                    123 	.globl _g_RG08SAV
                                    124 	.globl _g_PROCNM
                                    125 	.globl _g_SLTWRK
                                    126 	.globl _g_SLTATR
                                    127 	.globl _g_SLTTBL
                                    128 	.globl _g_EXPTBL
                                    129 	.globl _g_MNROM
                                    130 	.globl _g_DRWANG
                                    131 	.globl _g_DRWSCL
                                    132 	.globl _g_DRWFLG
                                    133 	.globl _g_GYPOS
                                    134 	.globl _g_GXPOS
                                    135 	.globl _g_BRDATR
                                    136 	.globl _g_CASPRV
                                    137 	.globl _g_OLDSCR
                                    138 	.globl _g_SCRMOD
                                    139 	.globl _g_FLBMEM
                                    140 	.globl _g_KANAMD
                                    141 	.globl _g_KANAST
                                    142 	.globl _g_CAPST
                                    143 	.globl _g_CSTYLE
                                    144 	.globl _g_CSRSW
                                    145 	.globl _g_INSFLG
                                    146 	.globl _g_ESCCNT
                                    147 	.globl _g_GRPHED
                                    148 	.globl _g_WINWID
                                    149 	.globl _g_LOWLIM
                                    150 	.globl _g_INTCNT
                                    151 	.globl _g_INTVAL
                                    152 	.globl _g_JIFFY
                                    153 	.globl _g_PADX
                                    154 	.globl _g_PADY
                                    155 	.globl _g_INTFLG
                                    156 	.globl _g_RTYCNT
                                    157 	.globl _g_TRPTBL
                                    158 	.globl _g_HIMEM
                                    159 	.globl _g_BOTTOM
                                    160 	.globl _g_PATWRK
                                    161 	.globl _g_LINWRK
                                    162 	.globl _g_KEYBUF
                                    163 	.globl _g_NEWKEY
                                    164 	.globl _g_OLDKEY
                                    165 	.globl _g_CLIKFL
                                    166 	.globl _g_ONGSBF
                                    167 	.globl _g_FNKFLG
                                    168 	.globl _g_FNKSWI
                                    169 	.globl _g_CODSAV
                                    170 	.globl _g_FSTPOS
                                    171 	.globl _g_LINTTB
                                    172 	.globl _g_BASROM
                                    173 	.globl _g_ENSTOP
                                    174 	.globl _g_VCBC
                                    175 	.globl _g_VCBB
                                    176 	.globl _g_VCBA
                                    177 	.globl _g_PLYCNT
                                    178 	.globl _g_MUSICF
                                    179 	.globl _g_QUEUEN
                                    180 	.globl _g_MCLPTR
                                    181 	.globl _g_MCLLEN
                                    182 	.globl _g_SAVVOL
                                    183 	.globl _g_VOICEN
                                    184 	.globl _g_SAVSP
                                    185 	.globl _g_PRSCNT
                                    186 	.globl _g_LSTMOD
                                    187 	.globl _g_LSTCOM
                                    188 	.globl _g_COMMSK
                                    189 	.globl _g_ESTBLS
                                    190 	.globl _g_FLAGS
                                    191 	.globl _g_ERRORS
                                    192 	.globl _g_DATCNT
                                    193 	.globl _g_DEVNUM
                                    194 	.globl _g_OLDINT
                                    195 	.globl _g_OLDSTT
                                    196 	.globl _g_MEXBIh
                                    197 	.globl _g_RSIQLN
                                    198 	.globl _g_RSFCB
                                    199 	.globl _g_TOCNT
                                    200 	.globl _g_RSTMP
                                    201 	.globl _g_YSAVE
                                    202 	.globl _g_XSAVE
                                    203 	.globl _g_NORUSE
                                    204 	.globl _g_MODE
                                    205 	.globl _g_ROMA
                                    206 	.globl _g_CHRCNT
                                    207 	.globl _g_EXBRSA
                                    208 	.globl _g_AVCSAV
                                    209 	.globl _g_ACPAGE
                                    210 	.globl _g_DPPAGE
                                    211 	.globl _g_RS2IQ
                                    212 	.globl _g_VOICCQ
                                    213 	.globl _g_VOICBQ
                                    214 	.globl _g_VOICAQ
                                    215 	.globl _g_QUEBAK
                                    216 	.globl _g_QUETAB
                                    217 	.globl _g_ASPCT2
                                    218 	.globl _g_ASPCT1
                                    219 	.globl _g_HEADER
                                    220 	.globl _g_HIGH
                                    221 	.globl _g_LOW
                                    222 	.globl _g_CS240
                                    223 	.globl _g_CS120
                                    224 	.globl _g_GETPNT
                                    225 	.globl _g_PUTPNT
                                    226 	.globl _g_REPCNT
                                    227 	.globl _g_SCNCNT
                                    228 	.globl _g_FRCNEW
                                    229 	.globl _g_QUEUES
                                    230 	.globl _g_MINUPD
                                    231 	.globl _g_MAXUPD
                                    232 	.globl _g_TRGFLG
                                    233 	.globl _g_STATFL
                                    234 	.globl _g_RG7SAV
                                    235 	.globl _g_RG6SAV
                                    236 	.globl _g_RG5SAV
                                    237 	.globl _g_RG4SAV
                                    238 	.globl _g_RG3SAV
                                    239 	.globl _g_RG2SAV
                                    240 	.globl _g_RG1SAV
                                    241 	.globl _g_RG0SAV
                                    242 	.globl _g_CNSDFG
                                    243 	.globl _g_USRTAB
                                    244 	.globl _g_CLPRIM
                                    245 	.globl _g_WRPRIM
                                    246 	.globl _g_RDPRIM
                                    247 	.globl _SelectTeam
                                    248 	.globl _MenuSpriteBlinking
                                    249 	.globl _ResetPlayersInfo
                                    250 	.globl _ShowMenu
                                    251 	.globl _SetTeam1Palette
                                    252 	.globl _SetTeam2Palette
                                    253 	.globl _GetTeamPaletteById
                                    254 	.globl _GameStart
                                    255 	.globl _PrintTeamName
                                    256 	.globl _GetNumberString
                                    257 	.globl _ShowHeaderInfo
                                    258 	.globl _ShowFieldZone
                                    259 	.globl _SetTeamsPresentationSpritesPosition
                                    260 	.globl _ResetBallInfo
                                    261 	.globl _SetPlayerTarget
                                    262 	.globl _ShowField
                                    263 ;--------------------------------------------------------
                                    264 ; special function registers
                                    265 ;--------------------------------------------------------
                         000000A8   266 _g_PortPrimarySlot	=	0x00a8
                         000000A9   267 _g_PortReadKeyboard	=	0x00a9
                         000000AA   268 _g_PortAccessKeyboard	=	0x00aa
                         000000AB   269 _g_PortControl	=	0x00ab
                         00000098   270 _g_VDP_DataPort	=	0x0098
                         00000099   271 _g_VDP_RegPort	=	0x0099
                         00000099   272 _g_VDP_AddrPort	=	0x0099
                         00000099   273 _g_VDP_StatPort	=	0x0099
                         000000A0   274 _g_PSG_RegPort	=	0x00a0
                         000000A1   275 _g_PSG_DataPort	=	0x00a1
                         000000A2   276 _g_PSG_StatPort	=	0x00a2
                         00000010   277 _g_PSG_Ext_RegPort	=	0x0010
                         00000011   278 _g_PSG_Ext_DataPort	=	0x0011
                         00000012   279 _g_PSG_Ext_StatPort	=	0x0012
                         0000007C   280 _g_MSXMusic_IndexPort	=	0x007c
                         0000007D   281 _g_MSXMusic_DataPort	=	0x007d
                         000000C0   282 _g_MSXAudio_IndexPort	=	0x00c0
                         000000C1   283 _g_MSXAudio_DataPort	=	0x00c1
                         000000C2   284 _g_MSXAudio_IndexPort2	=	0x00c2
                         000000C3   285 _g_MSXAudio_DataPort2	=	0x00c3
                         000000B4   286 _g_RTC_AddrPort	=	0x00b4
                         000000B5   287 _g_RTC_DataPort	=	0x00b5
                         00000060   288 _g_V9_VRAMPort	=	0x0060
                         00000061   289 _g_V9_PalettePort	=	0x0061
                         00000062   290 _g_V9_CmdDataPort	=	0x0062
                         00000063   291 _g_V9_RegDataPort	=	0x0063
                         00000064   292 _g_V9_RegSelectPort	=	0x0064
                         00000065   293 _g_V9_SatusPort	=	0x0065
                         00000066   294 _g_V9_IntFlagPort	=	0x0066
                         00000067   295 _g_V9_SysCtrlPort	=	0x0067
                         00000068   296 _g_V9_KanjiAddrLPort	=	0x0068
                         00000069   297 _g_V9_KanjiAddrHPort	=	0x0069
                         00000069   298 _g_V9_KanjiDataPort	=	0x0069
                         0000006A   299 _g_V9_Kanji2AddrLPort	=	0x006a
                         0000006B   300 _g_V9_Kanji2AddrHPort	=	0x006b
                         0000006B   301 _g_V9_Kanji2DataPort	=	0x006b
                         0000006F   302 _g_V9_OutputCtrPort	=	0x006f
                                    303 ;--------------------------------------------------------
                                    304 ; ram data
                                    305 ;--------------------------------------------------------
                                    306 	.area _DATA
                         0000F3AE   307 _g_LINL40	=	0xf3ae
                         0000F3AF   308 _g_LINL32	=	0xf3af
                         0000F3B0   309 _g_LINLEN	=	0xf3b0
                         0000F3B1   310 _g_CRTCNT	=	0xf3b1
                         0000F3B2   311 _g_CLMLST	=	0xf3b2
                         0000F3B3   312 _g_TXTNAM	=	0xf3b3
                         0000F3B5   313 _g_TXTCOL	=	0xf3b5
                         0000F3B7   314 _g_TXTCGP	=	0xf3b7
                         0000F3B9   315 _g_TXTATR	=	0xf3b9
                         0000F3BB   316 _g_TXTPAT	=	0xf3bb
                         0000F3BD   317 _g_T32NAM	=	0xf3bd
                         0000F3BF   318 _g_T32COL	=	0xf3bf
                         0000F3C1   319 _g_T32CGP	=	0xf3c1
                         0000F3C3   320 _g_T32ATR	=	0xf3c3
                         0000F3C5   321 _g_T32PAT	=	0xf3c5
                         0000F3C7   322 _g_GRPNAM	=	0xf3c7
                         0000F3C9   323 _g_GRPCOL	=	0xf3c9
                         0000F3CB   324 _g_GRPCGP	=	0xf3cb
                         0000F3CD   325 _g_GRPATR	=	0xf3cd
                         0000F3CF   326 _g_GRPPAT	=	0xf3cf
                         0000F3D1   327 _g_MLTNAM	=	0xf3d1
                         0000F3D3   328 _g_MLTCOL	=	0xf3d3
                         0000F3D5   329 _g_MLTCGP	=	0xf3d5
                         0000F3D7   330 _g_MLTATR	=	0xf3d7
                         0000F3D9   331 _g_MLTPAT	=	0xf3d9
                         0000F3DB   332 _g_CLIKSW	=	0xf3db
                         0000F3DC   333 _g_CSRY	=	0xf3dc
                         0000F3DD   334 _g_CSRX	=	0xf3dd
                         0000F3E9   335 _g_FORCLR	=	0xf3e9
                         0000F3EA   336 _g_BAKCLR	=	0xf3ea
                         0000F3EB   337 _g_BDRCLR	=	0xf3eb
                         0000F3F2   338 _g_ATRBYT	=	0xf3f2
                         0000F87F   339 _g_FNKSTR	=	0xf87f
                         0000F92A   340 _g_CLOC	=	0xf92a
                         0000F92C   341 _g_CMASK	=	0xf92c
                         0000FB02   342 _g_LOGOPR	=	0xfb02
                         0000FCB7   343 _g_GRPACX	=	0xfcb7
                         0000FCB9   344 _g_GRPACY	=	0xfcb9
                         0000FFFF   345 _g_SLTSL	=	0xffff
    00000000                        346 _GetNumberString_str_65536_1406:
    00000000                        347 	.ds 5
                                    348 ;--------------------------------------------------------
                                    349 ; ram data
                                    350 ;--------------------------------------------------------
                                    351 	.area _INITIALIZED
                                    352 ;--------------------------------------------------------
                                    353 ; absolute external ram data
                                    354 ;--------------------------------------------------------
                                    355 	.area _DABS (ABS)
                                    356 ;--------------------------------------------------------
                                    357 ; global & static initialisations
                                    358 ;--------------------------------------------------------
                                    359 	.area _HOME
                                    360 	.area _GSINIT
                                    361 	.area _GSFINAL
                                    362 	.area _GSINIT
                                    363 ;--------------------------------------------------------
                                    364 ; Home
                                    365 ;--------------------------------------------------------
                                    366 	.area _HOME
                                    367 	.area _HOME
                                    368 ;--------------------------------------------------------
                                    369 ; code
                                    370 ;--------------------------------------------------------
                                    371 	.area _SEG4
                                    372 ;E:\Dropbox\FAUSTO\SVILUPPI\MSX\CODE\C\MSXgl\projects\soccerlg/soccerlg_s4_b1.c:157: u8 SelectTeam(u8 cursorPatternId, u8 excludeIndex) {
                                    373 ;	---------------------------------
                                    374 ; Function SelectTeam
                                    375 ; ---------------------------------
    00000000                        376 _SelectTeam::
    00000000 DD E5            [15]  377 	push	ix
    00000002 DD 21 00 00      [14]  378 	ld	ix,#0
    00000006 DD 39            [15]  379 	add	ix,sp
    00000008 FD 21 F6 FF      [14]  380 	ld	iy, #-10
    0000000C FD 39            [15]  381 	add	iy, sp
    0000000E FD F9            [10]  382 	ld	sp, iy
    00000010 DD 77 FF         [19]  383 	ld	-1 (ix), a
    00000013 DD 75 FE         [19]  384 	ld	-2 (ix), l
                                    385 ;E:\Dropbox\FAUSTO\SVILUPPI\MSX\CODE\C\MSXgl\projects\soccerlg/soccerlg_s4_b1.c:159: u8 currentIdx = 0;
    00000016 DD 36 FA 00      [19]  386 	ld	-6 (ix), #0x00
                                    387 ;E:\Dropbox\FAUSTO\SVILUPPI\MSX\CODE\C\MSXgl\projects\soccerlg/soccerlg_s4_b1.c:160: if (currentIdx == excludeIndex) currentIdx++;
    0000001A DD 7E FE         [19]  388 	ld	a, -2 (ix)
    0000001D B7               [ 4]  389 	or	a, a
    0000001E 20 04            [12]  390 	jr	NZ, 00102$
    00000020 DD 36 FA 01      [19]  391 	ld	-6 (ix), #0x01
    00000024                        392 00102$:
                                    393 ;E:\Dropbox\FAUSTO\SVILUPPI\MSX\CODE\C\MSXgl\projects\soccerlg/soccerlg_s4_b1.c:163: u8 oldDir = DIRECTION_NONE;
    00000024 DD 36 FD 00      [19]  394 	ld	-3 (ix), #0x00
                                    395 ;E:\Dropbox\FAUSTO\SVILUPPI\MSX\CODE\C\MSXgl\projects\soccerlg/soccerlg_s4_b1.c:165: bool oldTrigger = true; // Force release first
    00000028 DD 36 FB 01      [19]  396 	ld	-5 (ix), #0x01
                                    397 ;E:\Dropbox\FAUSTO\SVILUPPI\MSX\CODE\C\MSXgl\projects\soccerlg/soccerlg_s4_b1.c:167: while (true) {
    0000002C                        398 00143$:
                                    399 ;E:\Dropbox\FAUSTO\SVILUPPI\MSX\CODE\C\MSXgl\projects\soccerlg/soccerlg_s4_b1.c:168: V9990_WaitSynch();
    0000002C CDr00r00         [17]  400 	call	_V9990_WaitSynch
                                    401 ;E:\Dropbox\FAUSTO\SVILUPPI\MSX\CODE\C\MSXgl\projects\soccerlg/soccerlg_s4_b1.c:169: dir=Trampoline_VOID_RETURN(2,GetJoystickDirection);
    0000002F 11r00r00         [10]  402 	ld	de, #_GetJoystickDirection
    00000032 3E 02            [ 7]  403 	ld	a, #0x02
    00000034 CDr00r00         [17]  404 	call	_Trampoline_VOID_RETURN
    00000037 4F               [ 4]  405 	ld	c, a
                                    406 ;E:\Dropbox\FAUSTO\SVILUPPI\MSX\CODE\C\MSXgl\projects\soccerlg/soccerlg_s4_b1.c:171: trigger=Trampoline_VOID_RETURN(2,IsTeamJoystickTriggerPressed);
    00000038 C5               [11]  407 	push	bc
    00000039 11r00r00         [10]  408 	ld	de, #_IsTeamJoystickTriggerPressed
    0000003C 3E 02            [ 7]  409 	ld	a, #0x02
    0000003E CDr00r00         [17]  410 	call	_Trampoline_VOID_RETURN
    00000041 C1               [10]  411 	pop	bc
    00000042 DD 77 FC         [19]  412 	ld	-4 (ix), a
                                    413 ;E:\Dropbox\FAUSTO\SVILUPPI\MSX\CODE\C\MSXgl\projects\soccerlg/soccerlg_s4_b1.c:173: if (dir != DIRECTION_NONE && dir != oldDir) {
    00000045 79               [ 4]  414 	ld	a, c
    00000046 B7               [ 4]  415 	or	a, a
    00000047 CAr22r01         [10]  416 	jp	Z, 00137$
    0000004A 79               [ 4]  417 	ld	a, c
    0000004B DD 96 FD         [19]  418 	sub	a, -3 (ix)
    0000004E CAr22r01         [10]  419 	jp	Z,00137$
                                    420 ;E:\Dropbox\FAUSTO\SVILUPPI\MSX\CODE\C\MSXgl\projects\soccerlg/soccerlg_s4_b1.c:174: u8 nextIdx = currentIdx;
    00000051 DD 46 FA         [19]  421 	ld	b, -6 (ix)
                                    422 ;E:\Dropbox\FAUSTO\SVILUPPI\MSX\CODE\C\MSXgl\projects\soccerlg/soccerlg_s4_b1.c:176: if (dir == DIRECTION_RIGHT) {
    00000054 79               [ 4]  423 	ld	a, c
    00000055 D6 03            [ 7]  424 	sub	a, #0x03
    00000057 3E 01            [ 7]  425 	ld	a, #0x01
    00000059 28 01            [12]  426 	jr	Z, 00248$
    0000005B AF               [ 4]  427 	xor	a, a
    0000005C                        428 00248$:
    0000005C DD 77 FD         [19]  429 	ld	-3 (ix), a
    0000005F B7               [ 4]  430 	or	a, a
    00000060 28 1F            [12]  431 	jr	Z, 00120$
                                    432 ;E:\Dropbox\FAUSTO\SVILUPPI\MSX\CODE\C\MSXgl\projects\soccerlg/soccerlg_s4_b1.c:177: if ((currentIdx % 3) < 2) nextIdx++;
    00000062 DD 6E FA         [19]  433 	ld	l, -6 (ix)
                                    434 ;	spillPairReg hl
                                    435 ;	spillPairReg hl
    00000065 26 00            [ 7]  436 	ld	h, #0x00
                                    437 ;	spillPairReg hl
                                    438 ;	spillPairReg hl
    00000067 C5               [11]  439 	push	bc
    00000068 11 03 00         [10]  440 	ld	de, #0x0003
    0000006B CDr00r00         [17]  441 	call	__modsint
    0000006E C1               [10]  442 	pop	bc
    0000006F 7B               [ 4]  443 	ld	a, e
    00000070 D6 02            [ 7]  444 	sub	a, #0x02
    00000072 7A               [ 4]  445 	ld	a, d
    00000073 17               [ 4]  446 	rla
    00000074 3F               [ 4]  447 	ccf
    00000075 1F               [ 4]  448 	rra
    00000076 DE 80            [ 7]  449 	sbc	a, #0x80
    00000078 30 51            [12]  450 	jr	NC, 00121$
    0000007A DD 46 FA         [19]  451 	ld	b, -6 (ix)
    0000007D 04               [ 4]  452 	inc	b
    0000007E C3rCBr00         [10]  453 	jp	00121$
    00000081                        454 00120$:
                                    455 ;E:\Dropbox\FAUSTO\SVILUPPI\MSX\CODE\C\MSXgl\projects\soccerlg/soccerlg_s4_b1.c:178: } else if (dir == DIRECTION_LEFT) {
    00000081 79               [ 4]  456 	ld	a, c
    00000082 D6 07            [ 7]  457 	sub	a, #0x07
    00000084 20 1F            [12]  458 	jr	NZ, 00117$
                                    459 ;E:\Dropbox\FAUSTO\SVILUPPI\MSX\CODE\C\MSXgl\projects\soccerlg/soccerlg_s4_b1.c:179: if ((currentIdx % 3) > 0) nextIdx--;
    00000086 DD 6E FA         [19]  460 	ld	l, -6 (ix)
                                    461 ;	spillPairReg hl
                                    462 ;	spillPairReg hl
    00000089 26 00            [ 7]  463 	ld	h, #0x00
                                    464 ;	spillPairReg hl
                                    465 ;	spillPairReg hl
    0000008B C5               [11]  466 	push	bc
    0000008C 11 03 00         [10]  467 	ld	de, #0x0003
    0000008F CDr00r00         [17]  468 	call	__modsint
    00000092 C1               [10]  469 	pop	bc
    00000093 AF               [ 4]  470 	xor	a, a
    00000094 BB               [ 4]  471 	cp	a, e
    00000095 9A               [ 4]  472 	sbc	a, d
    00000096 E2r9Br00         [10]  473 	jp	PO, 00251$
    00000099 EE 80            [ 7]  474 	xor	a, #0x80
    0000009B                        475 00251$:
    0000009B F2rCBr00         [10]  476 	jp	P, 00121$
    0000009E DD 46 FA         [19]  477 	ld	b, -6 (ix)
    000000A1 05               [ 4]  478 	dec	b
    000000A2 C3rCBr00         [10]  479 	jp	00121$
    000000A5                        480 00117$:
                                    481 ;E:\Dropbox\FAUSTO\SVILUPPI\MSX\CODE\C\MSXgl\projects\soccerlg/soccerlg_s4_b1.c:180: } else if (dir == DIRECTION_UP) {
    000000A5 79               [ 4]  482 	ld	a, c
    000000A6 3D               [ 4]  483 	dec	a
    000000A7 20 10            [12]  484 	jr	NZ, 00114$
                                    485 ;E:\Dropbox\FAUSTO\SVILUPPI\MSX\CODE\C\MSXgl\projects\soccerlg/soccerlg_s4_b1.c:181: if (currentIdx >= 3) nextIdx -= 3;
    000000A9 DD 7E FA         [19]  486 	ld	a, -6 (ix)
    000000AC D6 03            [ 7]  487 	sub	a, #0x03
    000000AE 38 1B            [12]  488 	jr	C, 00121$
    000000B0 DD 7E FA         [19]  489 	ld	a, -6 (ix)
    000000B3 C6 FD            [ 7]  490 	add	a, #0xfd
    000000B5 47               [ 4]  491 	ld	b, a
    000000B6 C3rCBr00         [10]  492 	jp	00121$
    000000B9                        493 00114$:
                                    494 ;E:\Dropbox\FAUSTO\SVILUPPI\MSX\CODE\C\MSXgl\projects\soccerlg/soccerlg_s4_b1.c:182: } else if (dir == DIRECTION_DOWN) {
    000000B9 79               [ 4]  495 	ld	a, c
    000000BA D6 05            [ 7]  496 	sub	a, #0x05
    000000BC 20 0D            [12]  497 	jr	NZ, 00121$
                                    498 ;E:\Dropbox\FAUSTO\SVILUPPI\MSX\CODE\C\MSXgl\projects\soccerlg/soccerlg_s4_b1.c:183: if (currentIdx < 3) nextIdx += 3;
    000000BE DD 7E FA         [19]  499 	ld	a, -6 (ix)
    000000C1 D6 03            [ 7]  500 	sub	a, #0x03
    000000C3 30 06            [12]  501 	jr	NC, 00121$
    000000C5 DD 7E FA         [19]  502 	ld	a, -6 (ix)
    000000C8 C6 03            [ 7]  503 	add	a, #0x03
    000000CA 47               [ 4]  504 	ld	b, a
    000000CB                        505 00121$:
                                    506 ;E:\Dropbox\FAUSTO\SVILUPPI\MSX\CODE\C\MSXgl\projects\soccerlg/soccerlg_s4_b1.c:186: if (nextIdx == excludeIndex) {
    000000CB DD 7E FE         [19]  507 	ld	a, -2 (ix)
    000000CE 90               [ 4]  508 	sub	a, b
    000000CF 20 4E            [12]  509 	jr	NZ, 00135$
                                    510 ;E:\Dropbox\FAUSTO\SVILUPPI\MSX\CODE\C\MSXgl\projects\soccerlg/soccerlg_s4_b1.c:187: if (dir == DIRECTION_RIGHT) {
    000000D1 DD 7E FD         [19]  511 	ld	a, -3 (ix)
    000000D4 B7               [ 4]  512 	or	a, a
    000000D5 28 20            [12]  513 	jr	Z, 00132$
                                    514 ;E:\Dropbox\FAUSTO\SVILUPPI\MSX\CODE\C\MSXgl\projects\soccerlg/soccerlg_s4_b1.c:188: if ((nextIdx % 3) < 2) nextIdx++; else nextIdx = currentIdx;
    000000D7 68               [ 4]  515 	ld	l, b
                                    516 ;	spillPairReg hl
                                    517 ;	spillPairReg hl
    000000D8 26 00            [ 7]  518 	ld	h, #0x00
                                    519 ;	spillPairReg hl
                                    520 ;	spillPairReg hl
    000000DA C5               [11]  521 	push	bc
    000000DB 11 03 00         [10]  522 	ld	de, #0x0003
    000000DE CDr00r00         [17]  523 	call	__modsint
    000000E1 C1               [10]  524 	pop	bc
    000000E2 7B               [ 4]  525 	ld	a, e
    000000E3 D6 02            [ 7]  526 	sub	a, #0x02
    000000E5 7A               [ 4]  527 	ld	a, d
    000000E6 17               [ 4]  528 	rla
    000000E7 3F               [ 4]  529 	ccf
    000000E8 1F               [ 4]  530 	rra
    000000E9 DE 80            [ 7]  531 	sbc	a, #0x80
    000000EB 30 04            [12]  532 	jr	NC, 00123$
    000000ED 04               [ 4]  533 	inc	b
    000000EE C3r1Fr01         [10]  534 	jp	00135$
    000000F1                        535 00123$:
    000000F1 DD 46 FA         [19]  536 	ld	b, -6 (ix)
    000000F4 C3r1Fr01         [10]  537 	jp	00135$
    000000F7                        538 00132$:
                                    539 ;E:\Dropbox\FAUSTO\SVILUPPI\MSX\CODE\C\MSXgl\projects\soccerlg/soccerlg_s4_b1.c:189: } else if (dir == DIRECTION_LEFT) {
    000000F7 79               [ 4]  540 	ld	a, c
    000000F8 D6 07            [ 7]  541 	sub	a, #0x07
    000000FA 20 20            [12]  542 	jr	NZ, 00129$
                                    543 ;E:\Dropbox\FAUSTO\SVILUPPI\MSX\CODE\C\MSXgl\projects\soccerlg/soccerlg_s4_b1.c:190: if ((nextIdx % 3) > 0) nextIdx--; else nextIdx = currentIdx;
    000000FC 68               [ 4]  544 	ld	l, b
                                    545 ;	spillPairReg hl
                                    546 ;	spillPairReg hl
    000000FD 26 00            [ 7]  547 	ld	h, #0x00
                                    548 ;	spillPairReg hl
                                    549 ;	spillPairReg hl
    000000FF C5               [11]  550 	push	bc
    00000100 11 03 00         [10]  551 	ld	de, #0x0003
    00000103 CDr00r00         [17]  552 	call	__modsint
    00000106 C1               [10]  553 	pop	bc
    00000107 AF               [ 4]  554 	xor	a, a
    00000108 BB               [ 4]  555 	cp	a, e
    00000109 9A               [ 4]  556 	sbc	a, d
    0000010A E2r0Fr01         [10]  557 	jp	PO, 00260$
    0000010D EE 80            [ 7]  558 	xor	a, #0x80
    0000010F                        559 00260$:
    0000010F F2r16r01         [10]  560 	jp	P, 00126$
    00000112 05               [ 4]  561 	dec	b
    00000113 C3r1Fr01         [10]  562 	jp	00135$
    00000116                        563 00126$:
    00000116 DD 46 FA         [19]  564 	ld	b, -6 (ix)
    00000119 C3r1Fr01         [10]  565 	jp	00135$
    0000011C                        566 00129$:
                                    567 ;E:\Dropbox\FAUSTO\SVILUPPI\MSX\CODE\C\MSXgl\projects\soccerlg/soccerlg_s4_b1.c:192: nextIdx = currentIdx;
    0000011C DD 46 FA         [19]  568 	ld	b, -6 (ix)
    0000011F                        569 00135$:
                                    570 ;E:\Dropbox\FAUSTO\SVILUPPI\MSX\CODE\C\MSXgl\projects\soccerlg/soccerlg_s4_b1.c:195: currentIdx = nextIdx;
    0000011F DD 70 FA         [19]  571 	ld	-6 (ix), b
    00000122                        572 00137$:
                                    573 ;E:\Dropbox\FAUSTO\SVILUPPI\MSX\CODE\C\MSXgl\projects\soccerlg/soccerlg_s4_b1.c:197: oldDir = dir;
    00000122 DD 71 FD         [19]  574 	ld	-3 (ix), c
                                    575 ;E:\Dropbox\FAUSTO\SVILUPPI\MSX\CODE\C\MSXgl\projects\soccerlg/soccerlg_s4_b1.c:199: if (trigger && !oldTrigger) {
    00000125 DD 7E FC         [19]  576 	ld	a, -4 (ix)
    00000128 B7               [ 4]  577 	or	a, a
    00000129 28 11            [12]  578 	jr	Z, 00140$
    0000012B DD 7E FB         [19]  579 	ld	a, -5 (ix)
    0000012E B7               [ 4]  580 	or	a, a
    0000012F 20 0B            [12]  581 	jr	NZ, 00140$
                                    582 ;E:\Dropbox\FAUSTO\SVILUPPI\MSX\CODE\C\MSXgl\projects\soccerlg/soccerlg_s4_b1.c:200: PlayPcm(PCM_TEAM_SELECTION);
    00000131 3E 05            [ 7]  583 	ld	a, #0x05
    00000133 CDr00r00         [17]  584 	call	_PlayPcm
                                    585 ;E:\Dropbox\FAUSTO\SVILUPPI\MSX\CODE\C\MSXgl\projects\soccerlg/soccerlg_s4_b1.c:201: return currentIdx;
    00000136 DD 7E FA         [19]  586 	ld	a, -6 (ix)
    00000139 C3r99r01         [10]  587 	jp	00147$
    0000013C                        588 00140$:
                                    589 ;E:\Dropbox\FAUSTO\SVILUPPI\MSX\CODE\C\MSXgl\projects\soccerlg/soccerlg_s4_b1.c:203: oldTrigger = trigger;
    0000013C DD 7E FC         [19]  590 	ld	a, -4 (ix)
    0000013F DD 77 FB         [19]  591 	ld	-5 (ix), a
                                    592 ;E:\Dropbox\FAUSTO\SVILUPPI\MSX\CODE\C\MSXgl\projects\soccerlg/soccerlg_s4_b1.c:206: attr.Y = g_TeamPos[currentIdx].y;
    00000142 DD 6E FA         [19]  593 	ld	l, -6 (ix)
                                    594 ;	spillPairReg hl
                                    595 ;	spillPairReg hl
    00000145 26 00            [ 7]  596 	ld	h, #0x00
                                    597 ;	spillPairReg hl
                                    598 ;	spillPairReg hl
    00000147 29               [11]  599 	add	hl, hl
    00000148 29               [11]  600 	add	hl, hl
    00000149 01rBEr02         [10]  601 	ld	bc,#_g_TeamPos
    0000014C 09               [11]  602 	add	hl,bc
    0000014D EB               [ 4]  603 	ex	de, hl
    0000014E 4B               [ 4]  604 	ld	c, e
    0000014F 42               [ 4]  605 	ld	b, d
    00000150 03               [ 6]  606 	inc	bc
    00000151 03               [ 6]  607 	inc	bc
    00000152 0A               [ 7]  608 	ld	a, (bc)
    00000153 DD 77 F6         [19]  609 	ld	-10 (ix), a
                                    610 ;E:\Dropbox\FAUSTO\SVILUPPI\MSX\CODE\C\MSXgl\projects\soccerlg/soccerlg_s4_b1.c:207: attr.X = g_TeamPos[currentIdx].x;
    00000156 EB               [ 4]  611 	ex	de,hl
    00000157 4E               [ 7]  612 	ld	c, (hl)
    00000158 23               [ 6]  613 	inc	hl
    00000159 46               [ 7]  614 	ld	b, (hl)
    0000015A 21 02 00         [10]  615 	ld	hl, #2
    0000015D 39               [11]  616 	add	hl, sp
    0000015E 71               [ 7]  617 	ld	(hl), c
    0000015F 23               [ 6]  618 	inc	hl
    00000160 78               [ 4]  619 	ld	a, b
    00000161 E6 03            [ 7]  620 	and	a, #0x03
    00000163 5F               [ 4]  621 	ld	e,a
    00000164 7E               [ 7]  622 	ld	a, (hl)
    00000165 E6 FC            [ 7]  623 	and	a, #0xfc
    00000167 B3               [ 4]  624 	or	a, e
    00000168 77               [ 7]  625 	ld	(hl), a
                                    626 ;E:\Dropbox\FAUSTO\SVILUPPI\MSX\CODE\C\MSXgl\projects\soccerlg/soccerlg_s4_b1.c:208: attr.Pattern = cursorPatternId;
    00000169 DD 7E FF         [19]  627 	ld	a, -1 (ix)
    0000016C DD 77 F7         [19]  628 	ld	-9 (ix), a
                                    629 ;E:\Dropbox\FAUSTO\SVILUPPI\MSX\CODE\C\MSXgl\projects\soccerlg/soccerlg_s4_b1.c:209: attr.P = 0; 
    0000016F 21 03 00         [10]  630 	ld	hl, #3
    00000172 39               [11]  631 	add	hl, sp
    00000173 CB AE            [15]  632 	res	5, (hl)
                                    633 ;E:\Dropbox\FAUSTO\SVILUPPI\MSX\CODE\C\MSXgl\projects\soccerlg/soccerlg_s4_b1.c:210: attr.SC = 0;
    00000175 21 03 00         [10]  634 	ld	hl, #3
    00000178 39               [11]  635 	add	hl, sp
    00000179 7E               [ 7]  636 	ld	a, (hl)
    0000017A E6 3F            [ 7]  637 	and	a, #0x3f
    0000017C 77               [ 7]  638 	ld	(hl), a
                                    639 ;E:\Dropbox\FAUSTO\SVILUPPI\MSX\CODE\C\MSXgl\projects\soccerlg/soccerlg_s4_b1.c:211: attr.D = 0;
    0000017D 21 03 00         [10]  640 	ld	hl, #3
    00000180 39               [11]  641 	add	hl, sp
    00000181 CB A6            [15]  642 	res	4, (hl)
                                    643 ;E:\Dropbox\FAUSTO\SVILUPPI\MSX\CODE\C\MSXgl\projects\soccerlg/soccerlg_s4_b1.c:212: V9_SetSpriteP1(0, &attr);
                                    644 ;E:/Dropbox/FAUSTO/SVILUPPI/MSX/CODE/C/MSXgl/engine/src/v9990.h:781: inline void V9_SetSpriteP1(u8 id, const V9_Sprite* attr) { V9_WriteVRAM(V9_P1_SPAT + (id * 4), (const u8*)attr, 4); }
                                    645 ;E:/Dropbox/FAUSTO/SVILUPPI/MSX/CODE/C/MSXgl/engine/src/v9990.h:371: inline void V9_WriteVRAM(u32 addr, const u8* src, u16 count) { V9_SetWriteAddress(addr); V9_WriteVRAM_CurrentAddr(src, count); }
    00000183 11 00 FE         [10]  646 	ld	de, #0xfe00
    00000186 21 03 00         [10]  647 	ld	hl, #0x0003
    00000189 CDr00r00         [17]  648 	call	_V9_SetWriteAddress
    0000018C 11 04 00         [10]  649 	ld	de, #0x0004
    0000018F 21 00 00         [10]  650 	ld	hl, #0
    00000192 39               [11]  651 	add	hl, sp
    00000193 CDr00r00         [17]  652 	call	_V9_WriteVRAM_CurrentAddr
                                    653 ;E:\Dropbox\FAUSTO\SVILUPPI\MSX\CODE\C\MSXgl\projects\soccerlg/soccerlg_s4_b1.c:212: V9_SetSpriteP1(0, &attr);
    00000196 C3r2Cr00         [10]  654 	jp	00143$
    00000199                        655 00147$:
                                    656 ;E:\Dropbox\FAUSTO\SVILUPPI\MSX\CODE\C\MSXgl\projects\soccerlg/soccerlg_s4_b1.c:214: }
    00000199 DD F9            [10]  657 	ld	sp, ix
    0000019B DD E1            [14]  658 	pop	ix
    0000019D C9               [10]  659 	ret
                         0000F380   660 _g_RDPRIM	=	0xf380
                         0000F385   661 _g_WRPRIM	=	0xf385
                         0000F38C   662 _g_CLPRIM	=	0xf38c
                         0000F39A   663 _g_USRTAB	=	0xf39a
                         0000F3DE   664 _g_CNSDFG	=	0xf3de
                         0000F3DF   665 _g_RG0SAV	=	0xf3df
                         0000F3E0   666 _g_RG1SAV	=	0xf3e0
                         0000F3E1   667 _g_RG2SAV	=	0xf3e1
                         0000F3E2   668 _g_RG3SAV	=	0xf3e2
                         0000F3E3   669 _g_RG4SAV	=	0xf3e3
                         0000F3E4   670 _g_RG5SAV	=	0xf3e4
                         0000F3E5   671 _g_RG6SAV	=	0xf3e5
                         0000F3E6   672 _g_RG7SAV	=	0xf3e6
                         0000F3E7   673 _g_STATFL	=	0xf3e7
                         0000F3E8   674 _g_TRGFLG	=	0xf3e8
                         0000F3EC   675 _g_MAXUPD	=	0xf3ec
                         0000F3EF   676 _g_MINUPD	=	0xf3ef
                         0000F3F3   677 _g_QUEUES	=	0xf3f3
                         0000F3F5   678 _g_FRCNEW	=	0xf3f5
                         0000F3F6   679 _g_SCNCNT	=	0xf3f6
                         0000F3F7   680 _g_REPCNT	=	0xf3f7
                         0000F3F8   681 _g_PUTPNT	=	0xf3f8
                         0000F3FA   682 _g_GETPNT	=	0xf3fa
                         0000F3FC   683 _g_CS120	=	0xf3fc
                         0000F401   684 _g_CS240	=	0xf401
                         0000F406   685 _g_LOW	=	0xf406
                         0000F408   686 _g_HIGH	=	0xf408
                         0000F40A   687 _g_HEADER	=	0xf40a
                         0000F40B   688 _g_ASPCT1	=	0xf40b
                         0000F40D   689 _g_ASPCT2	=	0xf40d
                         0000F959   690 _g_QUETAB	=	0xf959
                         0000F971   691 _g_QUEBAK	=	0xf971
                         0000F975   692 _g_VOICAQ	=	0xf975
                         0000F9F5   693 _g_VOICBQ	=	0xf9f5
                         0000FA75   694 _g_VOICCQ	=	0xfa75
                         0000FAF5   695 _g_RS2IQ	=	0xfaf5
                         0000FAF5   696 _g_DPPAGE	=	0xfaf5
                         0000FAF6   697 _g_ACPAGE	=	0xfaf6
                         0000FAF7   698 _g_AVCSAV	=	0xfaf7
                         0000FAF8   699 _g_EXBRSA	=	0xfaf8
                         0000FAF9   700 _g_CHRCNT	=	0xfaf9
                         0000FAFA   701 _g_ROMA	=	0xfafa
                         0000FAFC   702 _g_MODE	=	0xfafc
                         0000FAFD   703 _g_NORUSE	=	0xfafd
                         0000FAFE   704 _g_XSAVE	=	0xfafe
                         0000FB00   705 _g_YSAVE	=	0xfb00
                         0000FB03   706 _g_RSTMP	=	0xfb03
                         0000FB03   707 _g_TOCNT	=	0xfb03
                         0000FB04   708 _g_RSFCB	=	0xfb04
                         0000FB06   709 _g_RSIQLN	=	0xfb06
                         0000FB07   710 _g_MEXBIh	=	0xfb07
                         0000FB0C   711 _g_OLDSTT	=	0xfb0c
                         0000FB0C   712 _g_OLDINT	=	0xfb0c
                         0000FB16   713 _g_DEVNUM	=	0xfb16
                         0000FB17   714 _g_DATCNT	=	0xfb17
                         0000FB1A   715 _g_ERRORS	=	0xfb1a
                         0000FB1B   716 _g_FLAGS	=	0xfb1b
                         0000FB1C   717 _g_ESTBLS	=	0xfb1c
                         0000FB1D   718 _g_COMMSK	=	0xfb1d
                         0000FB1E   719 _g_LSTCOM	=	0xfb1e
                         0000FB1F   720 _g_LSTMOD	=	0xfb1f
                         0000FB35   721 _g_PRSCNT	=	0xfb35
                         0000FB36   722 _g_SAVSP	=	0xfb36
                         0000FB38   723 _g_VOICEN	=	0xfb38
                         0000FB39   724 _g_SAVVOL	=	0xfb39
                         0000FB3B   725 _g_MCLLEN	=	0xfb3b
                         0000FB3C   726 _g_MCLPTR	=	0xfb3c
                         0000FB3E   727 _g_QUEUEN	=	0xfb3e
                         0000FB3F   728 _g_MUSICF	=	0xfb3f
                         0000FB40   729 _g_PLYCNT	=	0xfb40
                         0000FB41   730 _g_VCBA	=	0xfb41
                         0000FB66   731 _g_VCBB	=	0xfb66
                         0000FB8B   732 _g_VCBC	=	0xfb8b
                         0000FBB0   733 _g_ENSTOP	=	0xfbb0
                         0000FBB1   734 _g_BASROM	=	0xfbb1
                         0000FBB2   735 _g_LINTTB	=	0xfbb2
                         0000FBCA   736 _g_FSTPOS	=	0xfbca
                         0000FBCC   737 _g_CODSAV	=	0xfbcc
                         0000FBCD   738 _g_FNKSWI	=	0xfbcd
                         0000FBCE   739 _g_FNKFLG	=	0xfbce
                         0000FBD8   740 _g_ONGSBF	=	0xfbd8
                         0000FBD9   741 _g_CLIKFL	=	0xfbd9
                         0000FBDA   742 _g_OLDKEY	=	0xfbda
                         0000FBE5   743 _g_NEWKEY	=	0xfbe5
                         0000FBF0   744 _g_KEYBUF	=	0xfbf0
                         0000FC18   745 _g_LINWRK	=	0xfc18
                         0000FC40   746 _g_PATWRK	=	0xfc40
                         0000FC48   747 _g_BOTTOM	=	0xfc48
                         0000FC4A   748 _g_HIMEM	=	0xfc4a
                         0000FC4C   749 _g_TRPTBL	=	0xfc4c
                         0000FC9A   750 _g_RTYCNT	=	0xfc9a
                         0000FC9B   751 _g_INTFLG	=	0xfc9b
                         0000FC9C   752 _g_PADY	=	0xfc9c
                         0000FC9D   753 _g_PADX	=	0xfc9d
                         0000FC9E   754 _g_JIFFY	=	0xfc9e
                         0000FCA0   755 _g_INTVAL	=	0xfca0
                         0000FCA2   756 _g_INTCNT	=	0xfca2
                         0000FCA4   757 _g_LOWLIM	=	0xfca4
                         0000FCA5   758 _g_WINWID	=	0xfca5
                         0000FCA6   759 _g_GRPHED	=	0xfca6
                         0000FCA7   760 _g_ESCCNT	=	0xfca7
                         0000FCA8   761 _g_INSFLG	=	0xfca8
                         0000FCA9   762 _g_CSRSW	=	0xfca9
                         0000FCAA   763 _g_CSTYLE	=	0xfcaa
                         0000FCAB   764 _g_CAPST	=	0xfcab
                         0000FCAC   765 _g_KANAST	=	0xfcac
                         0000FCAD   766 _g_KANAMD	=	0xfcad
                         0000FCAE   767 _g_FLBMEM	=	0xfcae
                         0000FCAF   768 _g_SCRMOD	=	0xfcaf
                         0000FCB0   769 _g_OLDSCR	=	0xfcb0
                         0000FCB1   770 _g_CASPRV	=	0xfcb1
                         0000FCB2   771 _g_BRDATR	=	0xfcb2
                         0000FCB3   772 _g_GXPOS	=	0xfcb3
                         0000FCB5   773 _g_GYPOS	=	0xfcb5
                         0000FCBB   774 _g_DRWFLG	=	0xfcbb
                         0000FCBC   775 _g_DRWSCL	=	0xfcbc
                         0000FCBD   776 _g_DRWANG	=	0xfcbd
                         0000FCC1   777 _g_MNROM	=	0xfcc1
                         0000FCC1   778 _g_EXPTBL	=	0xfcc1
                         0000FCC5   779 _g_SLTTBL	=	0xfcc5
                         0000FCC9   780 _g_SLTATR	=	0xfcc9
                         0000FD09   781 _g_SLTWRK	=	0xfd09
                         0000FD89   782 _g_PROCNM	=	0xfd89
                         0000FFE7   783 _g_RG08SAV	=	0xffe7
                         0000FFE8   784 _g_RG09SAV	=	0xffe8
                         0000FFE9   785 _g_RG10SAV	=	0xffe9
                         0000FFEA   786 _g_RG11SAV	=	0xffea
                         0000FFEB   787 _g_RG12SAV	=	0xffeb
                         0000FFEC   788 _g_RG13SAV	=	0xffec
                         0000FFED   789 _g_RG14SAV	=	0xffed
                         0000FFEE   790 _g_RG15SAV	=	0xffee
                         0000FFEF   791 _g_RG16SAV	=	0xffef
                         0000FFF0   792 _g_RG17SAV	=	0xfff0
                         0000FFF1   793 _g_RG18SAV	=	0xfff1
                         0000FFF2   794 _g_RG19SAV	=	0xfff2
                         0000FFF3   795 _g_RG20SAV	=	0xfff3
                         0000FFF4   796 _g_RG21SAV	=	0xfff4
                         0000FFF5   797 _g_RG22SAV	=	0xfff5
                         0000FFF6   798 _g_RG23SAV	=	0xfff6
                         0000FFF7   799 _g_MINROM	=	0xfff7
                         0000FFF8   800 _g_SVFFF8	=	0xfff8
                         0000FFFA   801 _g_RG25SAV	=	0xfffa
                         0000FFFB   802 _g_RG26SAV	=	0xfffb
                         0000FFFC   803 _g_RG27SAV	=	0xfffc
                         0000FFFD   804 _g_SVFFFD	=	0xfffd
                         00000004   805 _g_CGTABL	=	0x0004
                         00000006   806 _g_VDP_DR	=	0x0006
                         00000007   807 _g_VDP_DW	=	0x0007
                         0000002B   808 _g_BASRVN	=	0x002b
                         0000002B   809 _g_ROMVersion	=	0x002b
                         0000002D   810 _g_MSXVER	=	0x002d
                         0000002E   811 _g_MSXMID	=	0x002e
                         00000034   812 _g_CHAR_16	=	0x0034
                         00000000   813 _g_SUBRID	=	0x0000
                         00000002   814 _g_STRSRC	=	0x0002
                         0000F30F   815 _g_KANJTABLE	=	0xf30f
                         0000F323   816 _g_DISKVE	=	0xf323
                         0000F325   817 _g_BREAKV	=	0xf325
                         0000F341   818 _g_RAMAD0	=	0xf341
                         0000F342   819 _g_RAMAD1	=	0xf342
                         0000F343   820 _g_RAMAD2	=	0xf343
                         0000F344   821 _g_RAMAD3	=	0xf344
                         0000F348   822 _g_MASTER	=	0xf348
                         0000F37D   823 _g_BDOS	=	0xf37d
    0000019E                        824 _g_Data_Palette_Team_ITA:
    0000019E 00                     825 	.db #0x00	; 0
    0000019F 00                     826 	.db #0x00	; 0
    000001A0 00                     827 	.db #0x00	; 0
    000001A1 14                     828 	.db #0x14	; 20
    000001A2 09                     829 	.db #0x09	; 9
    000001A3 14                     830 	.db #0x14	; 20
    000001A4 01                     831 	.db #0x01	; 1
    000001A5 01                     832 	.db #0x01	; 1
    000001A6 01                     833 	.db #0x01	; 1
    000001A7 05                     834 	.db #0x05	; 5
    000001A8 03                     835 	.db #0x03	; 3
    000001A9 01                     836 	.db #0x01	; 1
    000001AA 1B                     837 	.db #0x1b	; 27
    000001AB 1A                     838 	.db #0x1a	; 26
    000001AC 1B                     839 	.db #0x1b	; 27
    000001AD 1E                     840 	.db #0x1e	; 30
    000001AE 1A                     841 	.db #0x1a	; 26
    000001AF 08                     842 	.db #0x08	; 8
    000001B0 1B                     843 	.db #0x1b	; 27
    000001B1 1A                     844 	.db #0x1a	; 26
    000001B2 1B                     845 	.db #0x1b	; 27
    000001B3 09                     846 	.db #0x09	; 9
    000001B4 16                     847 	.db #0x16	; 22
    000001B5 1B                     848 	.db #0x1b	; 27
    000001B6 1B                     849 	.db #0x1b	; 27
    000001B7 1A                     850 	.db #0x1a	; 26
    000001B8 1B                     851 	.db #0x1b	; 27
    000001B9 1B                     852 	.db #0x1b	; 27
    000001BA 13                     853 	.db #0x13	; 19
    000001BB 09                     854 	.db #0x09	; 9
    000001BC 1F                     855 	.db #0x1f	; 31
    000001BD 1E                     856 	.db #0x1e	; 30
    000001BE 01                     857 	.db #0x01	; 1
    000001BF 1D                     858 	.db #0x1d	; 29
    000001C0 03                     859 	.db #0x03	; 3
    000001C1 02                     860 	.db #0x02	; 2
    000001C2 05                     861 	.db #0x05	; 5
    000001C3 03                     862 	.db #0x03	; 3
    000001C4 01                     863 	.db #0x01	; 1
    000001C5 01                     864 	.db #0x01	; 1
    000001C6 01                     865 	.db #0x01	; 1
    000001C7 01                     866 	.db #0x01	; 1
    000001C8 01                     867 	.db #0x01	; 1
    000001C9 01                     868 	.db #0x01	; 1
    000001CA 01                     869 	.db #0x01	; 1
    000001CB 01                     870 	.db #0x01	; 1
    000001CC 01                     871 	.db #0x01	; 1
    000001CD 01                     872 	.db #0x01	; 1
    000001CE                        873 _g_Data_Palette_Team_AUS:
    000001CE 00                     874 	.db #0x00	; 0
    000001CF 00                     875 	.db #0x00	; 0
    000001D0 00                     876 	.db #0x00	; 0
    000001D1 14                     877 	.db #0x14	; 20
    000001D2 09                     878 	.db #0x09	; 9
    000001D3 14                     879 	.db #0x14	; 20
    000001D4 01                     880 	.db #0x01	; 1
    000001D5 01                     881 	.db #0x01	; 1
    000001D6 01                     882 	.db #0x01	; 1
    000001D7 05                     883 	.db #0x05	; 5
    000001D8 03                     884 	.db #0x03	; 3
    000001D9 01                     885 	.db #0x01	; 1
    000001DA 1B                     886 	.db #0x1b	; 27
    000001DB 1A                     887 	.db #0x1a	; 26
    000001DC 1B                     888 	.db #0x1b	; 27
    000001DD 1E                     889 	.db #0x1e	; 30
    000001DE 1A                     890 	.db #0x1a	; 26
    000001DF 08                     891 	.db #0x08	; 8
    000001E0 1B                     892 	.db #0x1b	; 27
    000001E1 1A                     893 	.db #0x1a	; 26
    000001E2 1B                     894 	.db #0x1b	; 27
    000001E3 05                     895 	.db #0x05	; 5
    000001E4 03                     896 	.db #0x03	; 3
    000001E5 01                     897 	.db #0x01	; 1
    000001E6 1B                     898 	.db #0x1b	; 27
    000001E7 1A                     899 	.db #0x1a	; 26
    000001E8 1B                     900 	.db #0x1b	; 27
    000001E9 1B                     901 	.db #0x1b	; 27
    000001EA 13                     902 	.db #0x13	; 19
    000001EB 09                     903 	.db #0x09	; 9
    000001EC 1F                     904 	.db #0x1f	; 31
    000001ED 1E                     905 	.db #0x1e	; 30
    000001EE 01                     906 	.db #0x01	; 1
    000001EF 1D                     907 	.db #0x1d	; 29
    000001F0 03                     908 	.db #0x03	; 3
    000001F1 02                     909 	.db #0x02	; 2
    000001F2 05                     910 	.db #0x05	; 5
    000001F3 03                     911 	.db #0x03	; 3
    000001F4 01                     912 	.db #0x01	; 1
    000001F5 01                     913 	.db #0x01	; 1
    000001F6 01                     914 	.db #0x01	; 1
    000001F7 01                     915 	.db #0x01	; 1
    000001F8 01                     916 	.db #0x01	; 1
    000001F9 01                     917 	.db #0x01	; 1
    000001FA 01                     918 	.db #0x01	; 1
    000001FB 01                     919 	.db #0x01	; 1
    000001FC 01                     920 	.db #0x01	; 1
    000001FD 01                     921 	.db #0x01	; 1
    000001FE                        922 _g_Data_Palette_Team_FRA:
    000001FE 00                     923 	.db #0x00	; 0
    000001FF 00                     924 	.db #0x00	; 0
    00000200 00                     925 	.db #0x00	; 0
    00000201 14                     926 	.db #0x14	; 20
    00000202 09                     927 	.db #0x09	; 9
    00000203 14                     928 	.db #0x14	; 20
    00000204 01                     929 	.db #0x01	; 1
    00000205 01                     930 	.db #0x01	; 1
    00000206 01                     931 	.db #0x01	; 1
    00000207 05                     932 	.db #0x05	; 5
    00000208 03                     933 	.db #0x03	; 3
    00000209 01                     934 	.db #0x01	; 1
    0000020A 1B                     935 	.db #0x1b	; 27
    0000020B 1A                     936 	.db #0x1a	; 26
    0000020C 1B                     937 	.db #0x1b	; 27
    0000020D 1E                     938 	.db #0x1e	; 30
    0000020E 1A                     939 	.db #0x1a	; 26
    0000020F 08                     940 	.db #0x08	; 8
    00000210 1B                     941 	.db #0x1b	; 27
    00000211 1A                     942 	.db #0x1a	; 26
    00000212 1B                     943 	.db #0x1b	; 27
    00000213 04                     944 	.db #0x04	; 4
    00000214 04                     945 	.db #0x04	; 4
    00000215 1B                     946 	.db #0x1b	; 27
    00000216 1B                     947 	.db #0x1b	; 27
    00000217 1A                     948 	.db #0x1a	; 26
    00000218 1B                     949 	.db #0x1b	; 27
    00000219 1B                     950 	.db #0x1b	; 27
    0000021A 13                     951 	.db #0x13	; 19
    0000021B 09                     952 	.db #0x09	; 9
    0000021C 1F                     953 	.db #0x1f	; 31
    0000021D 1E                     954 	.db #0x1e	; 30
    0000021E 01                     955 	.db #0x01	; 1
    0000021F 1D                     956 	.db #0x1d	; 29
    00000220 03                     957 	.db #0x03	; 3
    00000221 02                     958 	.db #0x02	; 2
    00000222 05                     959 	.db #0x05	; 5
    00000223 03                     960 	.db #0x03	; 3
    00000224 01                     961 	.db #0x01	; 1
    00000225 01                     962 	.db #0x01	; 1
    00000226 01                     963 	.db #0x01	; 1
    00000227 01                     964 	.db #0x01	; 1
    00000228 01                     965 	.db #0x01	; 1
    00000229 01                     966 	.db #0x01	; 1
    0000022A 01                     967 	.db #0x01	; 1
    0000022B 01                     968 	.db #0x01	; 1
    0000022C 01                     969 	.db #0x01	; 1
    0000022D 01                     970 	.db #0x01	; 1
    0000022E                        971 _g_Data_Palette_Team_GER:
    0000022E 00                     972 	.db #0x00	; 0
    0000022F 00                     973 	.db #0x00	; 0
    00000230 00                     974 	.db #0x00	; 0
    00000231 14                     975 	.db #0x14	; 20
    00000232 09                     976 	.db #0x09	; 9
    00000233 14                     977 	.db #0x14	; 20
    00000234 01                     978 	.db #0x01	; 1
    00000235 01                     979 	.db #0x01	; 1
    00000236 01                     980 	.db #0x01	; 1
    00000237 05                     981 	.db #0x05	; 5
    00000238 03                     982 	.db #0x03	; 3
    00000239 01                     983 	.db #0x01	; 1
    0000023A 1B                     984 	.db #0x1b	; 27
    0000023B 1A                     985 	.db #0x1a	; 26
    0000023C 1B                     986 	.db #0x1b	; 27
    0000023D 1E                     987 	.db #0x1e	; 30
    0000023E 1A                     988 	.db #0x1a	; 26
    0000023F 08                     989 	.db #0x08	; 8
    00000240 05                     990 	.db #0x05	; 5
    00000241 03                     991 	.db #0x03	; 3
    00000242 01                     992 	.db #0x01	; 1
    00000243 1B                     993 	.db #0x1b	; 27
    00000244 1A                     994 	.db #0x1a	; 26
    00000245 1B                     995 	.db #0x1b	; 27
    00000246 1F                     996 	.db #0x1f	; 31
    00000247 00                     997 	.db #0x00	; 0
    00000248 00                     998 	.db #0x00	; 0
    00000249 1B                     999 	.db #0x1b	; 27
    0000024A 13                    1000 	.db #0x13	; 19
    0000024B 09                    1001 	.db #0x09	; 9
    0000024C 1F                    1002 	.db #0x1f	; 31
    0000024D 1E                    1003 	.db #0x1e	; 30
    0000024E 01                    1004 	.db #0x01	; 1
    0000024F 1D                    1005 	.db #0x1d	; 29
    00000250 03                    1006 	.db #0x03	; 3
    00000251 02                    1007 	.db #0x02	; 2
    00000252 05                    1008 	.db #0x05	; 5
    00000253 03                    1009 	.db #0x03	; 3
    00000254 01                    1010 	.db #0x01	; 1
    00000255 01                    1011 	.db #0x01	; 1
    00000256 01                    1012 	.db #0x01	; 1
    00000257 01                    1013 	.db #0x01	; 1
    00000258 01                    1014 	.db #0x01	; 1
    00000259 01                    1015 	.db #0x01	; 1
    0000025A 01                    1016 	.db #0x01	; 1
    0000025B 01                    1017 	.db #0x01	; 1
    0000025C 01                    1018 	.db #0x01	; 1
    0000025D 01                    1019 	.db #0x01	; 1
    0000025E                       1020 _g_Data_Palette_Team_GBR:
    0000025E 00                    1021 	.db #0x00	; 0
    0000025F 00                    1022 	.db #0x00	; 0
    00000260 00                    1023 	.db #0x00	; 0
    00000261 14                    1024 	.db #0x14	; 20
    00000262 09                    1025 	.db #0x09	; 9
    00000263 14                    1026 	.db #0x14	; 20
    00000264 01                    1027 	.db #0x01	; 1
    00000265 01                    1028 	.db #0x01	; 1
    00000266 01                    1029 	.db #0x01	; 1
    00000267 05                    1030 	.db #0x05	; 5
    00000268 03                    1031 	.db #0x03	; 3
    00000269 01                    1032 	.db #0x01	; 1
    0000026A 1B                    1033 	.db #0x1b	; 27
    0000026B 1A                    1034 	.db #0x1a	; 26
    0000026C 1B                    1035 	.db #0x1b	; 27
    0000026D 1E                    1036 	.db #0x1e	; 30
    0000026E 1A                    1037 	.db #0x1a	; 26
    0000026F 08                    1038 	.db #0x08	; 8
    00000270 01                    1039 	.db #0x01	; 1
    00000271 01                    1040 	.db #0x01	; 1
    00000272 01                    1041 	.db #0x01	; 1
    00000273 1B                    1042 	.db #0x1b	; 27
    00000274 1A                    1043 	.db #0x1a	; 26
    00000275 1B                    1044 	.db #0x1b	; 27
    00000276 01                    1045 	.db #0x01	; 1
    00000277 01                    1046 	.db #0x01	; 1
    00000278 01                    1047 	.db #0x01	; 1
    00000279 1B                    1048 	.db #0x1b	; 27
    0000027A 13                    1049 	.db #0x13	; 19
    0000027B 09                    1050 	.db #0x09	; 9
    0000027C 1F                    1051 	.db #0x1f	; 31
    0000027D 1E                    1052 	.db #0x1e	; 30
    0000027E 01                    1053 	.db #0x01	; 1
    0000027F 1D                    1054 	.db #0x1d	; 29
    00000280 03                    1055 	.db #0x03	; 3
    00000281 02                    1056 	.db #0x02	; 2
    00000282 05                    1057 	.db #0x05	; 5
    00000283 03                    1058 	.db #0x03	; 3
    00000284 01                    1059 	.db #0x01	; 1
    00000285 01                    1060 	.db #0x01	; 1
    00000286 01                    1061 	.db #0x01	; 1
    00000287 01                    1062 	.db #0x01	; 1
    00000288 01                    1063 	.db #0x01	; 1
    00000289 01                    1064 	.db #0x01	; 1
    0000028A 01                    1065 	.db #0x01	; 1
    0000028B 01                    1066 	.db #0x01	; 1
    0000028C 01                    1067 	.db #0x01	; 1
    0000028D 01                    1068 	.db #0x01	; 1
    0000028E                       1069 _g_Data_Palette_Team_BRA:
    0000028E 00                    1070 	.db #0x00	; 0
    0000028F 00                    1071 	.db #0x00	; 0
    00000290 00                    1072 	.db #0x00	; 0
    00000291 14                    1073 	.db #0x14	; 20
    00000292 09                    1074 	.db #0x09	; 9
    00000293 14                    1075 	.db #0x14	; 20
    00000294 01                    1076 	.db #0x01	; 1
    00000295 01                    1077 	.db #0x01	; 1
    00000296 01                    1078 	.db #0x01	; 1
    00000297 05                    1079 	.db #0x05	; 5
    00000298 03                    1080 	.db #0x03	; 3
    00000299 01                    1081 	.db #0x01	; 1
    0000029A 1B                    1082 	.db #0x1b	; 27
    0000029B 1A                    1083 	.db #0x1a	; 26
    0000029C 1B                    1084 	.db #0x1b	; 27
    0000029D 1E                    1085 	.db #0x1e	; 30
    0000029E 1A                    1086 	.db #0x1a	; 26
    0000029F 08                    1087 	.db #0x08	; 8
    000002A0 1B                    1088 	.db #0x1b	; 27
    000002A1 13                    1089 	.db #0x13	; 19
    000002A2 09                    1090 	.db #0x09	; 9
    000002A3 00                    1091 	.db #0x00	; 0
    000002A4 0A                    1092 	.db #0x0a	; 10
    000002A5 03                    1093 	.db #0x03	; 3
    000002A6 1B                    1094 	.db #0x1b	; 27
    000002A7 13                    1095 	.db #0x13	; 19
    000002A8 09                    1096 	.db #0x09	; 9
    000002A9 1B                    1097 	.db #0x1b	; 27
    000002AA 13                    1098 	.db #0x13	; 19
    000002AB 09                    1099 	.db #0x09	; 9
    000002AC 1F                    1100 	.db #0x1f	; 31
    000002AD 1E                    1101 	.db #0x1e	; 30
    000002AE 01                    1102 	.db #0x01	; 1
    000002AF 1D                    1103 	.db #0x1d	; 29
    000002B0 03                    1104 	.db #0x03	; 3
    000002B1 02                    1105 	.db #0x02	; 2
    000002B2 05                    1106 	.db #0x05	; 5
    000002B3 03                    1107 	.db #0x03	; 3
    000002B4 01                    1108 	.db #0x01	; 1
    000002B5 01                    1109 	.db #0x01	; 1
    000002B6 01                    1110 	.db #0x01	; 1
    000002B7 01                    1111 	.db #0x01	; 1
    000002B8 01                    1112 	.db #0x01	; 1
    000002B9 01                    1113 	.db #0x01	; 1
    000002BA 01                    1114 	.db #0x01	; 1
    000002BB 01                    1115 	.db #0x01	; 1
    000002BC 01                    1116 	.db #0x01	; 1
    000002BD 01                    1117 	.db #0x01	; 1
    000002BE                       1118 _g_TeamPos:
    000002BE 21 00                 1119 	.dw #0x0021
    000002C0 6D 00                 1120 	.dw #0x006d
    000002C2 72 00                 1121 	.dw #0x0072
    000002C4 6D 00                 1122 	.dw #0x006d
    000002C6 C5 00                 1123 	.dw #0x00c5
    000002C8 6D 00                 1124 	.dw #0x006d
    000002CA 21 00                 1125 	.dw #0x0021
    000002CC C0 00                 1126 	.dw #0x00c0
    000002CE 72 00                 1127 	.dw #0x0072
    000002D0 C0 00                 1128 	.dw #0x00c0
    000002D2 C5 00                 1129 	.dw #0x00c5
    000002D4 C0 00                 1130 	.dw #0x00c0
    000002D6                       1131 _g_TeamGrayPos:
    000002D6 01 00                 1132 	.dw #0x0001
    000002D8 05 00                 1133 	.dw #0x0005
    000002DA 0B 00                 1134 	.dw #0x000b
    000002DC 05 00                 1135 	.dw #0x0005
    000002DE 15 00                 1136 	.dw #0x0015
    000002E0 05 00                 1137 	.dw #0x0005
    000002E2 01 00                 1138 	.dw #0x0001
    000002E4 0F 00                 1139 	.dw #0x000f
    000002E6 0B 00                 1140 	.dw #0x000b
    000002E8 0F 00                 1141 	.dw #0x000f
    000002EA 15 00                 1142 	.dw #0x0015
    000002EC 0F 00                 1143 	.dw #0x000f
                                   1144 ;E:\Dropbox\FAUSTO\SVILUPPI\MSX\CODE\C\MSXgl\projects\soccerlg/soccerlg_s4_b1.c:216: void MenuSpriteBlinking(){
                                   1145 ;	---------------------------------
                                   1146 ; Function MenuSpriteBlinking
                                   1147 ; ---------------------------------
    000002EE                       1148 _MenuSpriteBlinking::
    000002EE 3B               [ 6] 1149 	dec	sp
                                   1150 ;E:\Dropbox\FAUSTO\SVILUPPI\MSX\CODE\C\MSXgl\projects\soccerlg/soccerlg_s4_b1.c:217: u8 ms=g_MatchStatus;
    000002EF 3Ar00r00         [13] 1151 	ld	a, (_g_MatchStatus+0)
    000002F2 FD 21 00 00      [14] 1152 	ld	iy, #0
    000002F6 FD 39            [15] 1153 	add	iy, sp
    000002F8 FD 77 00         [19] 1154 	ld	0 (iy), a
                                   1155 ;E:/Dropbox/FAUSTO/SVILUPPI/MSX/CODE/C/MSXgl/engine/src/v9990.h:258: inline void V9_SetFlag(u8 reg, u8 mask, u8 flag) { V9_SetRegister(reg, V9_GetRegister(reg) & (~mask) | flag); }
    000002FB 3E 08            [ 7] 1156 	ld	a, #0x08
    000002FD CDr00r00         [17] 1157 	call	_V9_GetRegister
    00000300 CB B7            [ 8] 1158 	res	6, a
    00000302 6F               [ 4] 1159 	ld	l, a
                                   1160 ;	spillPairReg hl
                                   1161 ;	spillPairReg hl
    00000303 CB F5            [ 8] 1162 	set	6, l
    00000305 3E 08            [ 7] 1163 	ld	a, #0x08
    00000307 CDr00r00         [17] 1164 	call	_V9_SetRegister
                                   1165 ;E:/Dropbox/FAUSTO/SVILUPPI/MSX/CODE/C/MSXgl/engine/src/v9990.h:574: inline void V9_SetInterrupt(u8 flags) { V9_SetRegister(9, flags); }
    0000030A 2E 01            [ 7] 1166 	ld	l, #0x01
                                   1167 ;	spillPairReg hl
                                   1168 ;	spillPairReg hl
    0000030C 3E 09            [ 7] 1169 	ld	a, #0x09
    0000030E CDr00r00         [17] 1170 	call	_V9_SetRegister
                                   1171 ;E:\Dropbox\FAUSTO\SVILUPPI\MSX\CODE\C\MSXgl\projects\soccerlg/soccerlg_s4_b1.c:221: g_MatchStatus=MATCH_PRESENTATION;
    00000311 3E 0F            [ 7] 1172 	ld	a, #0x0f
    00000313 32r00r00         [13] 1173 	ld	(#_g_MatchStatus), a
                                   1174 ;E:\Dropbox\FAUSTO\SVILUPPI\MSX\CODE\C\MSXgl\projects\soccerlg/soccerlg_s4_b1.c:223: g_Timer=0;  
    00000316 AF               [ 4] 1175 	xor	a, a
    00000317 32r00r00         [13] 1176 	ld	(#_g_Timer), a
                                   1177 ;E:\Dropbox\FAUSTO\SVILUPPI\MSX\CODE\C\MSXgl\projects\soccerlg/soccerlg_s4_b1.c:224: while (g_Timer<=20)
    0000031A                       1178 00101$:
    0000031A 3E 14            [ 7] 1179 	ld	a, #0x14
    0000031C FD 21r00r00      [14] 1180 	ld	iy, #_g_Timer
    00000320 FD 96 00         [19] 1181 	sub	a, 0 (iy)
    00000323 38 06            [12] 1182 	jr	C, 00134$
                                   1183 ;E:\Dropbox\FAUSTO\SVILUPPI\MSX\CODE\C\MSXgl\projects\soccerlg/soccerlg_s4_b1.c:226: ResetPlayersInfo();
    00000325 CDrD2r03         [17] 1184 	call	_ResetPlayersInfo
    00000328 C3r1Ar03         [10] 1185 	jp	00101$
                                   1186 ;E:/Dropbox/FAUSTO/SVILUPPI/MSX/CODE/C/MSXgl/engine/src/v9990.h:730: inline void V9_SetSpriteEnable(bool enable) { V9_SetFlag(8, V9_R08_SPD_OFF, enable ? 0 : V9_R08_SPD_OFF); }
    0000032B                       1187 00134$:
                                   1188 ;E:/Dropbox/FAUSTO/SVILUPPI/MSX/CODE/C/MSXgl/engine/src/v9990.h:258: inline void V9_SetFlag(u8 reg, u8 mask, u8 flag) { V9_SetRegister(reg, V9_GetRegister(reg) & (~mask) | flag); }
    0000032B 3E 08            [ 7] 1189 	ld	a, #0x08
    0000032D CDr00r00         [17] 1190 	call	_V9_GetRegister
    00000330 6F               [ 4] 1191 	ld	l, a
                                   1192 ;	spillPairReg hl
                                   1193 ;	spillPairReg hl
    00000331 CB B5            [ 8] 1194 	res	6, l
    00000333 3E 08            [ 7] 1195 	ld	a, #0x08
    00000335 CDr00r00         [17] 1196 	call	_V9_SetRegister
                                   1197 ;E:\Dropbox\FAUSTO\SVILUPPI\MSX\CODE\C\MSXgl\projects\soccerlg/soccerlg_s4_b1.c:232: g_Timer=0;  
    00000338 AF               [ 4] 1198 	xor	a, a
    00000339 32r00r00         [13] 1199 	ld	(#_g_Timer), a
                                   1200 ;E:\Dropbox\FAUSTO\SVILUPPI\MSX\CODE\C\MSXgl\projects\soccerlg/soccerlg_s4_b1.c:233: while (g_Timer<=20)
    0000033C                       1201 00104$:
    0000033C 3E 14            [ 7] 1202 	ld	a, #0x14
    0000033E FD 21r00r00      [14] 1203 	ld	iy, #_g_Timer
    00000342 FD 96 00         [19] 1204 	sub	a, 0 (iy)
    00000345 38 06            [12] 1205 	jr	C, 00135$
                                   1206 ;E:\Dropbox\FAUSTO\SVILUPPI\MSX\CODE\C\MSXgl\projects\soccerlg/soccerlg_s4_b1.c:235: ResetPlayersInfo();
    00000347 CDrD2r03         [17] 1207 	call	_ResetPlayersInfo
    0000034A C3r3Cr03         [10] 1208 	jp	00104$
                                   1209 ;E:/Dropbox/FAUSTO/SVILUPPI/MSX/CODE/C/MSXgl/engine/src/v9990.h:730: inline void V9_SetSpriteEnable(bool enable) { V9_SetFlag(8, V9_R08_SPD_OFF, enable ? 0 : V9_R08_SPD_OFF); }
    0000034D                       1210 00135$:
                                   1211 ;E:/Dropbox/FAUSTO/SVILUPPI/MSX/CODE/C/MSXgl/engine/src/v9990.h:258: inline void V9_SetFlag(u8 reg, u8 mask, u8 flag) { V9_SetRegister(reg, V9_GetRegister(reg) & (~mask) | flag); }
    0000034D 3E 08            [ 7] 1212 	ld	a, #0x08
    0000034F CDr00r00         [17] 1213 	call	_V9_GetRegister
    00000352 CB B7            [ 8] 1214 	res	6, a
    00000354 6F               [ 4] 1215 	ld	l, a
                                   1216 ;	spillPairReg hl
                                   1217 ;	spillPairReg hl
    00000355 CB F5            [ 8] 1218 	set	6, l
    00000357 3E 08            [ 7] 1219 	ld	a, #0x08
    00000359 CDr00r00         [17] 1220 	call	_V9_SetRegister
                                   1221 ;E:\Dropbox\FAUSTO\SVILUPPI\MSX\CODE\C\MSXgl\projects\soccerlg/soccerlg_s4_b1.c:240: g_Timer=0;  
    0000035C AF               [ 4] 1222 	xor	a, a
    0000035D 32r00r00         [13] 1223 	ld	(#_g_Timer), a
                                   1224 ;E:\Dropbox\FAUSTO\SVILUPPI\MSX\CODE\C\MSXgl\projects\soccerlg/soccerlg_s4_b1.c:241: while (g_Timer<=20)
    00000360                       1225 00107$:
    00000360 3E 14            [ 7] 1226 	ld	a, #0x14
    00000362 FD 21r00r00      [14] 1227 	ld	iy, #_g_Timer
    00000366 FD 96 00         [19] 1228 	sub	a, 0 (iy)
    00000369 38 06            [12] 1229 	jr	C, 00138$
                                   1230 ;E:\Dropbox\FAUSTO\SVILUPPI\MSX\CODE\C\MSXgl\projects\soccerlg/soccerlg_s4_b1.c:243: ResetPlayersInfo();
    0000036B CDrD2r03         [17] 1231 	call	_ResetPlayersInfo
    0000036E C3r60r03         [10] 1232 	jp	00107$
                                   1233 ;E:/Dropbox/FAUSTO/SVILUPPI/MSX/CODE/C/MSXgl/engine/src/v9990.h:730: inline void V9_SetSpriteEnable(bool enable) { V9_SetFlag(8, V9_R08_SPD_OFF, enable ? 0 : V9_R08_SPD_OFF); }
    00000371                       1234 00138$:
                                   1235 ;E:/Dropbox/FAUSTO/SVILUPPI/MSX/CODE/C/MSXgl/engine/src/v9990.h:258: inline void V9_SetFlag(u8 reg, u8 mask, u8 flag) { V9_SetRegister(reg, V9_GetRegister(reg) & (~mask) | flag); }
    00000371 3E 08            [ 7] 1236 	ld	a, #0x08
    00000373 CDr00r00         [17] 1237 	call	_V9_GetRegister
    00000376 6F               [ 4] 1238 	ld	l, a
                                   1239 ;	spillPairReg hl
                                   1240 ;	spillPairReg hl
    00000377 CB B5            [ 8] 1241 	res	6, l
    00000379 3E 08            [ 7] 1242 	ld	a, #0x08
    0000037B CDr00r00         [17] 1243 	call	_V9_SetRegister
                                   1244 ;E:\Dropbox\FAUSTO\SVILUPPI\MSX\CODE\C\MSXgl\projects\soccerlg/soccerlg_s4_b1.c:247: g_Timer=0;  
    0000037E AF               [ 4] 1245 	xor	a, a
    0000037F 32r00r00         [13] 1246 	ld	(#_g_Timer), a
                                   1247 ;E:\Dropbox\FAUSTO\SVILUPPI\MSX\CODE\C\MSXgl\projects\soccerlg/soccerlg_s4_b1.c:248: while (g_Timer<=20)
    00000382                       1248 00110$:
    00000382 3E 14            [ 7] 1249 	ld	a, #0x14
    00000384 FD 21r00r00      [14] 1250 	ld	iy, #_g_Timer
    00000388 FD 96 00         [19] 1251 	sub	a, 0 (iy)
    0000038B 38 06            [12] 1252 	jr	C, 00139$
                                   1253 ;E:\Dropbox\FAUSTO\SVILUPPI\MSX\CODE\C\MSXgl\projects\soccerlg/soccerlg_s4_b1.c:250: ResetPlayersInfo();
    0000038D CDrD2r03         [17] 1254 	call	_ResetPlayersInfo
    00000390 C3r82r03         [10] 1255 	jp	00110$
                                   1256 ;E:/Dropbox/FAUSTO/SVILUPPI/MSX/CODE/C/MSXgl/engine/src/v9990.h:730: inline void V9_SetSpriteEnable(bool enable) { V9_SetFlag(8, V9_R08_SPD_OFF, enable ? 0 : V9_R08_SPD_OFF); }
    00000393                       1257 00139$:
                                   1258 ;E:/Dropbox/FAUSTO/SVILUPPI/MSX/CODE/C/MSXgl/engine/src/v9990.h:258: inline void V9_SetFlag(u8 reg, u8 mask, u8 flag) { V9_SetRegister(reg, V9_GetRegister(reg) & (~mask) | flag); }
    00000393 3E 08            [ 7] 1259 	ld	a, #0x08
    00000395 CDr00r00         [17] 1260 	call	_V9_GetRegister
    00000398 CB B7            [ 8] 1261 	res	6, a
    0000039A 6F               [ 4] 1262 	ld	l, a
                                   1263 ;	spillPairReg hl
                                   1264 ;	spillPairReg hl
    0000039B CB F5            [ 8] 1265 	set	6, l
    0000039D 3E 08            [ 7] 1266 	ld	a, #0x08
    0000039F CDr00r00         [17] 1267 	call	_V9_SetRegister
                                   1268 ;E:\Dropbox\FAUSTO\SVILUPPI\MSX\CODE\C\MSXgl\projects\soccerlg/soccerlg_s4_b1.c:255: g_Timer=0;  
    000003A2 AF               [ 4] 1269 	xor	a, a
    000003A3 32r00r00         [13] 1270 	ld	(#_g_Timer), a
                                   1271 ;E:\Dropbox\FAUSTO\SVILUPPI\MSX\CODE\C\MSXgl\projects\soccerlg/soccerlg_s4_b1.c:256: while (g_Timer<=20)
    000003A6                       1272 00113$:
    000003A6 3E 14            [ 7] 1273 	ld	a, #0x14
    000003A8 FD 21r00r00      [14] 1274 	ld	iy, #_g_Timer
    000003AC FD 96 00         [19] 1275 	sub	a, 0 (iy)
    000003AF 38 06            [12] 1276 	jr	C, 00142$
                                   1277 ;E:\Dropbox\FAUSTO\SVILUPPI\MSX\CODE\C\MSXgl\projects\soccerlg/soccerlg_s4_b1.c:258: ResetPlayersInfo();
    000003B1 CDrD2r03         [17] 1278 	call	_ResetPlayersInfo
    000003B4 C3rA6r03         [10] 1279 	jp	00113$
                                   1280 ;E:/Dropbox/FAUSTO/SVILUPPI/MSX/CODE/C/MSXgl/engine/src/v9990.h:730: inline void V9_SetSpriteEnable(bool enable) { V9_SetFlag(8, V9_R08_SPD_OFF, enable ? 0 : V9_R08_SPD_OFF); }
    000003B7                       1281 00142$:
                                   1282 ;E:/Dropbox/FAUSTO/SVILUPPI/MSX/CODE/C/MSXgl/engine/src/v9990.h:258: inline void V9_SetFlag(u8 reg, u8 mask, u8 flag) { V9_SetRegister(reg, V9_GetRegister(reg) & (~mask) | flag); }
    000003B7 3E 08            [ 7] 1283 	ld	a, #0x08
    000003B9 CDr00r00         [17] 1284 	call	_V9_GetRegister
    000003BC 6F               [ 4] 1285 	ld	l, a
                                   1286 ;	spillPairReg hl
                                   1287 ;	spillPairReg hl
    000003BD CB B5            [ 8] 1288 	res	6, l
    000003BF 3E 08            [ 7] 1289 	ld	a, #0x08
    000003C1 CDr00r00         [17] 1290 	call	_V9_SetRegister
                                   1291 ;E:\Dropbox\FAUSTO\SVILUPPI\MSX\CODE\C\MSXgl\projects\soccerlg/soccerlg_s4_b1.c:261: g_MatchStatus=ms;
    000003C4 FD 21 00 00      [14] 1292 	ld	iy, #0
    000003C8 FD 39            [15] 1293 	add	iy, sp
    000003CA FD 7E 00         [19] 1294 	ld	a, 0 (iy)
    000003CD 32r00r00         [13] 1295 	ld	(_g_MatchStatus+0), a
                                   1296 ;E:\Dropbox\FAUSTO\SVILUPPI\MSX\CODE\C\MSXgl\projects\soccerlg/soccerlg_s4_b1.c:263: }
    000003D0 33               [ 6] 1297 	inc	sp
    000003D1 C9               [10] 1298 	ret
                                   1299 ;E:\Dropbox\FAUSTO\SVILUPPI\MSX\CODE\C\MSXgl\projects\soccerlg/soccerlg_s4_b1.c:266: void ResetPlayersInfo(){
                                   1300 ;	---------------------------------
                                   1301 ; Function ResetPlayersInfo
                                   1302 ; ---------------------------------
    000003D2                       1303 _ResetPlayersInfo::
    000003D2 DD E5            [15] 1304 	push	ix
    000003D4 DD 21 00 00      [14] 1305 	ld	ix,#0
    000003D8 DD 39            [15] 1306 	add	ix,sp
    000003DA 3B               [ 6] 1307 	dec	sp
                                   1308 ;E:\Dropbox\FAUSTO\SVILUPPI\MSX\CODE\C\MSXgl\projects\soccerlg/soccerlg_s4_b1.c:267: Trampoline_VOID_P1(3,SetPlayerBallPossession,NO_VALUE);
    000003DB 3E FF            [ 7] 1309 	ld	a, #0xff
    000003DD F5               [11] 1310 	push	af
    000003DE 33               [ 6] 1311 	inc	sp
    000003DF 11r00r00         [10] 1312 	ld	de, #_SetPlayerBallPossession
    000003E2 3E 03            [ 7] 1313 	ld	a, #0x03
    000003E4 CDr00r00         [17] 1314 	call	_Trampoline_VOID_P1
                                   1315 ;E:\Dropbox\FAUSTO\SVILUPPI\MSX\CODE\C\MSXgl\projects\soccerlg/soccerlg_s4_b1.c:268: for(u8 i=0;i<14;i++){
    000003E7 0E 00            [ 7] 1316 	ld	c, #0x00
    000003E9                       1317 00103$:
    000003E9 79               [ 4] 1318 	ld	a, c
    000003EA D6 0E            [ 7] 1319 	sub	a, #0x0e
    000003EC 30 41            [12] 1320 	jr	NC, 00105$
                                   1321 ;E:\Dropbox\FAUSTO\SVILUPPI\MSX\CODE\C\MSXgl\projects\soccerlg/soccerlg_s4_b1.c:269: g_Players[i].Direction=DIRECTION_NONE;
    000003EE 06 00            [ 7] 1322 	ld	b, #0x00
    000003F0 69               [ 4] 1323 	ld	l, c
    000003F1 60               [ 4] 1324 	ld	h, b
    000003F2 29               [11] 1325 	add	hl, hl
    000003F3 29               [11] 1326 	add	hl, hl
    000003F4 09               [11] 1327 	add	hl, bc
    000003F5 29               [11] 1328 	add	hl, hl
    000003F6 29               [11] 1329 	add	hl, hl
    000003F7 09               [11] 1330 	add	hl, bc
    000003F8 EB               [ 4] 1331 	ex	de, hl
    000003F9 21r00r00         [10] 1332 	ld	hl, #_g_Players
    000003FC 19               [11] 1333 	add	hl, de
    000003FD EB               [ 4] 1334 	ex	de, hl
    000003FE 21 0A 00         [10] 1335 	ld	hl, #0x000a
    00000401 19               [11] 1336 	add	hl, de
    00000402 36 00            [10] 1337 	ld	(hl), #0x00
                                   1338 ;E:\Dropbox\FAUSTO\SVILUPPI\MSX\CODE\C\MSXgl\projects\soccerlg/soccerlg_s4_b1.c:270: g_Players[i].PreviousDirection=g_Players[i].Direction;
    00000404 7B               [ 4] 1339 	ld	a, e
    00000405 C6 0B            [ 7] 1340 	add	a, #0x0b
    00000407 47               [ 4] 1341 	ld	b, a
    00000408 7A               [ 4] 1342 	ld	a, d
    00000409 CE 00            [ 7] 1343 	adc	a, #0x00
    0000040B F5               [11] 1344 	push	af
    0000040C 7E               [ 7] 1345 	ld	a, (hl)
    0000040D DD 77 FF         [19] 1346 	ld	-1 (ix), a
    00000410 F1               [10] 1347 	pop	af
    00000411 68               [ 4] 1348 	ld	l, b
    00000412 67               [ 4] 1349 	ld	h, a
    00000413 DD 7E FF         [19] 1350 	ld	a, -1 (ix)
    00000416 77               [ 7] 1351 	ld	(hl), a
                                   1352 ;E:\Dropbox\FAUSTO\SVILUPPI\MSX\CODE\C\MSXgl\projects\soccerlg/soccerlg_s4_b1.c:271: g_Players[i].LastPose=0;
    00000417 21 0C 00         [10] 1353 	ld	hl, #0x000c
    0000041A 19               [11] 1354 	add	hl, de
    0000041B 36 00            [10] 1355 	ld	(hl), #0x00
                                   1356 ;E:\Dropbox\FAUSTO\SVILUPPI\MSX\CODE\C\MSXgl\projects\soccerlg/soccerlg_s4_b1.c:272: g_Players[i].Status=PLAYER_STATUS_NONE;
    0000041D 21 12 00         [10] 1357 	ld	hl, #0x0012
    00000420 19               [11] 1358 	add	hl, de
    00000421 36 00            [10] 1359 	ld	(hl), #0x00
    00000423 23               [ 6] 1360 	inc	hl
    00000424 36 00            [10] 1361 	ld	(hl), #0x00
    00000426 2B               [ 6] 1362 	dec	hl
                                   1363 ;E:\Dropbox\FAUSTO\SVILUPPI\MSX\CODE\C\MSXgl\projects\soccerlg/soccerlg_s4_b1.c:273: g_Players[i].Status=PLAYER_STATUS_NONE;
    00000427 AF               [ 4] 1364 	xor	a, a
    00000428 77               [ 7] 1365 	ld	(hl), a
    00000429 23               [ 6] 1366 	inc	hl
    0000042A 77               [ 7] 1367 	ld	(hl), a
                                   1368 ;E:\Dropbox\FAUSTO\SVILUPPI\MSX\CODE\C\MSXgl\projects\soccerlg/soccerlg_s4_b1.c:268: for(u8 i=0;i<14;i++){
    0000042B 0C               [ 4] 1369 	inc	c
    0000042C C3rE9r03         [10] 1370 	jp	00103$
    0000042F                       1371 00105$:
                                   1372 ;E:\Dropbox\FAUSTO\SVILUPPI\MSX\CODE\C\MSXgl\projects\soccerlg/soccerlg_s4_b1.c:275: }
    0000042F 33               [ 6] 1373 	inc	sp
    00000430 DD E1            [14] 1374 	pop	ix
    00000432 C9               [10] 1375 	ret
                                   1376 ;E:\Dropbox\FAUSTO\SVILUPPI\MSX\CODE\C\MSXgl\projects\soccerlg/soccerlg_s4_b1.c:278: void ShowMenu(){
                                   1377 ;	---------------------------------
                                   1378 ; Function ShowMenu
                                   1379 ; ---------------------------------
    00000433                       1380 _ShowMenu::
    00000433 DD E5            [15] 1381 	push	ix
    00000435 DD 21 00 00      [14] 1382 	ld	ix,#0
    00000439 DD 39            [15] 1383 	add	ix,sp
    0000043B 21 F4 FF         [10] 1384 	ld	hl, #-12
    0000043E 39               [11] 1385 	add	hl, sp
    0000043F F9               [ 6] 1386 	ld	sp, hl
                                   1387 ;E:\Dropbox\FAUSTO\SVILUPPI\MSX\CODE\C\MSXgl\projects\soccerlg/soccerlg_s4_b1.c:280: for(u8 i=0;i<32;i++){
    00000440 0E 00            [ 7] 1388 	ld	c, #0x00
    00000442                       1389 00155$:
    00000442 79               [ 4] 1390 	ld	a, c
    00000443 D6 20            [ 7] 1391 	sub	a, #0x20
    00000445 30 2F            [12] 1392 	jr	NC, 00101$
                                   1393 ;E:\Dropbox\FAUSTO\SVILUPPI\MSX\CODE\C\MSXgl\projects\soccerlg/soccerlg_s4_b1.c:282: attr.D = 1;
    00000447 21 07 00         [10] 1394 	ld	hl, #7
    0000044A 39               [11] 1395 	add	hl, sp
    0000044B CB E6            [15] 1396 	set	4, (hl)
                                   1397 ;E:\Dropbox\FAUSTO\SVILUPPI\MSX\CODE\C\MSXgl\projects\soccerlg/soccerlg_s4_b1.c:283: V9_SetSpriteP1(i, &attr);
                                   1398 ;E:/Dropbox/FAUSTO/SVILUPPI/MSX/CODE/C/MSXgl/engine/src/v9990.h:781: inline void V9_SetSpriteP1(u8 id, const V9_Sprite* attr) { V9_WriteVRAM(V9_P1_SPAT + (id * 4), (const u8*)attr, 4); }
    0000044D 69               [ 4] 1399 	ld	l, c
                                   1400 ;	spillPairReg hl
                                   1401 ;	spillPairReg hl
    0000044E 26 00            [ 7] 1402 	ld	h, #0x00
                                   1403 ;	spillPairReg hl
                                   1404 ;	spillPairReg hl
    00000450 29               [11] 1405 	add	hl, hl
    00000451 29               [11] 1406 	add	hl, hl
    00000452 7C               [ 4] 1407 	ld	a, h
    00000453 07               [ 4] 1408 	rlca
    00000454 9F               [ 4] 1409 	sbc	a, a
    00000455 5F               [ 4] 1410 	ld	e, a
    00000456 57               [ 4] 1411 	ld	d, a
    00000457 7C               [ 4] 1412 	ld	a, h
    00000458 C6 FE            [ 7] 1413 	add	a, #0xfe
    0000045A 67               [ 4] 1414 	ld	h, a
                                   1415 ;	spillPairReg hl
                                   1416 ;	spillPairReg hl
    0000045B 7B               [ 4] 1417 	ld	a, e
    0000045C CE 03            [ 7] 1418 	adc	a, #0x03
    0000045E 5F               [ 4] 1419 	ld	e, a
    0000045F 30 01            [12] 1420 	jr	NC, 00371$
    00000461 14               [ 4] 1421 	inc	d
    00000462                       1422 00371$:
                                   1423 ;E:/Dropbox/FAUSTO/SVILUPPI/MSX/CODE/C/MSXgl/engine/src/v9990.h:371: inline void V9_WriteVRAM(u32 addr, const u8* src, u16 count) { V9_SetWriteAddress(addr); V9_WriteVRAM_CurrentAddr(src, count); }
    00000462 C5               [11] 1424 	push	bc
    00000463 EB               [ 4] 1425 	ex	de, hl
    00000464 CDr00r00         [17] 1426 	call	_V9_SetWriteAddress
    00000467 11 04 00         [10] 1427 	ld	de, #0x0004
    0000046A 21 06 00         [10] 1428 	ld	hl, #6
    0000046D 39               [11] 1429 	add	hl, sp
    0000046E CDr00r00         [17] 1430 	call	_V9_WriteVRAM_CurrentAddr
    00000471 C1               [10] 1431 	pop	bc
                                   1432 ;E:\Dropbox\FAUSTO\SVILUPPI\MSX\CODE\C\MSXgl\projects\soccerlg/soccerlg_s4_b1.c:280: for(u8 i=0;i<32;i++){
    00000472 0C               [ 4] 1433 	inc	c
    00000473 C3r42r04         [10] 1434 	jp	00155$
    00000476                       1435 00101$:
                                   1436 ;E:\Dropbox\FAUSTO\SVILUPPI\MSX\CODE\C\MSXgl\projects\soccerlg/soccerlg_s4_b1.c:286: V9_SetScrollingBY(1);
    00000476 21 01 00         [10] 1437 	ld	hl, #0x0001
    00000479 CDr00r00         [17] 1438 	call	_V9_SetScrollingBY
                                   1439 ;E:/Dropbox/FAUSTO/SVILUPPI/MSX/CODE/C/MSXgl/engine/src/v9990.h:258: inline void V9_SetFlag(u8 reg, u8 mask, u8 flag) { V9_SetRegister(reg, V9_GetRegister(reg) & (~mask) | flag); }
    0000047C 3E 08            [ 7] 1440 	ld	a, #0x08
    0000047E CDr00r00         [17] 1441 	call	_V9_GetRegister
    00000481 6F               [ 4] 1442 	ld	l, a
                                   1443 ;	spillPairReg hl
                                   1444 ;	spillPairReg hl
    00000482 CB BD            [ 8] 1445 	res	7, l
    00000484 3E 08            [ 7] 1446 	ld	a, #0x08
    00000486 CDr00r00         [17] 1447 	call	_V9_SetRegister
                                   1448 ;E:/Dropbox/FAUSTO/SVILUPPI/MSX/CODE/C/MSXgl/engine/src/v9990.h:353: inline void V9_FillVRAM(u32 addr, u8 value, u16 count) { V9_SetWriteAddress(addr); V9_FillVRAM_CurrentAddr(value, count); }
    00000489 11 00 00         [10] 1449 	ld	de, #0x0000
    0000048C 21 04 00         [10] 1450 	ld	hl, #0x0004
    0000048F CDr00r00         [17] 1451 	call	_V9_SetWriteAddress
    00000492 11 00 6A         [10] 1452 	ld	de, #0x6a00
    00000495 AF               [ 4] 1453 	xor	a, a
    00000496 CDr00r00         [17] 1454 	call	_V9_FillVRAM_CurrentAddr
                                   1455 ;E:\Dropbox\FAUSTO\SVILUPPI\MSX\CODE\C\MSXgl\projects\soccerlg/soccerlg_s4_b1.c:291: V9990_LoadMenuTeamsData();
    00000499 CDr00r00         [17] 1456 	call	_V9990_LoadMenuTeamsData
                                   1457 ;E:/Dropbox/FAUSTO/SVILUPPI/MSX/CODE/C/MSXgl/engine/src/v9990.h:1047: inline void V9_SelectPaletteP1(u8 a, u8 b) { V9_SetRegister(13, ((b & 0x3) << 2) + (a & 0x3)); }
    0000049C 3E 01            [ 7] 1458 	ld	a, #0x01
    0000049E E6 03            [ 7] 1459 	and	a, #0x03
    000004A0 87               [ 4] 1460 	add	a, a
    000004A1 87               [ 4] 1461 	add	a, a
    000004A2 4F               [ 4] 1462 	ld	c, a
    000004A3 AF               [ 4] 1463 	xor	a, a
    000004A4 E6 03            [ 7] 1464 	and	a, #0x03
    000004A6 81               [ 4] 1465 	add	a, c
    000004A7 6F               [ 4] 1466 	ld	l, a
                                   1467 ;	spillPairReg hl
                                   1468 ;	spillPairReg hl
    000004A8 3E 0D            [ 7] 1469 	ld	a, #0x0d
    000004AA CDr00r00         [17] 1470 	call	_V9_SetRegister
                                   1471 ;E:\Dropbox\FAUSTO\SVILUPPI\MSX\CODE\C\MSXgl\projects\soccerlg/soccerlg_s4_b1.c:293: for (u8 y=0;y<64;y++){
    000004AD DD 36 FF 00      [19] 1472 	ld	-1 (ix), #0x00
    000004B1                       1473 00161$:
    000004B1 DD 7E FF         [19] 1474 	ld	a, -1 (ix)
    000004B4 D6 40            [ 7] 1475 	sub	a, #0x40
    000004B6 30 3D            [12] 1476 	jr	NC, 00103$
                                   1477 ;E:\Dropbox\FAUSTO\SVILUPPI\MSX\CODE\C\MSXgl\projects\soccerlg/soccerlg_s4_b1.c:294: for (u8 x=0;x<64;x++){
    000004B8 0E 00            [ 7] 1478 	ld	c, #0x00
    000004BA                       1479 00158$:
    000004BA 79               [ 4] 1480 	ld	a, c
    000004BB D6 40            [ 7] 1481 	sub	a, #0x40
    000004BD 30 30            [12] 1482 	jr	NC, 00162$
                                   1483 ;E:/Dropbox/FAUSTO/SVILUPPI/MSX/CODE/C/MSXgl/engine/src/v9990.h:1426: inline u32 V9_CellAddrP1A(u8 x, u8 y) { return V9_P1_PNT_A + (((64 * y) + x) * 2); }
    000004BF DD 6E FF         [19] 1484 	ld	l, -1 (ix)
                                   1485 ;	spillPairReg hl
                                   1486 ;	spillPairReg hl
    000004C2 26 00            [ 7] 1487 	ld	h, #0x00
                                   1488 ;	spillPairReg hl
                                   1489 ;	spillPairReg hl
    000004C4 29               [11] 1490 	add	hl, hl
    000004C5 29               [11] 1491 	add	hl, hl
    000004C6 29               [11] 1492 	add	hl, hl
    000004C7 29               [11] 1493 	add	hl, hl
    000004C8 29               [11] 1494 	add	hl, hl
    000004C9 29               [11] 1495 	add	hl, hl
    000004CA 59               [ 4] 1496 	ld	e, c
    000004CB 16 00            [ 7] 1497 	ld	d, #0x00
    000004CD 19               [11] 1498 	add	hl, de
    000004CE 29               [11] 1499 	add	hl, hl
    000004CF 7C               [ 4] 1500 	ld	a, h
    000004D0 07               [ 4] 1501 	rlca
    000004D1 9F               [ 4] 1502 	sbc	a, a
    000004D2 5F               [ 4] 1503 	ld	e, a
    000004D3 57               [ 4] 1504 	ld	d, a
    000004D4 7C               [ 4] 1505 	ld	a, h
    000004D5 C6 C0            [ 7] 1506 	add	a, #0xc0
    000004D7 67               [ 4] 1507 	ld	h, a
                                   1508 ;	spillPairReg hl
                                   1509 ;	spillPairReg hl
    000004D8 7B               [ 4] 1510 	ld	a, e
    000004D9 CE 07            [ 7] 1511 	adc	a, #0x07
    000004DB 5F               [ 4] 1512 	ld	e, a
    000004DC 30 01            [12] 1513 	jr	NC, 00372$
    000004DE 14               [ 4] 1514 	inc	d
    000004DF                       1515 00372$:
                                   1516 ;E:/Dropbox/FAUSTO/SVILUPPI/MSX/CODE/C/MSXgl/engine/src/v9990.h:396: inline void V9_Poke16(u32 addr, u16 val) { V9_SetWriteAddress(addr); V9_Poke16_CurrentAddr(val); }
    000004DF C5               [11] 1517 	push	bc
    000004E0 EB               [ 4] 1518 	ex	de, hl
    000004E1 CDr00r00         [17] 1519 	call	_V9_SetWriteAddress
    000004E4 C1               [10] 1520 	pop	bc
    000004E5 21 20 00         [10] 1521 	ld	hl, #0x0020
    000004E8 CDr00r00         [17] 1522 	call	_V9_Poke16_CurrentAddr
                                   1523 ;E:\Dropbox\FAUSTO\SVILUPPI\MSX\CODE\C\MSXgl\projects\soccerlg/soccerlg_s4_b1.c:294: for (u8 x=0;x<64;x++){
    000004EB 0C               [ 4] 1524 	inc	c
    000004EC C3rBAr04         [10] 1525 	jp	00158$
    000004EF                       1526 00162$:
                                   1527 ;E:\Dropbox\FAUSTO\SVILUPPI\MSX\CODE\C\MSXgl\projects\soccerlg/soccerlg_s4_b1.c:293: for (u8 y=0;y<64;y++){
    000004EF DD 34 FF         [23] 1528 	inc	-1 (ix)
    000004F2 C3rB1r04         [10] 1529 	jp	00161$
    000004F5                       1530 00103$:
                                   1531 ;E:\Dropbox\FAUSTO\SVILUPPI\MSX\CODE\C\MSXgl\projects\soccerlg/soccerlg_s4_b1.c:298: for (u8 y=5;y<25;y++){
    000004F5 0E 05            [ 7] 1532 	ld	c, #0x05
    000004F7                       1533 00167$:
    000004F7 79               [ 4] 1534 	ld	a, c
    000004F8 D6 19            [ 7] 1535 	sub	a, #0x19
    000004FA D2r97r05         [10] 1536 	jp	NC, 00105$
                                   1537 ;E:\Dropbox\FAUSTO\SVILUPPI\MSX\CODE\C\MSXgl\projects\soccerlg/soccerlg_s4_b1.c:299: u16 tileId=256+32*(y-5);
    000004FD DD 71 FC         [19] 1538 	ld	-4 (ix), c
    00000500 DD 36 FD 00      [19] 1539 	ld	-3 (ix), #0x00
    00000504 DD 7E FC         [19] 1540 	ld	a, -4 (ix)
    00000507 C6 FB            [ 7] 1541 	add	a, #0xfb
    00000509 47               [ 4] 1542 	ld	b, a
    0000050A DD 7E FD         [19] 1543 	ld	a, -3 (ix)
    0000050D CE FF            [ 7] 1544 	adc	a, #0xff
    0000050F 68               [ 4] 1545 	ld	l, b
    00000510 67               [ 4] 1546 	ld	h, a
    00000511 29               [11] 1547 	add	hl, hl
    00000512 29               [11] 1548 	add	hl, hl
    00000513 29               [11] 1549 	add	hl, hl
    00000514 29               [11] 1550 	add	hl, hl
    00000515 29               [11] 1551 	add	hl, hl
    00000516 7C               [ 4] 1552 	ld	a, h
    00000517 3C               [ 4] 1553 	inc	a
    00000518 DD 75 FE         [19] 1554 	ld	-2 (ix), l
    0000051B DD 77 FF         [19] 1555 	ld	-1 (ix), a
                                   1556 ;E:\Dropbox\FAUSTO\SVILUPPI\MSX\CODE\C\MSXgl\projects\soccerlg/soccerlg_s4_b1.c:300: for (u8 x=1;x<31;x++){
    0000051E 06 01            [ 7] 1557 	ld	b, #0x01
    00000520                       1558 00164$:
    00000520 78               [ 4] 1559 	ld	a, b
    00000521 D6 1F            [ 7] 1560 	sub	a, #0x1f
    00000523 30 6E            [12] 1561 	jr	NC, 00168$
                                   1562 ;E:/Dropbox/FAUSTO/SVILUPPI/MSX/CODE/C/MSXgl/engine/src/v9990.h:1426: inline u32 V9_CellAddrP1A(u8 x, u8 y) { return V9_P1_PNT_A + (((64 * y) + x) * 2); }
    00000525 DD 6E FC         [19] 1563 	ld	l, -4 (ix)
    00000528 DD 66 FD         [19] 1564 	ld	h, -3 (ix)
    0000052B 29               [11] 1565 	add	hl, hl
    0000052C 29               [11] 1566 	add	hl, hl
    0000052D 29               [11] 1567 	add	hl, hl
    0000052E 29               [11] 1568 	add	hl, hl
    0000052F 29               [11] 1569 	add	hl, hl
    00000530 29               [11] 1570 	add	hl, hl
    00000531 58               [ 4] 1571 	ld	e, b
    00000532 16 00            [ 7] 1572 	ld	d, #0x00
    00000534 19               [11] 1573 	add	hl, de
    00000535 29               [11] 1574 	add	hl, hl
    00000536 EB               [ 4] 1575 	ex	de, hl
    00000537 7A               [ 4] 1576 	ld	a, d
    00000538 07               [ 4] 1577 	rlca
    00000539 ED 62            [15] 1578 	sbc	hl, hl
    0000053B DD 73 F4         [19] 1579 	ld	-12 (ix), e
    0000053E 7A               [ 4] 1580 	ld	a, d
    0000053F C6 C0            [ 7] 1581 	add	a, #0xc0
    00000541 DD 77 F5         [19] 1582 	ld	-11 (ix), a
    00000544 7D               [ 4] 1583 	ld	a, l
    00000545 CE 07            [ 7] 1584 	adc	a, #0x07
    00000547 DD 77 F6         [19] 1585 	ld	-10 (ix), a
    0000054A 7C               [ 4] 1586 	ld	a, h
    0000054B CE 00            [ 7] 1587 	adc	a, #0x00
    0000054D DD 77 F7         [19] 1588 	ld	-9 (ix), a
                                   1589 ;E:/Dropbox/FAUSTO/SVILUPPI/MSX/CODE/C/MSXgl/engine/src/v9990.h:396: inline void V9_Poke16(u32 addr, u16 val) { V9_SetWriteAddress(addr); V9_Poke16_CurrentAddr(val); }
    00000550 E5               [11] 1590 	push	hl
    00000551 C5               [11] 1591 	push	bc
    00000552 D5               [11] 1592 	push	de
    00000553 DD 5E F4         [19] 1593 	ld	e, -12 (ix)
    00000556 DD 56 F5         [19] 1594 	ld	d, -11 (ix)
    00000559 DD 6E F6         [19] 1595 	ld	l, -10 (ix)
                                   1596 ;	spillPairReg hl
                                   1597 ;	spillPairReg hl
    0000055C DD 66 F7         [19] 1598 	ld	h, -9 (ix)
                                   1599 ;	spillPairReg hl
                                   1600 ;	spillPairReg hl
    0000055F CDr00r00         [17] 1601 	call	_V9_SetWriteAddress
    00000562 D1               [10] 1602 	pop	de
    00000563 C1               [10] 1603 	pop	bc
    00000564 DD 6E FE         [19] 1604 	ld	l, -2 (ix)
                                   1605 ;	spillPairReg hl
                                   1606 ;	spillPairReg hl
    00000567 DD 66 FF         [19] 1607 	ld	h, -1 (ix)
                                   1608 ;	spillPairReg hl
                                   1609 ;	spillPairReg hl
    0000056A CDr00r00         [17] 1610 	call	_V9_Poke16_CurrentAddr
    0000056D E1               [10] 1611 	pop	hl
                                   1612 ;E:/Dropbox/FAUSTO/SVILUPPI/MSX/CODE/C/MSXgl/engine/src/v9990.h:1437: inline u32 V9_CellAddrP1B(u8 x, u8 y) { return V9_P1_PNT_B + (((64 * y) + x) * 2); }
    0000056E 7A               [ 4] 1613 	ld	a, d
    0000056F C6 E0            [ 7] 1614 	add	a, #0xe0
    00000571 57               [ 4] 1615 	ld	d, a
    00000572 D5               [11] 1616 	push	de
    00000573 11 07 00         [10] 1617 	ld	de, #0x0007
    00000576 ED 5A            [15] 1618 	adc	hl, de
    00000578 D1               [10] 1619 	pop	de
                                   1620 ;E:/Dropbox/FAUSTO/SVILUPPI/MSX/CODE/C/MSXgl/engine/src/v9990.h:396: inline void V9_Poke16(u32 addr, u16 val) { V9_SetWriteAddress(addr); V9_Poke16_CurrentAddr(val); }
    00000579 C5               [11] 1621 	push	bc
    0000057A CDr00r00         [17] 1622 	call	_V9_SetWriteAddress
    0000057D C1               [10] 1623 	pop	bc
    0000057E DD 6E FE         [19] 1624 	ld	l, -2 (ix)
                                   1625 ;	spillPairReg hl
                                   1626 ;	spillPairReg hl
    00000581 DD 66 FF         [19] 1627 	ld	h, -1 (ix)
                                   1628 ;	spillPairReg hl
                                   1629 ;	spillPairReg hl
    00000584 CDr00r00         [17] 1630 	call	_V9_Poke16_CurrentAddr
                                   1631 ;E:\Dropbox\FAUSTO\SVILUPPI\MSX\CODE\C\MSXgl\projects\soccerlg/soccerlg_s4_b1.c:303: tileId++;
    00000587 DD 34 FE         [23] 1632 	inc	-2 (ix)
    0000058A 20 03            [12] 1633 	jr	NZ, 00373$
    0000058C DD 34 FF         [23] 1634 	inc	-1 (ix)
    0000058F                       1635 00373$:
                                   1636 ;E:\Dropbox\FAUSTO\SVILUPPI\MSX\CODE\C\MSXgl\projects\soccerlg/soccerlg_s4_b1.c:300: for (u8 x=1;x<31;x++){
    0000058F 04               [ 4] 1637 	inc	b
    00000590 C3r20r05         [10] 1638 	jp	00164$
    00000593                       1639 00168$:
                                   1640 ;E:\Dropbox\FAUSTO\SVILUPPI\MSX\CODE\C\MSXgl\projects\soccerlg/soccerlg_s4_b1.c:298: for (u8 y=5;y<25;y++){
    00000593 0C               [ 4] 1641 	inc	c
    00000594 C3rF7r04         [10] 1642 	jp	00167$
    00000597                       1643 00105$:
                                   1644 ;E:\Dropbox\FAUSTO\SVILUPPI\MSX\CODE\C\MSXgl\projects\soccerlg/soccerlg_s4_b1.c:306: V9990_LoadSprites();
    00000597 CDr00r00         [17] 1645 	call	_V9990_LoadSprites
                                   1646 ;E:/Dropbox/FAUSTO/SVILUPPI/MSX/CODE/C/MSXgl/engine/src/v9990.h:574: inline void V9_SetInterrupt(u8 flags) { V9_SetRegister(9, flags); }
    0000059A 2E 01            [ 7] 1647 	ld	l, #0x01
                                   1648 ;	spillPairReg hl
                                   1649 ;	spillPairReg hl
    0000059C 3E 09            [ 7] 1650 	ld	a, #0x09
    0000059E CDr00r00         [17] 1651 	call	_V9_SetRegister
                                   1652 ;E:/Dropbox/FAUSTO/SVILUPPI/MSX/CODE/C/MSXgl/engine/src/v9990.h:258: inline void V9_SetFlag(u8 reg, u8 mask, u8 flag) { V9_SetRegister(reg, V9_GetRegister(reg) & (~mask) | flag); }
    000005A1 3E 08            [ 7] 1653 	ld	a, #0x08
    000005A3 CDr00r00         [17] 1654 	call	_V9_GetRegister
    000005A6 CB BF            [ 8] 1655 	res	7, a
    000005A8 6F               [ 4] 1656 	ld	l, a
                                   1657 ;	spillPairReg hl
                                   1658 ;	spillPairReg hl
    000005A9 CB FD            [ 8] 1659 	set	7, l
    000005AB 3E 08            [ 7] 1660 	ld	a, #0x08
    000005AD CDr00r00         [17] 1661 	call	_V9_SetRegister
                                   1662 ;E:\Dropbox\FAUSTO\SVILUPPI\MSX\CODE\C\MSXgl\projects\soccerlg/soccerlg_s4_b1.c:310: V9990_PrintLayerAStringAtPos(4,0,"    PLAYER TEAM SELECT");
    000005B0 21r44r08         [10] 1663 	ld	hl, #___str_0
    000005B3 E5               [11] 1664 	push	hl
    000005B4 2E 00            [ 7] 1665 	ld	l, #0x00
                                   1666 ;	spillPairReg hl
                                   1667 ;	spillPairReg hl
    000005B6 3E 04            [ 7] 1668 	ld	a, #0x04
    000005B8 CDr00r00         [17] 1669 	call	_V9990_PrintLayerAStringAtPos
                                   1670 ;E:\Dropbox\FAUSTO\SVILUPPI\MSX\CODE\C\MSXgl\projects\soccerlg/soccerlg_s4_b1.c:311: g_MatchStatus=MATCH_SHOW_MENU;
    000005BB 21r00r00         [10] 1671 	ld	hl, #_g_MatchStatus
    000005BE 36 13            [10] 1672 	ld	(hl), #0x13
                                   1673 ;E:\Dropbox\FAUSTO\SVILUPPI\MSX\CODE\C\MSXgl\projects\soccerlg/soccerlg_s4_b1.c:312: g_Team1PaletteId = SelectTeam(SPRITE_PLAYER, NO_VALUE);
    000005C0 2E FF            [ 7] 1674 	ld	l, #0xff
                                   1675 ;	spillPairReg hl
                                   1676 ;	spillPairReg hl
    000005C2 3E F5            [ 7] 1677 	ld	a, #0xf5
    000005C4 CDr00r00         [17] 1678 	call	_SelectTeam
                                   1679 ;E:\Dropbox\FAUSTO\SVILUPPI\MSX\CODE\C\MSXgl\projects\soccerlg/soccerlg_s4_b1.c:315: for(u8 y=g_TeamGrayPos[g_Team1PaletteId].y;y<g_TeamGrayPos[g_Team1PaletteId].y+9;y++){
    000005C7 32r00r00         [13] 1680 	ld	(_g_Team1PaletteId+0), a
    000005CA 26 00            [ 7] 1681 	ld	h, #0x00
                                   1682 ;	spillPairReg hl
                                   1683 ;	spillPairReg hl
    000005CC 6F               [ 4] 1684 	ld	l, a
                                   1685 ;	spillPairReg hl
                                   1686 ;	spillPairReg hl
    000005CD 29               [11] 1687 	add	hl, hl
    000005CE 29               [11] 1688 	add	hl, hl
    000005CF EB               [ 4] 1689 	ex	de,hl
    000005D0 21rD6r02         [10] 1690 	ld	hl, #_g_TeamGrayPos
    000005D3 19               [11] 1691 	add	hl, de
    000005D4 DD 75 FD         [19] 1692 	ld	-3 (ix), l
    000005D7 DD 74 FE         [19] 1693 	ld	-2 (ix), h
    000005DA 23               [ 6] 1694 	inc	hl
    000005DB 23               [ 6] 1695 	inc	hl
    000005DC 4D               [ 4] 1696 	ld	c, l
    000005DD 44               [ 4] 1697 	ld	b, h
    000005DE 0A               [ 7] 1698 	ld	a, (bc)
    000005DF DD 77 FF         [19] 1699 	ld	-1 (ix), a
    000005E2                       1700 00173$:
    000005E2 DD 6E FD         [19] 1701 	ld	l, -3 (ix)
                                   1702 ;	spillPairReg hl
                                   1703 ;	spillPairReg hl
    000005E5 DD 66 FE         [19] 1704 	ld	h, -2 (ix)
                                   1705 ;	spillPairReg hl
                                   1706 ;	spillPairReg hl
    000005E8 23               [ 6] 1707 	inc	hl
    000005E9 23               [ 6] 1708 	inc	hl
    000005EA 4E               [ 7] 1709 	ld	c, (hl)
    000005EB 23               [ 6] 1710 	inc	hl
    000005EC 46               [ 7] 1711 	ld	b, (hl)
    000005ED 21 09 00         [10] 1712 	ld	hl, #0x0009
    000005F0 09               [11] 1713 	add	hl, bc
    000005F1 EB               [ 4] 1714 	ex	de, hl
    000005F2 DD 6E FF         [19] 1715 	ld	l, -1 (ix)
                                   1716 ;	spillPairReg hl
                                   1717 ;	spillPairReg hl
                                   1718 ;	spillPairReg hl
                                   1719 ;	spillPairReg hl
    000005F5 AF               [ 4] 1720 	xor	a, a
    000005F6 67               [ 4] 1721 	ld	h, a
    000005F7 ED 52            [15] 1722 	sbc	hl, de
    000005F9 30 64            [12] 1723 	jr	NC, 00107$
                                   1724 ;E:\Dropbox\FAUSTO\SVILUPPI\MSX\CODE\C\MSXgl\projects\soccerlg/soccerlg_s4_b1.c:316: for(u8 x=g_TeamGrayPos[g_Team1PaletteId].x;x<g_TeamGrayPos[g_Team1PaletteId].x+10;x++){
    000005FB DD 6E FD         [19] 1725 	ld	l, -3 (ix)
    000005FE DD 66 FE         [19] 1726 	ld	h, -2 (ix)
    00000601 46               [ 7] 1727 	ld	b, (hl)
    00000602                       1728 00170$:
                                   1729 ;E:\Dropbox\FAUSTO\SVILUPPI\MSX\CODE\C\MSXgl\projects\soccerlg/soccerlg_s4_b1.c:315: for(u8 y=g_TeamGrayPos[g_Team1PaletteId].y;y<g_TeamGrayPos[g_Team1PaletteId].y+9;y++){
    00000602 3Ar00r00         [13] 1730 	ld	a, (_g_Team1PaletteId+0)
    00000605 6F               [ 4] 1731 	ld	l, a
                                   1732 ;	spillPairReg hl
                                   1733 ;	spillPairReg hl
    00000606 26 00            [ 7] 1734 	ld	h, #0x00
                                   1735 ;	spillPairReg hl
                                   1736 ;	spillPairReg hl
    00000608 29               [11] 1737 	add	hl, hl
    00000609 29               [11] 1738 	add	hl, hl
    0000060A 7D               [ 4] 1739 	ld	a, l
    0000060B C6rD6            [ 7] 1740 	add	a, #<(_g_TeamGrayPos)
    0000060D DD 77 FD         [19] 1741 	ld	-3 (ix), a
    00000610 7C               [ 4] 1742 	ld	a, h
    00000611 CEs02            [ 7] 1743 	adc	a, #>(_g_TeamGrayPos)
    00000613 DD 77 FE         [19] 1744 	ld	-2 (ix), a
                                   1745 ;E:\Dropbox\FAUSTO\SVILUPPI\MSX\CODE\C\MSXgl\projects\soccerlg/soccerlg_s4_b1.c:316: for(u8 x=g_TeamGrayPos[g_Team1PaletteId].x;x<g_TeamGrayPos[g_Team1PaletteId].x+10;x++){
    00000616 DD 6E FD         [19] 1746 	ld	l, -3 (ix)
    00000619 DD 66 FE         [19] 1747 	ld	h, -2 (ix)
    0000061C 5E               [ 7] 1748 	ld	e, (hl)
    0000061D 23               [ 6] 1749 	inc	hl
    0000061E 56               [ 7] 1750 	ld	d, (hl)
    0000061F 21 0A 00         [10] 1751 	ld	hl, #0x000a
    00000622 19               [11] 1752 	add	hl, de
    00000623 EB               [ 4] 1753 	ex	de, hl
    00000624 68               [ 4] 1754 	ld	l, b
                                   1755 ;	spillPairReg hl
                                   1756 ;	spillPairReg hl
                                   1757 ;	spillPairReg hl
                                   1758 ;	spillPairReg hl
    00000625 AF               [ 4] 1759 	xor	a, a
    00000626 67               [ 4] 1760 	ld	h, a
    00000627 ED 52            [15] 1761 	sbc	hl, de
    00000629 30 2E            [12] 1762 	jr	NC, 00174$
                                   1763 ;E:/Dropbox/FAUSTO/SVILUPPI/MSX/CODE/C/MSXgl/engine/src/v9990.h:1426: inline u32 V9_CellAddrP1A(u8 x, u8 y) { return V9_P1_PNT_A + (((64 * y) + x) * 2); }
    0000062B DD 6E FF         [19] 1764 	ld	l, -1 (ix)
                                   1765 ;	spillPairReg hl
                                   1766 ;	spillPairReg hl
    0000062E 26 00            [ 7] 1767 	ld	h, #0x00
                                   1768 ;	spillPairReg hl
                                   1769 ;	spillPairReg hl
    00000630 29               [11] 1770 	add	hl, hl
    00000631 29               [11] 1771 	add	hl, hl
    00000632 29               [11] 1772 	add	hl, hl
    00000633 29               [11] 1773 	add	hl, hl
    00000634 29               [11] 1774 	add	hl, hl
    00000635 29               [11] 1775 	add	hl, hl
    00000636 58               [ 4] 1776 	ld	e, b
    00000637 16 00            [ 7] 1777 	ld	d, #0x00
    00000639 19               [11] 1778 	add	hl, de
    0000063A 29               [11] 1779 	add	hl, hl
    0000063B 7C               [ 4] 1780 	ld	a, h
    0000063C 07               [ 4] 1781 	rlca
    0000063D 9F               [ 4] 1782 	sbc	a, a
    0000063E 5F               [ 4] 1783 	ld	e, a
    0000063F 57               [ 4] 1784 	ld	d, a
    00000640 7C               [ 4] 1785 	ld	a, h
    00000641 C6 C0            [ 7] 1786 	add	a, #0xc0
    00000643 67               [ 4] 1787 	ld	h, a
                                   1788 ;	spillPairReg hl
                                   1789 ;	spillPairReg hl
    00000644 7B               [ 4] 1790 	ld	a, e
    00000645 CE 07            [ 7] 1791 	adc	a, #0x07
    00000647 5F               [ 4] 1792 	ld	e, a
    00000648 30 01            [12] 1793 	jr	NC, 00374$
    0000064A 14               [ 4] 1794 	inc	d
    0000064B                       1795 00374$:
                                   1796 ;E:/Dropbox/FAUSTO/SVILUPPI/MSX/CODE/C/MSXgl/engine/src/v9990.h:396: inline void V9_Poke16(u32 addr, u16 val) { V9_SetWriteAddress(addr); V9_Poke16_CurrentAddr(val); }
    0000064B EB               [ 4] 1797 	ex	de, hl
    0000064C CDr00r00         [17] 1798 	call	_V9_SetWriteAddress
    0000064F 21 00 00         [10] 1799 	ld	hl, #0x0000
    00000652 CDr00r00         [17] 1800 	call	_V9_Poke16_CurrentAddr
                                   1801 ;E:\Dropbox\FAUSTO\SVILUPPI\MSX\CODE\C\MSXgl\projects\soccerlg/soccerlg_s4_b1.c:316: for(u8 x=g_TeamGrayPos[g_Team1PaletteId].x;x<g_TeamGrayPos[g_Team1PaletteId].x+10;x++){
    00000655 04               [ 4] 1802 	inc	b
    00000656 C3r02r06         [10] 1803 	jp	00170$
    00000659                       1804 00174$:
                                   1805 ;E:\Dropbox\FAUSTO\SVILUPPI\MSX\CODE\C\MSXgl\projects\soccerlg/soccerlg_s4_b1.c:315: for(u8 y=g_TeamGrayPos[g_Team1PaletteId].y;y<g_TeamGrayPos[g_Team1PaletteId].y+9;y++){
    00000659 DD 34 FF         [23] 1806 	inc	-1 (ix)
    0000065C C3rE2r05         [10] 1807 	jp	00173$
    0000065F                       1808 00107$:
                                   1809 ;E:\Dropbox\FAUSTO\SVILUPPI\MSX\CODE\C\MSXgl\projects\soccerlg/soccerlg_s4_b1.c:321: MenuSpriteBlinking();
    0000065F CDrEEr02         [17] 1810 	call	_MenuSpriteBlinking
                                   1811 ;E:\Dropbox\FAUSTO\SVILUPPI\MSX\CODE\C\MSXgl\projects\soccerlg/soccerlg_s4_b1.c:324: V9990_PrintLayerAStringAtPos(4,0,"     CPU TEAM SELECT   ");
    00000662 21r5Br08         [10] 1812 	ld	hl, #___str_1
    00000665 E5               [11] 1813 	push	hl
    00000666 2E 00            [ 7] 1814 	ld	l, #0x00
                                   1815 ;	spillPairReg hl
                                   1816 ;	spillPairReg hl
    00000668 3E 04            [ 7] 1817 	ld	a, #0x04
    0000066A CDr00r00         [17] 1818 	call	_V9990_PrintLayerAStringAtPos
                                   1819 ;E:\Dropbox\FAUSTO\SVILUPPI\MSX\CODE\C\MSXgl\projects\soccerlg/soccerlg_s4_b1.c:326: g_Team2PaletteId = SelectTeam(SPRITE_CPU, g_Team1PaletteId);
    0000066D 3Ar00r00         [13] 1820 	ld	a, (_g_Team1PaletteId+0)
    00000670 6F               [ 4] 1821 	ld	l, a
                                   1822 ;	spillPairReg hl
                                   1823 ;	spillPairReg hl
    00000671 3E F5            [ 7] 1824 	ld	a, #0xf5
    00000673 CDr00r00         [17] 1825 	call	_SelectTeam
                                   1826 ;E:\Dropbox\FAUSTO\SVILUPPI\MSX\CODE\C\MSXgl\projects\soccerlg/soccerlg_s4_b1.c:329: for(u8 y=g_TeamGrayPos[g_Team2PaletteId].y;y<g_TeamGrayPos[g_Team2PaletteId].y+9;y++){
    00000676 32r00r00         [13] 1827 	ld	(_g_Team2PaletteId+0), a
    00000679 26 00            [ 7] 1828 	ld	h, #0x00
                                   1829 ;	spillPairReg hl
                                   1830 ;	spillPairReg hl
    0000067B 6F               [ 4] 1831 	ld	l, a
                                   1832 ;	spillPairReg hl
                                   1833 ;	spillPairReg hl
    0000067C 29               [11] 1834 	add	hl, hl
    0000067D 29               [11] 1835 	add	hl, hl
    0000067E EB               [ 4] 1836 	ex	de,hl
    0000067F 21rD6r02         [10] 1837 	ld	hl, #_g_TeamGrayPos
    00000682 19               [11] 1838 	add	hl, de
    00000683 DD 75 FD         [19] 1839 	ld	-3 (ix), l
    00000686 DD 74 FE         [19] 1840 	ld	-2 (ix), h
    00000689 23               [ 6] 1841 	inc	hl
    0000068A 23               [ 6] 1842 	inc	hl
    0000068B 4D               [ 4] 1843 	ld	c, l
    0000068C 44               [ 4] 1844 	ld	b, h
    0000068D 0A               [ 7] 1845 	ld	a, (bc)
    0000068E DD 77 FF         [19] 1846 	ld	-1 (ix), a
    00000691                       1847 00179$:
    00000691 DD 6E FD         [19] 1848 	ld	l, -3 (ix)
                                   1849 ;	spillPairReg hl
                                   1850 ;	spillPairReg hl
    00000694 DD 66 FE         [19] 1851 	ld	h, -2 (ix)
                                   1852 ;	spillPairReg hl
                                   1853 ;	spillPairReg hl
    00000697 23               [ 6] 1854 	inc	hl
    00000698 23               [ 6] 1855 	inc	hl
    00000699 4E               [ 7] 1856 	ld	c, (hl)
    0000069A 23               [ 6] 1857 	inc	hl
    0000069B 46               [ 7] 1858 	ld	b, (hl)
    0000069C 21 09 00         [10] 1859 	ld	hl, #0x0009
    0000069F 09               [11] 1860 	add	hl, bc
    000006A0 EB               [ 4] 1861 	ex	de, hl
    000006A1 DD 6E FF         [19] 1862 	ld	l, -1 (ix)
                                   1863 ;	spillPairReg hl
                                   1864 ;	spillPairReg hl
                                   1865 ;	spillPairReg hl
                                   1866 ;	spillPairReg hl
    000006A4 AF               [ 4] 1867 	xor	a, a
    000006A5 67               [ 4] 1868 	ld	h, a
    000006A6 ED 52            [15] 1869 	sbc	hl, de
    000006A8 30 64            [12] 1870 	jr	NC, 00109$
                                   1871 ;E:\Dropbox\FAUSTO\SVILUPPI\MSX\CODE\C\MSXgl\projects\soccerlg/soccerlg_s4_b1.c:330: for(u8 x=g_TeamGrayPos[g_Team2PaletteId].x;x<g_TeamGrayPos[g_Team2PaletteId].x+10;x++){
    000006AA DD 6E FD         [19] 1872 	ld	l, -3 (ix)
    000006AD DD 66 FE         [19] 1873 	ld	h, -2 (ix)
    000006B0 46               [ 7] 1874 	ld	b, (hl)
    000006B1                       1875 00176$:
                                   1876 ;E:\Dropbox\FAUSTO\SVILUPPI\MSX\CODE\C\MSXgl\projects\soccerlg/soccerlg_s4_b1.c:329: for(u8 y=g_TeamGrayPos[g_Team2PaletteId].y;y<g_TeamGrayPos[g_Team2PaletteId].y+9;y++){
    000006B1 3Ar00r00         [13] 1877 	ld	a, (_g_Team2PaletteId+0)
    000006B4 6F               [ 4] 1878 	ld	l, a
                                   1879 ;	spillPairReg hl
                                   1880 ;	spillPairReg hl
    000006B5 26 00            [ 7] 1881 	ld	h, #0x00
                                   1882 ;	spillPairReg hl
                                   1883 ;	spillPairReg hl
    000006B7 29               [11] 1884 	add	hl, hl
    000006B8 29               [11] 1885 	add	hl, hl
    000006B9 7D               [ 4] 1886 	ld	a, l
    000006BA C6rD6            [ 7] 1887 	add	a, #<(_g_TeamGrayPos)
    000006BC DD 77 FD         [19] 1888 	ld	-3 (ix), a
    000006BF 7C               [ 4] 1889 	ld	a, h
    000006C0 CEs02            [ 7] 1890 	adc	a, #>(_g_TeamGrayPos)
    000006C2 DD 77 FE         [19] 1891 	ld	-2 (ix), a
                                   1892 ;E:\Dropbox\FAUSTO\SVILUPPI\MSX\CODE\C\MSXgl\projects\soccerlg/soccerlg_s4_b1.c:330: for(u8 x=g_TeamGrayPos[g_Team2PaletteId].x;x<g_TeamGrayPos[g_Team2PaletteId].x+10;x++){
    000006C5 DD 6E FD         [19] 1893 	ld	l, -3 (ix)
    000006C8 DD 66 FE         [19] 1894 	ld	h, -2 (ix)
    000006CB 5E               [ 7] 1895 	ld	e, (hl)
    000006CC 23               [ 6] 1896 	inc	hl
    000006CD 56               [ 7] 1897 	ld	d, (hl)
    000006CE 21 0A 00         [10] 1898 	ld	hl, #0x000a
    000006D1 19               [11] 1899 	add	hl, de
    000006D2 EB               [ 4] 1900 	ex	de, hl
    000006D3 68               [ 4] 1901 	ld	l, b
                                   1902 ;	spillPairReg hl
                                   1903 ;	spillPairReg hl
                                   1904 ;	spillPairReg hl
                                   1905 ;	spillPairReg hl
    000006D4 AF               [ 4] 1906 	xor	a, a
    000006D5 67               [ 4] 1907 	ld	h, a
    000006D6 ED 52            [15] 1908 	sbc	hl, de
    000006D8 30 2E            [12] 1909 	jr	NC, 00180$
                                   1910 ;E:/Dropbox/FAUSTO/SVILUPPI/MSX/CODE/C/MSXgl/engine/src/v9990.h:1426: inline u32 V9_CellAddrP1A(u8 x, u8 y) { return V9_P1_PNT_A + (((64 * y) + x) * 2); }
    000006DA DD 6E FF         [19] 1911 	ld	l, -1 (ix)
                                   1912 ;	spillPairReg hl
                                   1913 ;	spillPairReg hl
    000006DD 26 00            [ 7] 1914 	ld	h, #0x00
                                   1915 ;	spillPairReg hl
                                   1916 ;	spillPairReg hl
    000006DF 29               [11] 1917 	add	hl, hl
    000006E0 29               [11] 1918 	add	hl, hl
    000006E1 29               [11] 1919 	add	hl, hl
    000006E2 29               [11] 1920 	add	hl, hl
    000006E3 29               [11] 1921 	add	hl, hl
    000006E4 29               [11] 1922 	add	hl, hl
    000006E5 58               [ 4] 1923 	ld	e, b
    000006E6 16 00            [ 7] 1924 	ld	d, #0x00
    000006E8 19               [11] 1925 	add	hl, de
    000006E9 29               [11] 1926 	add	hl, hl
    000006EA 7C               [ 4] 1927 	ld	a, h
    000006EB 07               [ 4] 1928 	rlca
    000006EC 9F               [ 4] 1929 	sbc	a, a
    000006ED 5F               [ 4] 1930 	ld	e, a
    000006EE 57               [ 4] 1931 	ld	d, a
    000006EF 7C               [ 4] 1932 	ld	a, h
    000006F0 C6 C0            [ 7] 1933 	add	a, #0xc0
    000006F2 67               [ 4] 1934 	ld	h, a
                                   1935 ;	spillPairReg hl
                                   1936 ;	spillPairReg hl
    000006F3 7B               [ 4] 1937 	ld	a, e
    000006F4 CE 07            [ 7] 1938 	adc	a, #0x07
    000006F6 5F               [ 4] 1939 	ld	e, a
    000006F7 30 01            [12] 1940 	jr	NC, 00375$
    000006F9 14               [ 4] 1941 	inc	d
    000006FA                       1942 00375$:
                                   1943 ;E:/Dropbox/FAUSTO/SVILUPPI/MSX/CODE/C/MSXgl/engine/src/v9990.h:396: inline void V9_Poke16(u32 addr, u16 val) { V9_SetWriteAddress(addr); V9_Poke16_CurrentAddr(val); }
    000006FA EB               [ 4] 1944 	ex	de, hl
    000006FB CDr00r00         [17] 1945 	call	_V9_SetWriteAddress
    000006FE 21 00 00         [10] 1946 	ld	hl, #0x0000
    00000701 CDr00r00         [17] 1947 	call	_V9_Poke16_CurrentAddr
                                   1948 ;E:\Dropbox\FAUSTO\SVILUPPI\MSX\CODE\C\MSXgl\projects\soccerlg/soccerlg_s4_b1.c:330: for(u8 x=g_TeamGrayPos[g_Team2PaletteId].x;x<g_TeamGrayPos[g_Team2PaletteId].x+10;x++){
    00000704 04               [ 4] 1949 	inc	b
    00000705 C3rB1r06         [10] 1950 	jp	00176$
    00000708                       1951 00180$:
                                   1952 ;E:\Dropbox\FAUSTO\SVILUPPI\MSX\CODE\C\MSXgl\projects\soccerlg/soccerlg_s4_b1.c:329: for(u8 y=g_TeamGrayPos[g_Team2PaletteId].y;y<g_TeamGrayPos[g_Team2PaletteId].y+9;y++){
    00000708 DD 34 FF         [23] 1953 	inc	-1 (ix)
    0000070B C3r91r06         [10] 1954 	jp	00179$
    0000070E                       1955 00109$:
                                   1956 ;E:\Dropbox\FAUSTO\SVILUPPI\MSX\CODE\C\MSXgl\projects\soccerlg/soccerlg_s4_b1.c:336: MenuSpriteBlinking();
    0000070E CDrEEr02         [17] 1957 	call	_MenuSpriteBlinking
                                   1958 ;E:\Dropbox\FAUSTO\SVILUPPI\MSX\CODE\C\MSXgl\projects\soccerlg/soccerlg_s4_b1.c:339: attr.D = 1; 
    00000711 21 07 00         [10] 1959 	ld	hl, #7
    00000714 39               [11] 1960 	add	hl, sp
    00000715 CB E6            [15] 1961 	set	4, (hl)
                                   1962 ;E:\Dropbox\FAUSTO\SVILUPPI\MSX\CODE\C\MSXgl\projects\soccerlg/soccerlg_s4_b1.c:340: V9_SetSpriteP1(0, &attr);
                                   1963 ;E:/Dropbox/FAUSTO/SVILUPPI/MSX/CODE/C/MSXgl/engine/src/v9990.h:781: inline void V9_SetSpriteP1(u8 id, const V9_Sprite* attr) { V9_WriteVRAM(V9_P1_SPAT + (id * 4), (const u8*)attr, 4); }
                                   1964 ;E:/Dropbox/FAUSTO/SVILUPPI/MSX/CODE/C/MSXgl/engine/src/v9990.h:371: inline void V9_WriteVRAM(u32 addr, const u8* src, u16 count) { V9_SetWriteAddress(addr); V9_WriteVRAM_CurrentAddr(src, count); }
    00000717 11 00 FE         [10] 1965 	ld	de, #0xfe00
    0000071A 21 03 00         [10] 1966 	ld	hl, #0x0003
    0000071D CDr00r00         [17] 1967 	call	_V9_SetWriteAddress
    00000720 11 04 00         [10] 1968 	ld	de, #0x0004
    00000723 21 04 00         [10] 1969 	ld	hl, #4
    00000726 39               [11] 1970 	add	hl, sp
    00000727 CDr00r00         [17] 1971 	call	_V9_WriteVRAM_CurrentAddr
                                   1972 ;E:/Dropbox/FAUSTO/SVILUPPI/MSX/CODE/C/MSXgl/engine/src/v9990.h:258: inline void V9_SetFlag(u8 reg, u8 mask, u8 flag) { V9_SetRegister(reg, V9_GetRegister(reg) & (~mask) | flag); }
    0000072A 3E 08            [ 7] 1973 	ld	a, #0x08
    0000072C CDr00r00         [17] 1974 	call	_V9_GetRegister
    0000072F 6F               [ 4] 1975 	ld	l, a
                                   1976 ;	spillPairReg hl
                                   1977 ;	spillPairReg hl
    00000730 CB B5            [ 8] 1978 	res	6, l
    00000732 3E 08            [ 7] 1979 	ld	a, #0x08
    00000734 CDr00r00         [17] 1980 	call	_V9_SetRegister
    00000737 3E 08            [ 7] 1981 	ld	a, #0x08
    00000739 CDr00r00         [17] 1982 	call	_V9_GetRegister
    0000073C 6F               [ 4] 1983 	ld	l, a
                                   1984 ;	spillPairReg hl
                                   1985 ;	spillPairReg hl
    0000073D CB BD            [ 8] 1986 	res	7, l
    0000073F 3E 08            [ 7] 1987 	ld	a, #0x08
    00000741 CDr00r00         [17] 1988 	call	_V9_SetRegister
                                   1989 ;E:\Dropbox\FAUSTO\SVILUPPI\MSX\CODE\C\MSXgl\projects\soccerlg/soccerlg_s4_b1.c:349: if(g_ShowButtonsInfo){
    00000744 3Ar00r00         [13] 1990 	ld	a, (_g_ShowButtonsInfo+0)
    00000747 B7               [ 4] 1991 	or	a, a
    00000748 CAr0Ar08         [10] 1992 	jp	Z, 00116$
                                   1993 ;E:\Dropbox\FAUSTO\SVILUPPI\MSX\CODE\C\MSXgl\projects\soccerlg/soccerlg_s4_b1.c:350: g_ShowButtonsInfo=false;
    0000074B 21r00r00         [10] 1994 	ld	hl, #_g_ShowButtonsInfo
                                   1995 ;E:/Dropbox/FAUSTO/SVILUPPI/MSX/CODE/C/MSXgl/engine/src/v9990.h:353: inline void V9_FillVRAM(u32 addr, u8 value, u16 count) { V9_SetWriteAddress(addr); V9_FillVRAM_CurrentAddr(value, count); }
    0000074E 11 00 00         [10] 1996 	ld	de, #0x0000
    00000751 73               [ 7] 1997 	ld	(hl), e
    00000752 21 00 00         [10] 1998 	ld	hl, #0x0000
    00000755 CDr00r00         [17] 1999 	call	_V9_SetWriteAddress
    00000758 11 00 6A         [10] 2000 	ld	de, #0x6a00
    0000075B AF               [ 4] 2001 	xor	a, a
    0000075C CDr00r00         [17] 2002 	call	_V9_FillVRAM_CurrentAddr
                                   2003 ;E:\Dropbox\FAUSTO\SVILUPPI\MSX\CODE\C\MSXgl\projects\soccerlg/soccerlg_s4_b1.c:352: V9990_LoadButtonsImageData();
    0000075F CDr00r00         [17] 2004 	call	_V9990_LoadButtonsImageData
                                   2005 ;E:/Dropbox/FAUSTO/SVILUPPI/MSX/CODE/C/MSXgl/engine/src/v9990.h:1047: inline void V9_SelectPaletteP1(u8 a, u8 b) { V9_SetRegister(13, ((b & 0x3) << 2) + (a & 0x3)); }
    00000762 3E 01            [ 7] 2006 	ld	a, #0x01
    00000764 E6 03            [ 7] 2007 	and	a, #0x03
    00000766 87               [ 4] 2008 	add	a, a
    00000767 87               [ 4] 2009 	add	a, a
    00000768 4F               [ 4] 2010 	ld	c, a
    00000769 AF               [ 4] 2011 	xor	a, a
    0000076A E6 03            [ 7] 2012 	and	a, #0x03
    0000076C 81               [ 4] 2013 	add	a, c
    0000076D 6F               [ 4] 2014 	ld	l, a
                                   2015 ;	spillPairReg hl
                                   2016 ;	spillPairReg hl
    0000076E 3E 0D            [ 7] 2017 	ld	a, #0x0d
    00000770 CDr00r00         [17] 2018 	call	_V9_SetRegister
                                   2019 ;E:\Dropbox\FAUSTO\SVILUPPI\MSX\CODE\C\MSXgl\projects\soccerlg/soccerlg_s4_b1.c:354: u16 tileId=0;
    00000773 01 00 00         [10] 2020 	ld	bc, #0x0000
                                   2021 ;E:\Dropbox\FAUSTO\SVILUPPI\MSX\CODE\C\MSXgl\projects\soccerlg/soccerlg_s4_b1.c:356: for (u8 y=0;y<64;y++){
    00000776 DD 36 FE 00      [19] 2022 	ld	-2 (ix), #0x00
    0000077A                       2023 00185$:
    0000077A DD 7E FE         [19] 2024 	ld	a, -2 (ix)
    0000077D D6 40            [ 7] 2025 	sub	a, #0x40
    0000077F 30 4F            [12] 2026 	jr	NC, 00111$
                                   2027 ;E:\Dropbox\FAUSTO\SVILUPPI\MSX\CODE\C\MSXgl\projects\soccerlg/soccerlg_s4_b1.c:357: for (u8 x=0;x<32;x++){
    00000781 DD 36 FF 00      [19] 2028 	ld	-1 (ix), #0x00
    00000785                       2029 00182$:
    00000785 DD 7E FF         [19] 2030 	ld	a, -1 (ix)
    00000788 D6 20            [ 7] 2031 	sub	a, #0x20
    0000078A 30 3E            [12] 2032 	jr	NC, 00240$
                                   2033 ;E:\Dropbox\FAUSTO\SVILUPPI\MSX\CODE\C\MSXgl\projects\soccerlg/soccerlg_s4_b1.c:358: V9_Poke16(V9_CellAddrP1A(x,y), tileId++);
    0000078C DD 71 FC         [19] 2034 	ld	-4 (ix), c
    0000078F DD 70 FD         [19] 2035 	ld	-3 (ix), b
    00000792 03               [ 6] 2036 	inc	bc
                                   2037 ;E:/Dropbox/FAUSTO/SVILUPPI/MSX/CODE/C/MSXgl/engine/src/v9990.h:1426: inline u32 V9_CellAddrP1A(u8 x, u8 y) { return V9_P1_PNT_A + (((64 * y) + x) * 2); }
    00000793 DD 6E FE         [19] 2038 	ld	l, -2 (ix)
                                   2039 ;	spillPairReg hl
                                   2040 ;	spillPairReg hl
    00000796 26 00            [ 7] 2041 	ld	h, #0x00
                                   2042 ;	spillPairReg hl
                                   2043 ;	spillPairReg hl
    00000798 29               [11] 2044 	add	hl, hl
    00000799 29               [11] 2045 	add	hl, hl
    0000079A 29               [11] 2046 	add	hl, hl
    0000079B 29               [11] 2047 	add	hl, hl
    0000079C 29               [11] 2048 	add	hl, hl
    0000079D 29               [11] 2049 	add	hl, hl
    0000079E DD 5E FF         [19] 2050 	ld	e, -1 (ix)
    000007A1 16 00            [ 7] 2051 	ld	d, #0x00
    000007A3 19               [11] 2052 	add	hl, de
    000007A4 29               [11] 2053 	add	hl, hl
    000007A5 7C               [ 4] 2054 	ld	a, h
    000007A6 07               [ 4] 2055 	rlca
    000007A7 9F               [ 4] 2056 	sbc	a, a
    000007A8 5F               [ 4] 2057 	ld	e, a
    000007A9 57               [ 4] 2058 	ld	d, a
    000007AA 7C               [ 4] 2059 	ld	a, h
    000007AB C6 C0            [ 7] 2060 	add	a, #0xc0
    000007AD 67               [ 4] 2061 	ld	h, a
                                   2062 ;	spillPairReg hl
                                   2063 ;	spillPairReg hl
    000007AE 7B               [ 4] 2064 	ld	a, e
    000007AF CE 07            [ 7] 2065 	adc	a, #0x07
    000007B1 5F               [ 4] 2066 	ld	e, a
    000007B2 30 01            [12] 2067 	jr	NC, 00376$
    000007B4 14               [ 4] 2068 	inc	d
    000007B5                       2069 00376$:
                                   2070 ;E:/Dropbox/FAUSTO/SVILUPPI/MSX/CODE/C/MSXgl/engine/src/v9990.h:396: inline void V9_Poke16(u32 addr, u16 val) { V9_SetWriteAddress(addr); V9_Poke16_CurrentAddr(val); }
    000007B5 C5               [11] 2071 	push	bc
    000007B6 EB               [ 4] 2072 	ex	de, hl
    000007B7 CDr00r00         [17] 2073 	call	_V9_SetWriteAddress
    000007BA C1               [10] 2074 	pop	bc
    000007BB DD 6E FC         [19] 2075 	ld	l, -4 (ix)
                                   2076 ;	spillPairReg hl
                                   2077 ;	spillPairReg hl
    000007BE DD 66 FD         [19] 2078 	ld	h, -3 (ix)
                                   2079 ;	spillPairReg hl
                                   2080 ;	spillPairReg hl
    000007C1 CDr00r00         [17] 2081 	call	_V9_Poke16_CurrentAddr
                                   2082 ;E:\Dropbox\FAUSTO\SVILUPPI\MSX\CODE\C\MSXgl\projects\soccerlg/soccerlg_s4_b1.c:357: for (u8 x=0;x<32;x++){
    000007C4 DD 34 FF         [23] 2083 	inc	-1 (ix)
    000007C7 C3r85r07         [10] 2084 	jp	00182$
    000007CA                       2085 00240$:
                                   2086 ;E:\Dropbox\FAUSTO\SVILUPPI\MSX\CODE\C\MSXgl\projects\soccerlg/soccerlg_s4_b1.c:356: for (u8 y=0;y<64;y++){
    000007CA DD 34 FE         [23] 2087 	inc	-2 (ix)
    000007CD C3r7Ar07         [10] 2088 	jp	00185$
    000007D0                       2089 00111$:
                                   2090 ;E:/Dropbox/FAUSTO/SVILUPPI/MSX/CODE/C/MSXgl/engine/src/v9990.h:574: inline void V9_SetInterrupt(u8 flags) { V9_SetRegister(9, flags); }
    000007D0 2E 01            [ 7] 2091 	ld	l, #0x01
                                   2092 ;	spillPairReg hl
                                   2093 ;	spillPairReg hl
    000007D2 3E 09            [ 7] 2094 	ld	a, #0x09
    000007D4 CDr00r00         [17] 2095 	call	_V9_SetRegister
                                   2096 ;E:/Dropbox/FAUSTO/SVILUPPI/MSX/CODE/C/MSXgl/engine/src/v9990.h:258: inline void V9_SetFlag(u8 reg, u8 mask, u8 flag) { V9_SetRegister(reg, V9_GetRegister(reg) & (~mask) | flag); }
    000007D7 3E 08            [ 7] 2097 	ld	a, #0x08
    000007D9 CDr00r00         [17] 2098 	call	_V9_GetRegister
    000007DC CB BF            [ 8] 2099 	res	7, a
    000007DE 6F               [ 4] 2100 	ld	l, a
                                   2101 ;	spillPairReg hl
                                   2102 ;	spillPairReg hl
    000007DF CB FD            [ 8] 2103 	set	7, l
    000007E1 3E 08            [ 7] 2104 	ld	a, #0x08
    000007E3 CDr00r00         [17] 2105 	call	_V9_SetRegister
                                   2106 ;E:\Dropbox\FAUSTO\SVILUPPI\MSX\CODE\C\MSXgl\projects\soccerlg/soccerlg_s4_b1.c:363: bool joyTriggered=FALSE;
    000007E6 0E 00            [ 7] 2107 	ld	c, #0x00
                                   2108 ;E:\Dropbox\FAUSTO\SVILUPPI\MSX\CODE\C\MSXgl\projects\soccerlg/soccerlg_s4_b1.c:364: while(!joyTriggered){
    000007E8                       2109 00112$:
    000007E8 79               [ 4] 2110 	ld	a, c
    000007E9 B7               [ 4] 2111 	or	a, a
    000007EA 20 11            [12] 2112 	jr	NZ, 00199$
                                   2113 ;E:\Dropbox\FAUSTO\SVILUPPI\MSX\CODE\C\MSXgl\projects\soccerlg/soccerlg_s4_b1.c:365: joyTriggered=Trampoline_VOID_RETURN(2,IsTeamJoystickTriggerPressed);
    000007EC 11r00r00         [10] 2114 	ld	de, #_IsTeamJoystickTriggerPressed
    000007EF 3E 02            [ 7] 2115 	ld	a, #0x02
    000007F1 CDr00r00         [17] 2116 	call	_Trampoline_VOID_RETURN
    000007F4 4F               [ 4] 2117 	ld	c, a
                                   2118 ;E:\Dropbox\FAUSTO\SVILUPPI\MSX\CODE\C\MSXgl\projects\soccerlg/soccerlg_s4_b1.c:366: V9990_WaitSynch();
    000007F5 C5               [11] 2119 	push	bc
    000007F6 CDr00r00         [17] 2120 	call	_V9990_WaitSynch
    000007F9 C1               [10] 2121 	pop	bc
    000007FA C3rE8r07         [10] 2122 	jp	00112$
                                   2123 ;E:/Dropbox/FAUSTO/SVILUPPI/MSX/CODE/C/MSXgl/engine/src/v9990.h:473: inline void V9_SetDisplayEnable(bool enable) { V9_SetFlag(8, V9_R08_DISP_ON, enable ? V9_R08_DISP_ON : 0); }
    000007FD                       2124 00199$:
                                   2125 ;E:/Dropbox/FAUSTO/SVILUPPI/MSX/CODE/C/MSXgl/engine/src/v9990.h:258: inline void V9_SetFlag(u8 reg, u8 mask, u8 flag) { V9_SetRegister(reg, V9_GetRegister(reg) & (~mask) | flag); }
    000007FD 3E 08            [ 7] 2126 	ld	a, #0x08
    000007FF CDr00r00         [17] 2127 	call	_V9_GetRegister
    00000802 6F               [ 4] 2128 	ld	l, a
                                   2129 ;	spillPairReg hl
                                   2130 ;	spillPairReg hl
    00000803 CB BD            [ 8] 2131 	res	7, l
    00000805 3E 08            [ 7] 2132 	ld	a, #0x08
    00000807 CDr00r00         [17] 2133 	call	_V9_SetRegister
                                   2134 ;E:\Dropbox\FAUSTO\SVILUPPI\MSX\CODE\C\MSXgl\projects\soccerlg/soccerlg_s4_b1.c:369: V9_SetDisplayEnable(FALSE);
    0000080A                       2135 00116$:
                                   2136 ;E:\Dropbox\FAUSTO\SVILUPPI\MSX\CODE\C\MSXgl\projects\soccerlg/soccerlg_s4_b1.c:371: VGM_Stop();
    0000080A CDr00r00         [17] 2137 	call	_VGM_Stop
                                   2138 ;E:\Dropbox\FAUSTO\SVILUPPI\MSX\CODE\C\MSXgl\projects\soccerlg/soccerlg_s4_b1.c:372: PSG_Mute();
    0000080D CDr00r00         [17] 2139 	call	_PSG_Mute
                                   2140 ;E:\Dropbox\FAUSTO\SVILUPPI\MSX\CODE\C\MSXgl\projects\soccerlg/soccerlg_s4_b1.c:373: g_MatchStatus=MATCH_NOT_STARTED;
    00000810 21r00r00         [10] 2141 	ld	hl, #_g_MatchStatus
    00000813 36 00            [10] 2142 	ld	(hl), #0x00
                                   2143 ;E:\Dropbox\FAUSTO\SVILUPPI\MSX\CODE\C\MSXgl\projects\soccerlg/soccerlg_s4_b1.c:377: V9990_LoadP1LayerA();
    00000815 CDr00r00         [17] 2144 	call	_V9990_LoadP1LayerA
                                   2145 ;E:\Dropbox\FAUSTO\SVILUPPI\MSX\CODE\C\MSXgl\projects\soccerlg/soccerlg_s4_b1.c:378: V9990_LoadP1LayerB();
    00000818 CDr00r00         [17] 2146 	call	_V9990_LoadP1LayerB
                                   2147 ;E:\Dropbox\FAUSTO\SVILUPPI\MSX\CODE\C\MSXgl\projects\soccerlg/soccerlg_s4_b1.c:382: Trampoline_VOID(3,V9990_InitPalette);
    0000081B 11r00r00         [10] 2148 	ld	de, #_V9990_InitPalette
    0000081E 3E 03            [ 7] 2149 	ld	a, #0x03
    00000820 CDr00r00         [17] 2150 	call	_Trampoline_VOID
                                   2151 ;E:\Dropbox\FAUSTO\SVILUPPI\MSX\CODE\C\MSXgl\projects\soccerlg/soccerlg_s4_b1.c:385: ShowField();
    00000823 CDrBAr0E         [17] 2152 	call	_ShowField
                                   2153 ;E:/Dropbox/FAUSTO/SVILUPPI/MSX/CODE/C/MSXgl/engine/src/v9990.h:258: inline void V9_SetFlag(u8 reg, u8 mask, u8 flag) { V9_SetRegister(reg, V9_GetRegister(reg) & (~mask) | flag); }
    00000826 3E 08            [ 7] 2154 	ld	a, #0x08
    00000828 CDr00r00         [17] 2155 	call	_V9_GetRegister
    0000082B CB BF            [ 8] 2156 	res	7, a
    0000082D 6F               [ 4] 2157 	ld	l, a
                                   2158 ;	spillPairReg hl
                                   2159 ;	spillPairReg hl
    0000082E CB FD            [ 8] 2160 	set	7, l
    00000830 3E 08            [ 7] 2161 	ld	a, #0x08
    00000832 CDr00r00         [17] 2162 	call	_V9_SetRegister
                                   2163 ;E:/Dropbox/FAUSTO/SVILUPPI/MSX/CODE/C/MSXgl/engine/src/v9990.h:574: inline void V9_SetInterrupt(u8 flags) { V9_SetRegister(9, flags); }
    00000835 2E 01            [ 7] 2164 	ld	l, #0x01
                                   2165 ;	spillPairReg hl
                                   2166 ;	spillPairReg hl
    00000837 3E 09            [ 7] 2167 	ld	a, #0x09
    00000839 CDr00r00         [17] 2168 	call	_V9_SetRegister
                                   2169 ;E:\Dropbox\FAUSTO\SVILUPPI\MSX\CODE\C\MSXgl\projects\soccerlg/soccerlg_s4_b1.c:392: GameStart();
    0000083C CDr08r09         [17] 2170 	call	_GameStart
                                   2171 ;E:\Dropbox\FAUSTO\SVILUPPI\MSX\CODE\C\MSXgl\projects\soccerlg/soccerlg_s4_b1.c:393: }
    0000083F DD F9            [10] 2172 	ld	sp, ix
    00000841 DD E1            [14] 2173 	pop	ix
    00000843 C9               [10] 2174 	ret
    00000844                       2175 ___str_0:
    00000844 20 20 20 20 50 4C 41  2176 	.ascii "    PLAYER TEAM SELECT"
             59 45 52 20 54 45 41
             4D 20 53 45 4C 45 43
             54
    0000085A 00                    2177 	.db 0x00
    0000085B                       2178 ___str_1:
    0000085B 20 20 20 20 20 43 50  2179 	.ascii "     CPU TEAM SELECT   "
             55 20 54 45 41 4D 20
             53 45 4C 45 43 54 20
             20 20
    00000872 00                    2180 	.db 0x00
                                   2181 ;E:\Dropbox\FAUSTO\SVILUPPI\MSX\CODE\C\MSXgl\projects\soccerlg/soccerlg_s4_b1.c:395: void SetTeam1Palette(){
                                   2182 ;	---------------------------------
                                   2183 ; Function SetTeam1Palette
                                   2184 ; ---------------------------------
    00000873                       2185 _SetTeam1Palette::
                                   2186 ;E:\Dropbox\FAUSTO\SVILUPPI\MSX\CODE\C\MSXgl\projects\soccerlg/soccerlg_s4_b1.c:396: V9_SetPalette(32, 16, GetTeamPaletteById(g_Team1PaletteId));
    00000873 3Ar00r00         [13] 2187 	ld	a, (_g_Team1PaletteId+0)
    00000876 CDrCDr08         [17] 2188 	call	_GetTeamPaletteById
    00000879 EB               [ 4] 2189 	ex	de, hl
                                   2190 ;E:\Dropbox\FAUSTO\SVILUPPI\MSX\CODE\C\MSXgl\projects\soccerlg/soccerlg_s4_b1.c:1028: ERROR: no line number 1028 in file E:\Dropbox\FAUSTO\SVILUPPI\MSX\CODE\C\MSXgl\projects\soccerlg/soccerlg_s4_b1.c
    0000087A 01 20 00         [10] 2191 	ld	bc, #0x20
    0000087D                       2192 00104$:
    0000087D 78               [ 4] 2193 	ld	a, b
    0000087E D6 10            [ 7] 2194 	sub	a, #0x10
    00000880 D0               [11] 2195 	ret	NC
    00000881 FD E5            [15] 2196 	push	iy
    00000883 E3               [19] 2197 	ex	(sp), hl
    00000884 69               [ 4] 2198 	ld	l, c
                                   2199 ;	spillPairReg hl
                                   2200 ;	spillPairReg hl
    00000885 E3               [19] 2201 	ex	(sp), hl
    00000886 FD E1            [14] 2202 	pop	iy
    00000888 0C               [ 4] 2203 	inc	c
    00000889 E5               [11] 2204 	push	hl
    0000088A C5               [11] 2205 	push	bc
    0000088B 5D               [ 4] 2206 	ld	e, l
    0000088C 54               [ 4] 2207 	ld	d, h
    0000088D FD E5            [15] 2208 	push	iy
    0000088F E3               [19] 2209 	ex	(sp), hl
    00000890 7D               [ 4] 2210 	ld	a, l
    00000891 E3               [19] 2211 	ex	(sp), hl
    00000892 FD E1            [14] 2212 	pop	iy
    00000894 CDr00r00         [17] 2213 	call	_V9_SetPaletteEntry
    00000897 C1               [10] 2214 	pop	bc
    00000898 E1               [10] 2215 	pop	hl
    00000899 23               [ 6] 2216 	inc	hl
    0000089A 23               [ 6] 2217 	inc	hl
    0000089B 23               [ 6] 2218 	inc	hl
    0000089C 04               [ 4] 2219 	inc	b
                                   2220 ;E:\Dropbox\FAUSTO\SVILUPPI\MSX\CODE\C\MSXgl\projects\soccerlg/soccerlg_s4_b1.c:396: ERROR: no line number 396 in file E:\Dropbox\FAUSTO\SVILUPPI\MSX\CODE\C\MSXgl\projects\soccerlg/soccerlg_s4_b1.c
                                   2221 ;E:\Dropbox\FAUSTO\SVILUPPI\MSX\CODE\C\MSXgl\projects\soccerlg/soccerlg_s4_b1.c:397: ERROR: no line number 397 in file E:\Dropbox\FAUSTO\SVILUPPI\MSX\CODE\C\MSXgl\projects\soccerlg/soccerlg_s4_b1.c
    0000089D C3r7Dr08         [10] 2222 	jp	00104$
                                   2223 ;E:\Dropbox\FAUSTO\SVILUPPI\MSX\CODE\C\MSXgl\projects\soccerlg/soccerlg_s4_b1.c:399: ERROR: no line number 399 in file E:\Dropbox\FAUSTO\SVILUPPI\MSX\CODE\C\MSXgl\projects\soccerlg/soccerlg_s4_b1.c
                                   2224 ;	---------------------------------
                                   2225 ; Function SetTeam2Palette
                                   2226 ; ---------------------------------
    000008A0                       2227 _SetTeam2Palette::
                                   2228 ;E:\Dropbox\FAUSTO\SVILUPPI\MSX\CODE\C\MSXgl\projects\soccerlg/soccerlg_s4_b1.c:400: ERROR: no line number 400 in file E:\Dropbox\FAUSTO\SVILUPPI\MSX\CODE\C\MSXgl\projects\soccerlg/soccerlg_s4_b1.c
    000008A0 3Ar00r00         [13] 2229 	ld	a, (_g_Team2PaletteId+0)
    000008A3 CDrCDr08         [17] 2230 	call	_GetTeamPaletteById
    000008A6 EB               [ 4] 2231 	ex	de, hl
                                   2232 ;E:\Dropbox\FAUSTO\SVILUPPI\MSX\CODE\C\MSXgl\projects\soccerlg/soccerlg_s4_b1.c:1028: ERROR: no line number 1028 in file E:\Dropbox\FAUSTO\SVILUPPI\MSX\CODE\C\MSXgl\projects\soccerlg/soccerlg_s4_b1.c
    000008A7 01 30 00         [10] 2233 	ld	bc, #0x30
    000008AA                       2234 00104$:
    000008AA 78               [ 4] 2235 	ld	a, b
    000008AB D6 10            [ 7] 2236 	sub	a, #0x10
    000008AD D0               [11] 2237 	ret	NC
    000008AE FD E5            [15] 2238 	push	iy
    000008B0 E3               [19] 2239 	ex	(sp), hl
    000008B1 69               [ 4] 2240 	ld	l, c
                                   2241 ;	spillPairReg hl
                                   2242 ;	spillPairReg hl
    000008B2 E3               [19] 2243 	ex	(sp), hl
    000008B3 FD E1            [14] 2244 	pop	iy
    000008B5 0C               [ 4] 2245 	inc	c
    000008B6 E5               [11] 2246 	push	hl
    000008B7 C5               [11] 2247 	push	bc
    000008B8 5D               [ 4] 2248 	ld	e, l
    000008B9 54               [ 4] 2249 	ld	d, h
    000008BA FD E5            [15] 2250 	push	iy
    000008BC E3               [19] 2251 	ex	(sp), hl
    000008BD 7D               [ 4] 2252 	ld	a, l
    000008BE E3               [19] 2253 	ex	(sp), hl
    000008BF FD E1            [14] 2254 	pop	iy
    000008C1 CDr00r00         [17] 2255 	call	_V9_SetPaletteEntry
    000008C4 C1               [10] 2256 	pop	bc
    000008C5 E1               [10] 2257 	pop	hl
    000008C6 23               [ 6] 2258 	inc	hl
    000008C7 23               [ 6] 2259 	inc	hl
    000008C8 23               [ 6] 2260 	inc	hl
    000008C9 04               [ 4] 2261 	inc	b
                                   2262 ;E:\Dropbox\FAUSTO\SVILUPPI\MSX\CODE\C\MSXgl\projects\soccerlg/soccerlg_s4_b1.c:400: ERROR: no line number 400 in file E:\Dropbox\FAUSTO\SVILUPPI\MSX\CODE\C\MSXgl\projects\soccerlg/soccerlg_s4_b1.c
                                   2263 ;E:\Dropbox\FAUSTO\SVILUPPI\MSX\CODE\C\MSXgl\projects\soccerlg/soccerlg_s4_b1.c:401: ERROR: no line number 401 in file E:\Dropbox\FAUSTO\SVILUPPI\MSX\CODE\C\MSXgl\projects\soccerlg/soccerlg_s4_b1.c
    000008CA C3rAAr08         [10] 2264 	jp	00104$
                                   2265 ;E:\Dropbox\FAUSTO\SVILUPPI\MSX\CODE\C\MSXgl\projects\soccerlg/soccerlg_s4_b1.c:402: ERROR: no line number 402 in file E:\Dropbox\FAUSTO\SVILUPPI\MSX\CODE\C\MSXgl\projects\soccerlg/soccerlg_s4_b1.c
                                   2266 ;	---------------------------------
                                   2267 ; Function GetTeamPaletteById
                                   2268 ; ---------------------------------
    000008CD                       2269 _GetTeamPaletteById::
    000008CD 4F               [ 4] 2270 	ld	c, a
                                   2271 ;E:\Dropbox\FAUSTO\SVILUPPI\MSX\CODE\C\MSXgl\projects\soccerlg/soccerlg_s4_b1.c:403: ERROR: no line number 403 in file E:\Dropbox\FAUSTO\SVILUPPI\MSX\CODE\C\MSXgl\projects\soccerlg/soccerlg_s4_b1.c
    000008CE 11r9Er01         [10] 2272 	ld	de, #_g_Data_Palette_Team_ITA
                                   2273 ;E:\Dropbox\FAUSTO\SVILUPPI\MSX\CODE\C\MSXgl\projects\soccerlg/soccerlg_s4_b1.c:404: ERROR: no line number 404 in file E:\Dropbox\FAUSTO\SVILUPPI\MSX\CODE\C\MSXgl\projects\soccerlg/soccerlg_s4_b1.c
    000008D1 3E 05            [ 7] 2274 	ld	a, #0x05
    000008D3 91               [ 4] 2275 	sub	a, c
    000008D4 D8               [11] 2276 	ret	C
    000008D5 06 00            [ 7] 2277 	ld	b, #0x00
    000008D7 21rDEr08         [10] 2278 	ld	hl, #00115$
    000008DA 09               [11] 2279 	add	hl, bc
    000008DB 09               [11] 2280 	add	hl, bc
    000008DC 09               [11] 2281 	add	hl, bc
    000008DD E9               [ 4] 2282 	jp	(hl)
    000008DE                       2283 00115$:
    000008DE C3rF0r08         [10] 2284 	jp	00101$
    000008E1 C3r00r09         [10] 2285 	jp	00105$
    000008E4 C3rF8r08         [10] 2286 	jp	00103$
    000008E7 C3rF4r08         [10] 2287 	jp	00102$
    000008EA C3r04r09         [10] 2288 	jp	00106$
    000008ED C3rFCr08         [10] 2289 	jp	00104$
                                   2290 ;E:\Dropbox\FAUSTO\SVILUPPI\MSX\CODE\C\MSXgl\projects\soccerlg/soccerlg_s4_b1.c:405: ERROR: no line number 405 in file E:\Dropbox\FAUSTO\SVILUPPI\MSX\CODE\C\MSXgl\projects\soccerlg/soccerlg_s4_b1.c
    000008F0                       2291 00101$:
                                   2292 ;E:\Dropbox\FAUSTO\SVILUPPI\MSX\CODE\C\MSXgl\projects\soccerlg/soccerlg_s4_b1.c:406: ERROR: no line number 406 in file E:\Dropbox\FAUSTO\SVILUPPI\MSX\CODE\C\MSXgl\projects\soccerlg/soccerlg_s4_b1.c
    000008F0 11rCEr01         [10] 2293 	ld	de, #_g_Data_Palette_Team_AUS
                                   2294 ;E:\Dropbox\FAUSTO\SVILUPPI\MSX\CODE\C\MSXgl\projects\soccerlg/soccerlg_s4_b1.c:407: ERROR: no line number 407 in file E:\Dropbox\FAUSTO\SVILUPPI\MSX\CODE\C\MSXgl\projects\soccerlg/soccerlg_s4_b1.c
    000008F3 C9               [10] 2295 	ret
                                   2296 ;E:\Dropbox\FAUSTO\SVILUPPI\MSX\CODE\C\MSXgl\projects\soccerlg/soccerlg_s4_b1.c:408: ERROR: no line number 408 in file E:\Dropbox\FAUSTO\SVILUPPI\MSX\CODE\C\MSXgl\projects\soccerlg/soccerlg_s4_b1.c
    000008F4                       2297 00102$:
                                   2298 ;E:\Dropbox\FAUSTO\SVILUPPI\MSX\CODE\C\MSXgl\projects\soccerlg/soccerlg_s4_b1.c:409: ERROR: no line number 409 in file E:\Dropbox\FAUSTO\SVILUPPI\MSX\CODE\C\MSXgl\projects\soccerlg/soccerlg_s4_b1.c
    000008F4 11r8Er02         [10] 2299 	ld	de, #_g_Data_Palette_Team_BRA
                                   2300 ;E:\Dropbox\FAUSTO\SVILUPPI\MSX\CODE\C\MSXgl\projects\soccerlg/soccerlg_s4_b1.c:410: ERROR: no line number 410 in file E:\Dropbox\FAUSTO\SVILUPPI\MSX\CODE\C\MSXgl\projects\soccerlg/soccerlg_s4_b1.c
    000008F7 C9               [10] 2301 	ret
                                   2302 ;E:\Dropbox\FAUSTO\SVILUPPI\MSX\CODE\C\MSXgl\projects\soccerlg/soccerlg_s4_b1.c:411: ERROR: no line number 411 in file E:\Dropbox\FAUSTO\SVILUPPI\MSX\CODE\C\MSXgl\projects\soccerlg/soccerlg_s4_b1.c
    000008F8                       2303 00103$:
                                   2304 ;E:\Dropbox\FAUSTO\SVILUPPI\MSX\CODE\C\MSXgl\projects\soccerlg/soccerlg_s4_b1.c:412: ERROR: no line number 412 in file E:\Dropbox\FAUSTO\SVILUPPI\MSX\CODE\C\MSXgl\projects\soccerlg/soccerlg_s4_b1.c
    000008F8 11r9Er01         [10] 2305 	ld	de, #_g_Data_Palette_Team_ITA
                                   2306 ;E:\Dropbox\FAUSTO\SVILUPPI\MSX\CODE\C\MSXgl\projects\soccerlg/soccerlg_s4_b1.c:413: ERROR: no line number 413 in file E:\Dropbox\FAUSTO\SVILUPPI\MSX\CODE\C\MSXgl\projects\soccerlg/soccerlg_s4_b1.c
    000008FB C9               [10] 2307 	ret
                                   2308 ;E:\Dropbox\FAUSTO\SVILUPPI\MSX\CODE\C\MSXgl\projects\soccerlg/soccerlg_s4_b1.c:414: ERROR: no line number 414 in file E:\Dropbox\FAUSTO\SVILUPPI\MSX\CODE\C\MSXgl\projects\soccerlg/soccerlg_s4_b1.c
    000008FC                       2309 00104$:
                                   2310 ;E:\Dropbox\FAUSTO\SVILUPPI\MSX\CODE\C\MSXgl\projects\soccerlg/soccerlg_s4_b1.c:415: ERROR: no line number 415 in file E:\Dropbox\FAUSTO\SVILUPPI\MSX\CODE\C\MSXgl\projects\soccerlg/soccerlg_s4_b1.c
    000008FC 11r5Er02         [10] 2311 	ld	de, #_g_Data_Palette_Team_GBR
                                   2312 ;E:\Dropbox\FAUSTO\SVILUPPI\MSX\CODE\C\MSXgl\projects\soccerlg/soccerlg_s4_b1.c:416: ERROR: no line number 416 in file E:\Dropbox\FAUSTO\SVILUPPI\MSX\CODE\C\MSXgl\projects\soccerlg/soccerlg_s4_b1.c
    000008FF C9               [10] 2313 	ret
                                   2314 ;E:\Dropbox\FAUSTO\SVILUPPI\MSX\CODE\C\MSXgl\projects\soccerlg/soccerlg_s4_b1.c:417: ERROR: no line number 417 in file E:\Dropbox\FAUSTO\SVILUPPI\MSX\CODE\C\MSXgl\projects\soccerlg/soccerlg_s4_b1.c
    00000900                       2315 00105$:
                                   2316 ;E:\Dropbox\FAUSTO\SVILUPPI\MSX\CODE\C\MSXgl\projects\soccerlg/soccerlg_s4_b1.c:418: ERROR: no line number 418 in file E:\Dropbox\FAUSTO\SVILUPPI\MSX\CODE\C\MSXgl\projects\soccerlg/soccerlg_s4_b1.c
    00000900 11r2Er02         [10] 2317 	ld	de, #_g_Data_Palette_Team_GER
                                   2318 ;E:\Dropbox\FAUSTO\SVILUPPI\MSX\CODE\C\MSXgl\projects\soccerlg/soccerlg_s4_b1.c:419: ERROR: no line number 419 in file E:\Dropbox\FAUSTO\SVILUPPI\MSX\CODE\C\MSXgl\projects\soccerlg/soccerlg_s4_b1.c
    00000903 C9               [10] 2319 	ret
                                   2320 ;E:\Dropbox\FAUSTO\SVILUPPI\MSX\CODE\C\MSXgl\projects\soccerlg/soccerlg_s4_b1.c:420: ERROR: no line number 420 in file E:\Dropbox\FAUSTO\SVILUPPI\MSX\CODE\C\MSXgl\projects\soccerlg/soccerlg_s4_b1.c
    00000904                       2321 00106$:
                                   2322 ;E:\Dropbox\FAUSTO\SVILUPPI\MSX\CODE\C\MSXgl\projects\soccerlg/soccerlg_s4_b1.c:421: ERROR: no line number 421 in file E:\Dropbox\FAUSTO\SVILUPPI\MSX\CODE\C\MSXgl\projects\soccerlg/soccerlg_s4_b1.c
    00000904 11rFEr01         [10] 2323 	ld	de, #_g_Data_Palette_Team_FRA
                                   2324 ;E:\Dropbox\FAUSTO\SVILUPPI\MSX\CODE\C\MSXgl\projects\soccerlg/soccerlg_s4_b1.c:423: ERROR: no line number 423 in file E:\Dropbox\FAUSTO\SVILUPPI\MSX\CODE\C\MSXgl\projects\soccerlg/soccerlg_s4_b1.c
                                   2325 ;E:\Dropbox\FAUSTO\SVILUPPI\MSX\CODE\C\MSXgl\projects\soccerlg/soccerlg_s4_b1.c:424: ERROR: no line number 424 in file E:\Dropbox\FAUSTO\SVILUPPI\MSX\CODE\C\MSXgl\projects\soccerlg/soccerlg_s4_b1.c
                                   2326 ;E:\Dropbox\FAUSTO\SVILUPPI\MSX\CODE\C\MSXgl\projects\soccerlg/soccerlg_s4_b1.c:425: ERROR: no line number 425 in file E:\Dropbox\FAUSTO\SVILUPPI\MSX\CODE\C\MSXgl\projects\soccerlg/soccerlg_s4_b1.c
    00000907 C9               [10] 2327 	ret
                                   2328 ;E:\Dropbox\FAUSTO\SVILUPPI\MSX\CODE\C\MSXgl\projects\soccerlg/soccerlg_s4_b1.c:428: ERROR: no line number 428 in file E:\Dropbox\FAUSTO\SVILUPPI\MSX\CODE\C\MSXgl\projects\soccerlg/soccerlg_s4_b1.c
                                   2329 ;	---------------------------------
                                   2330 ; Function GameStart
                                   2331 ; ---------------------------------
    00000908                       2332 _GameStart::
                                   2333 ;E:\Dropbox\FAUSTO\SVILUPPI\MSX\CODE\C\MSXgl\projects\soccerlg/soccerlg_s4_b1.c:429: ERROR: no line number 429 in file E:\Dropbox\FAUSTO\SVILUPPI\MSX\CODE\C\MSXgl\projects\soccerlg/soccerlg_s4_b1.c
    00000908 21r00r00         [10] 2334 	ld	hl, #_g_PassTargetPlayer
    0000090B 36 FF            [10] 2335 	ld	(hl), #0xff
                                   2336 ;E:\Dropbox\FAUSTO\SVILUPPI\MSX\CODE\C\MSXgl\projects\soccerlg/soccerlg_s4_b1.c:430: ERROR: no line number 430 in file E:\Dropbox\FAUSTO\SVILUPPI\MSX\CODE\C\MSXgl\projects\soccerlg/soccerlg_s4_b1.c
    0000090D 21r00r00         [10] 2337 	ld	hl, #_g_Team1ActivePlayer
    00000910 36 FF            [10] 2338 	ld	(hl), #0xff
                                   2339 ;E:/Dropbox/FAUSTO/SVILUPPI/MSX/CODE/C/MSXgl/engine/src/v9990.h:258: ERROR: no line number 258 in file E:/Dropbox/FAUSTO/SVILUPPI/MSX/CODE/C/MSXgl/engine/src/v9990.h
    00000912 3E 08            [ 7] 2340 	ld	a, #0x08
    00000914 CDr00r00         [17] 2341 	call	_V9_GetRegister
    00000917 6F               [ 4] 2342 	ld	l, a
                                   2343 ;	spillPairReg hl
                                   2344 ;	spillPairReg hl
    00000918 CB BD            [ 8] 2345 	res	7, l
    0000091A 3E 08            [ 7] 2346 	ld	a, #0x08
    0000091C CDr00r00         [17] 2347 	call	_V9_SetRegister
                                   2348 ;E:\Dropbox\FAUSTO\SVILUPPI\MSX\CODE\C\MSXgl\projects\soccerlg/soccerlg_s4_b1.c:432: ERROR: no line number 432 in file E:\Dropbox\FAUSTO\SVILUPPI\MSX\CODE\C\MSXgl\projects\soccerlg/soccerlg_s4_b1.c
    0000091F 21r00r00         [10] 2349 	ld	hl, #_g_SecondsToEndOfMatch
    00000922 36 78            [10] 2350 	ld	(hl), #0x78
                                   2351 ;E:\Dropbox\FAUSTO\SVILUPPI\MSX\CODE\C\MSXgl\projects\soccerlg/soccerlg_s4_b1.c:433: ERROR: no line number 433 in file E:\Dropbox\FAUSTO\SVILUPPI\MSX\CODE\C\MSXgl\projects\soccerlg/soccerlg_s4_b1.c
    00000924 21r00r00         [10] 2352 	ld	hl, #_g_RestartKickTeamId
    00000927 36 01            [10] 2353 	ld	(hl), #0x01
                                   2354 ;E:\Dropbox\FAUSTO\SVILUPPI\MSX\CODE\C\MSXgl\projects\soccerlg/soccerlg_s4_b1.c:434: ERROR: no line number 434 in file E:\Dropbox\FAUSTO\SVILUPPI\MSX\CODE\C\MSXgl\projects\soccerlg/soccerlg_s4_b1.c
    00000929 21r00r00         [10] 2355 	ld	hl, #_g_FieldScrollSpeed
    0000092C 36 01            [10] 2356 	ld	(hl), #0x01
                                   2357 ;E:\Dropbox\FAUSTO\SVILUPPI\MSX\CODE\C\MSXgl\projects\soccerlg/soccerlg_s4_b1.c:435: ERROR: no line number 435 in file E:\Dropbox\FAUSTO\SVILUPPI\MSX\CODE\C\MSXgl\projects\soccerlg/soccerlg_s4_b1.c
    0000092E 21r00r00         [10] 2358 	ld	hl, #_g_FieldScrollingActionInProgress
    00000931 36 FF            [10] 2359 	ld	(hl), #0xff
                                   2360 ;E:\Dropbox\FAUSTO\SVILUPPI\MSX\CODE\C\MSXgl\projects\soccerlg/soccerlg_s4_b1.c:436: ERROR: no line number 436 in file E:\Dropbox\FAUSTO\SVILUPPI\MSX\CODE\C\MSXgl\projects\soccerlg/soccerlg_s4_b1.c
    00000933 21 01 00         [10] 2361 	ld	hl, #0x0001
    00000936 22r00r00         [16] 2362 	ld	(_g_FieldCurrentYPosition), hl
                                   2363 ;E:\Dropbox\FAUSTO\SVILUPPI\MSX\CODE\C\MSXgl\projects\soccerlg/soccerlg_s4_b1.c:437: ERROR: no line number 437 in file E:\Dropbox\FAUSTO\SVILUPPI\MSX\CODE\C\MSXgl\projects\soccerlg/soccerlg_s4_b1.c
    00000939 AF               [ 4] 2364 	xor	a, a
    0000093A 32r00r00         [13] 2365 	ld	(#_g_Team1Score), a
                                   2366 ;E:\Dropbox\FAUSTO\SVILUPPI\MSX\CODE\C\MSXgl\projects\soccerlg/soccerlg_s4_b1.c:438: ERROR: no line number 438 in file E:\Dropbox\FAUSTO\SVILUPPI\MSX\CODE\C\MSXgl\projects\soccerlg/soccerlg_s4_b1.c
    0000093D AF               [ 4] 2367 	xor	a, a
    0000093E 32r00r00         [13] 2368 	ld	(#_g_Team2Score), a
                                   2369 ;E:\Dropbox\FAUSTO\SVILUPPI\MSX\CODE\C\MSXgl\projects\soccerlg/soccerlg_s4_b1.c:439: ERROR: no line number 439 in file E:\Dropbox\FAUSTO\SVILUPPI\MSX\CODE\C\MSXgl\projects\soccerlg/soccerlg_s4_b1.c
    00000941 6C               [ 4] 2370 	ld	l, h
    00000942 CDr00r00         [17] 2371 	call	_V9_SetScrollingY
                                   2372 ;E:\Dropbox\FAUSTO\SVILUPPI\MSX\CODE\C\MSXgl\projects\soccerlg/soccerlg_s4_b1.c:440: ERROR: no line number 440 in file E:\Dropbox\FAUSTO\SVILUPPI\MSX\CODE\C\MSXgl\projects\soccerlg/soccerlg_s4_b1.c
    00000945 21 01 00         [10] 2373 	ld	hl, #0x0001
    00000948 CDr00r00         [17] 2374 	call	_V9_SetScrollingBY
                                   2375 ;E:\Dropbox\FAUSTO\SVILUPPI\MSX\CODE\C\MSXgl\projects\soccerlg/soccerlg_s4_b1.c:441: ERROR: no line number 441 in file E:\Dropbox\FAUSTO\SVILUPPI\MSX\CODE\C\MSXgl\projects\soccerlg/soccerlg_s4_b1.c
    0000094B CDr73r08         [17] 2376 	call	_SetTeam1Palette
                                   2377 ;E:\Dropbox\FAUSTO\SVILUPPI\MSX\CODE\C\MSXgl\projects\soccerlg/soccerlg_s4_b1.c:442: ERROR: no line number 442 in file E:\Dropbox\FAUSTO\SVILUPPI\MSX\CODE\C\MSXgl\projects\soccerlg/soccerlg_s4_b1.c
    0000094E CDrA0r08         [17] 2378 	call	_SetTeam2Palette
                                   2379 ;E:\Dropbox\FAUSTO\SVILUPPI\MSX\CODE\C\MSXgl\projects\soccerlg/soccerlg_s4_b1.c:443: ERROR: no line number 443 in file E:\Dropbox\FAUSTO\SVILUPPI\MSX\CODE\C\MSXgl\projects\soccerlg/soccerlg_s4_b1.c
    00000951 CDr92r0B         [17] 2380 	call	_SetTeamsPresentationSpritesPosition
                                   2381 ;E:\Dropbox\FAUSTO\SVILUPPI\MSX\CODE\C\MSXgl\projects\soccerlg/soccerlg_s4_b1.c:444: ERROR: no line number 444 in file E:\Dropbox\FAUSTO\SVILUPPI\MSX\CODE\C\MSXgl\projects\soccerlg/soccerlg_s4_b1.c
    00000954 3E 01            [ 7] 2382 	ld	a, #0x01
    00000956 CDr8Er0B         [17] 2383 	call	_ShowFieldZone
                                   2384 ;E:\Dropbox\FAUSTO\SVILUPPI\MSX\CODE\C\MSXgl\projects\soccerlg/soccerlg_s4_b1.c:445: ERROR: no line number 445 in file E:\Dropbox\FAUSTO\SVILUPPI\MSX\CODE\C\MSXgl\projects\soccerlg/soccerlg_s4_b1.c
    00000959 CDrB2r0A         [17] 2385 	call	_ShowHeaderInfo
                                   2386 ;E:\Dropbox\FAUSTO\SVILUPPI\MSX\CODE\C\MSXgl\projects\soccerlg/soccerlg_s4_b1.c:446: ERROR: no line number 446 in file E:\Dropbox\FAUSTO\SVILUPPI\MSX\CODE\C\MSXgl\projects\soccerlg/soccerlg_s4_b1.c
    0000095C 11r00r00         [10] 2387 	ld	de, #_InitPonPonGirls
    0000095F 3E 03            [ 7] 2388 	ld	a, #0x03
    00000961 CDr00r00         [17] 2389 	call	_Trampoline_VOID
                                   2390 ;E:/Dropbox/FAUSTO/SVILUPPI/MSX/CODE/C/MSXgl/engine/src/v9990.h:258: ERROR: no line number 258 in file E:/Dropbox/FAUSTO/SVILUPPI/MSX/CODE/C/MSXgl/engine/src/v9990.h
    00000964 3E 08            [ 7] 2391 	ld	a, #0x08
    00000966 CDr00r00         [17] 2392 	call	_V9_GetRegister
    00000969 CB BF            [ 8] 2393 	res	7, a
    0000096B 6F               [ 4] 2394 	ld	l, a
                                   2395 ;	spillPairReg hl
                                   2396 ;	spillPairReg hl
    0000096C CB FD            [ 8] 2397 	set	7, l
    0000096E 3E 08            [ 7] 2398 	ld	a, #0x08
                                   2399 ;E:\Dropbox\FAUSTO\SVILUPPI\MSX\CODE\C\MSXgl\projects\soccerlg/soccerlg_s4_b1.c:447: ERROR: no line number 447 in file E:\Dropbox\FAUSTO\SVILUPPI\MSX\CODE\C\MSXgl\projects\soccerlg/soccerlg_s4_b1.c
                                   2400 ;E:\Dropbox\FAUSTO\SVILUPPI\MSX\CODE\C\MSXgl\projects\soccerlg/soccerlg_s4_b1.c:448: ERROR: no line number 448 in file E:\Dropbox\FAUSTO\SVILUPPI\MSX\CODE\C\MSXgl\projects\soccerlg/soccerlg_s4_b1.c
    00000970 C3r00r00         [10] 2401 	jp	_V9_SetRegister
                                   2402 ;E:\Dropbox\FAUSTO\SVILUPPI\MSX\CODE\C\MSXgl\projects\soccerlg/soccerlg_s4_b1.c:451: ERROR: no line number 451 in file E:\Dropbox\FAUSTO\SVILUPPI\MSX\CODE\C\MSXgl\projects\soccerlg/soccerlg_s4_b1.c
                                   2403 ;	---------------------------------
                                   2404 ; Function PrintTeamName
                                   2405 ; ---------------------------------
    00000973                       2406 _PrintTeamName::
    00000973 DD E5            [15] 2407 	push	ix
    00000975 DD 21 00 00      [14] 2408 	ld	ix,#0
    00000979 DD 39            [15] 2409 	add	ix,sp
    0000097B F5               [11] 2410 	push	af
    0000097C DD 77 FF         [19] 2411 	ld	-1 (ix), a
    0000097F 4D               [ 4] 2412 	ld	c, l
                                   2413 ;E:\Dropbox\FAUSTO\SVILUPPI\MSX\CODE\C\MSXgl\projects\soccerlg/soccerlg_s4_b1.c:456: ERROR: no line number 456 in file E:\Dropbox\FAUSTO\SVILUPPI\MSX\CODE\C\MSXgl\projects\soccerlg/soccerlg_s4_b1.c
    00000980 3E 05            [ 7] 2414 	ld	a, #0x05
    00000982 91               [ 4] 2415 	sub	a, c
    00000983 38 3F            [12] 2416 	jr	C, 00107$
    00000985 06 00            [ 7] 2417 	ld	b, #0x00
    00000987 21r8Er09         [10] 2418 	ld	hl, #00127$
    0000098A 09               [11] 2419 	add	hl, bc
    0000098B 09               [11] 2420 	add	hl, bc
    0000098C 09               [11] 2421 	add	hl, bc
    0000098D E9               [ 4] 2422 	jp	(hl)
    0000098E                       2423 00127$:
    0000098E C3rA0r09         [10] 2424 	jp	00101$
    00000991 C3rBEr09         [10] 2425 	jp	00106$
    00000994 C3rACr09         [10] 2426 	jp	00103$
    00000997 C3rA6r09         [10] 2427 	jp	00102$
    0000099A C3rB2r09         [10] 2428 	jp	00104$
    0000099D C3rB8r09         [10] 2429 	jp	00105$
                                   2430 ;E:\Dropbox\FAUSTO\SVILUPPI\MSX\CODE\C\MSXgl\projects\soccerlg/soccerlg_s4_b1.c:458: ERROR: no line number 458 in file E:\Dropbox\FAUSTO\SVILUPPI\MSX\CODE\C\MSXgl\projects\soccerlg/soccerlg_s4_b1.c
    000009A0                       2431 00101$:
    000009A0 11r57r0A         [10] 2432 	ld	de, #___str_2
    000009A3 C3rC7r09         [10] 2433 	jp	00110$
                                   2434 ;E:\Dropbox\FAUSTO\SVILUPPI\MSX\CODE\C\MSXgl\projects\soccerlg/soccerlg_s4_b1.c:459: ERROR: no line number 459 in file E:\Dropbox\FAUSTO\SVILUPPI\MSX\CODE\C\MSXgl\projects\soccerlg/soccerlg_s4_b1.c
    000009A6                       2435 00102$:
    000009A6 11r5Br0A         [10] 2436 	ld	de, #___str_3
    000009A9 C3rC7r09         [10] 2437 	jp	00110$
                                   2438 ;E:\Dropbox\FAUSTO\SVILUPPI\MSX\CODE\C\MSXgl\projects\soccerlg/soccerlg_s4_b1.c:460: ERROR: no line number 460 in file E:\Dropbox\FAUSTO\SVILUPPI\MSX\CODE\C\MSXgl\projects\soccerlg/soccerlg_s4_b1.c
    000009AC                       2439 00103$:
    000009AC 11r5Fr0A         [10] 2440 	ld	de, #___str_4
    000009AF C3rC7r09         [10] 2441 	jp	00110$
                                   2442 ;E:\Dropbox\FAUSTO\SVILUPPI\MSX\CODE\C\MSXgl\projects\soccerlg/soccerlg_s4_b1.c:461: ERROR: no line number 461 in file E:\Dropbox\FAUSTO\SVILUPPI\MSX\CODE\C\MSXgl\projects\soccerlg/soccerlg_s4_b1.c
    000009B2                       2443 00104$:
    000009B2 11r63r0A         [10] 2444 	ld	de, #___str_5
    000009B5 C3rC7r09         [10] 2445 	jp	00110$
                                   2446 ;E:\Dropbox\FAUSTO\SVILUPPI\MSX\CODE\C\MSXgl\projects\soccerlg/soccerlg_s4_b1.c:462: ERROR: no line number 462 in file E:\Dropbox\FAUSTO\SVILUPPI\MSX\CODE\C\MSXgl\projects\soccerlg/soccerlg_s4_b1.c
    000009B8                       2447 00105$:
    000009B8 11r67r0A         [10] 2448 	ld	de, #___str_6
    000009BB C3rC7r09         [10] 2449 	jp	00110$
                                   2450 ;E:\Dropbox\FAUSTO\SVILUPPI\MSX\CODE\C\MSXgl\projects\soccerlg/soccerlg_s4_b1.c:463: ERROR: no line number 463 in file E:\Dropbox\FAUSTO\SVILUPPI\MSX\CODE\C\MSXgl\projects\soccerlg/soccerlg_s4_b1.c
    000009BE                       2451 00106$:
    000009BE 11r6Br0A         [10] 2452 	ld	de, #___str_7
    000009C1 C3rC7r09         [10] 2453 	jp	00110$
                                   2454 ;E:\Dropbox\FAUSTO\SVILUPPI\MSX\CODE\C\MSXgl\projects\soccerlg/soccerlg_s4_b1.c:464: ERROR: no line number 464 in file E:\Dropbox\FAUSTO\SVILUPPI\MSX\CODE\C\MSXgl\projects\soccerlg/soccerlg_s4_b1.c
    000009C4                       2455 00107$:
    000009C4 11r6Fr0A         [10] 2456 	ld	de, #___str_8
                                   2457 ;E:\Dropbox\FAUSTO\SVILUPPI\MSX\CODE\C\MSXgl\projects\soccerlg/soccerlg_s4_b1.c:465: ERROR: no line number 465 in file E:\Dropbox\FAUSTO\SVILUPPI\MSX\CODE\C\MSXgl\projects\soccerlg/soccerlg_s4_b1.c
    000009C7                       2458 00110$:
                                   2459 ;E:\Dropbox\FAUSTO\SVILUPPI\MSX\CODE\C\MSXgl\projects\soccerlg/soccerlg_s4_b1.c:467: ERROR: no line number 467 in file E:\Dropbox\FAUSTO\SVILUPPI\MSX\CODE\C\MSXgl\projects\soccerlg/soccerlg_s4_b1.c
    000009C7 D5               [11] 2460 	push	de
    000009C8 D5               [11] 2461 	push	de
    000009C9 2E 00            [ 7] 2462 	ld	l, #0x00
                                   2463 ;	spillPairReg hl
                                   2464 ;	spillPairReg hl
    000009CB DD 7E FF         [19] 2465 	ld	a, -1 (ix)
    000009CE CDr00r00         [17] 2466 	call	_V9990_PrintLayerAStringAtPos
    000009D1 D1               [10] 2467 	pop	de
                                   2468 ;E:\Dropbox\FAUSTO\SVILUPPI\MSX\CODE\C\MSXgl\projects\soccerlg/soccerlg_s4_b1.c:469: ERROR: no line number 469 in file E:\Dropbox\FAUSTO\SVILUPPI\MSX\CODE\C\MSXgl\projects\soccerlg/soccerlg_s4_b1.c
    000009D2 1A               [ 7] 2469 	ld	a, (de)
    000009D3 DD 77 FE         [19] 2470 	ld	-2 (ix), a
                                   2471 ;E:\Dropbox\FAUSTO\SVILUPPI\MSX\CODE\C\MSXgl\projects\soccerlg/soccerlg_s4_b1.c:470: ERROR: no line number 470 in file E:\Dropbox\FAUSTO\SVILUPPI\MSX\CODE\C\MSXgl\projects\soccerlg/soccerlg_s4_b1.c
    000009D6 4B               [ 4] 2472 	ld	c, e
    000009D7 42               [ 4] 2473 	ld	b, d
    000009D8 03               [ 6] 2474 	inc	bc
                                   2475 ;E:\Dropbox\FAUSTO\SVILUPPI\MSX\CODE\C\MSXgl\projects\soccerlg/soccerlg_s4_b1.c:471: ERROR: no line number 471 in file E:\Dropbox\FAUSTO\SVILUPPI\MSX\CODE\C\MSXgl\projects\soccerlg/soccerlg_s4_b1.c
    000009D9 13               [ 6] 2476 	inc	de
    000009DA 13               [ 6] 2477 	inc	de
                                   2478 ;E:\Dropbox\FAUSTO\SVILUPPI\MSX\CODE\C\MSXgl\projects\soccerlg/soccerlg_s4_b1.c:468: ERROR: no line number 468 in file E:\Dropbox\FAUSTO\SVILUPPI\MSX\CODE\C\MSXgl\projects\soccerlg/soccerlg_s4_b1.c
    000009DB DD 7E FF         [19] 2479 	ld	a, -1 (ix)
    000009DE B7               [ 4] 2480 	or	a, a
    000009DF 20 3A            [12] 2481 	jr	NZ, 00112$
                                   2482 ;E:\Dropbox\FAUSTO\SVILUPPI\MSX\CODE\C\MSXgl\projects\soccerlg/soccerlg_s4_b1.c:469: ERROR: no line number 469 in file E:\Dropbox\FAUSTO\SVILUPPI\MSX\CODE\C\MSXgl\projects\soccerlg/soccerlg_s4_b1.c
    000009E1 21r00r00         [10] 2483 	ld	hl, #_g_History1
    000009E4 DD 7E FE         [19] 2484 	ld	a, -2 (ix)
    000009E7 77               [ 7] 2485 	ld	(hl), a
                                   2486 ;E:\Dropbox\FAUSTO\SVILUPPI\MSX\CODE\C\MSXgl\projects\soccerlg/soccerlg_s4_b1.c:470: ERROR: no line number 470 in file E:\Dropbox\FAUSTO\SVILUPPI\MSX\CODE\C\MSXgl\projects\soccerlg/soccerlg_s4_b1.c
    000009E8 23               [ 6] 2487 	inc	hl
    000009E9 0A               [ 7] 2488 	ld	a, (bc)
    000009EA 77               [ 7] 2489 	ld	(hl), a
                                   2490 ;E:\Dropbox\FAUSTO\SVILUPPI\MSX\CODE\C\MSXgl\projects\soccerlg/soccerlg_s4_b1.c:471: ERROR: no line number 471 in file E:\Dropbox\FAUSTO\SVILUPPI\MSX\CODE\C\MSXgl\projects\soccerlg/soccerlg_s4_b1.c
    000009EB 01r02r00         [10] 2491 	ld	bc, #_g_History1 + 2
    000009EE 1A               [ 7] 2492 	ld	a, (de)
    000009EF 02               [ 7] 2493 	ld	(bc), a
                                   2494 ;E:\Dropbox\FAUSTO\SVILUPPI\MSX\CODE\C\MSXgl\projects\soccerlg/soccerlg_s4_b1.c:472: ERROR: no line number 472 in file E:\Dropbox\FAUSTO\SVILUPPI\MSX\CODE\C\MSXgl\projects\soccerlg/soccerlg_s4_b1.c
    000009F0 21r03r00         [10] 2495 	ld	hl, #(_g_History1 + 3)
    000009F3 36 3A            [10] 2496 	ld	(hl), #0x3a
                                   2497 ;E:\Dropbox\FAUSTO\SVILUPPI\MSX\CODE\C\MSXgl\projects\soccerlg/soccerlg_s4_b1.c:473: ERROR: no line number 473 in file E:\Dropbox\FAUSTO\SVILUPPI\MSX\CODE\C\MSXgl\projects\soccerlg/soccerlg_s4_b1.c
    000009F5 21r04r00         [10] 2498 	ld	hl, #(_g_History1 + 4)
    000009F8 36 20            [10] 2499 	ld	(hl), #0x20
                                   2500 ;E:\Dropbox\FAUSTO\SVILUPPI\MSX\CODE\C\MSXgl\projects\soccerlg/soccerlg_s4_b1.c:474: ERROR: no line number 474 in file E:\Dropbox\FAUSTO\SVILUPPI\MSX\CODE\C\MSXgl\projects\soccerlg/soccerlg_s4_b1.c
    000009FA 21r05r00         [10] 2501 	ld	hl, #(_g_History1 + 5)
    000009FD 36 20            [10] 2502 	ld	(hl), #0x20
                                   2503 ;E:\Dropbox\FAUSTO\SVILUPPI\MSX\CODE\C\MSXgl\projects\soccerlg/soccerlg_s4_b1.c:475: ERROR: no line number 475 in file E:\Dropbox\FAUSTO\SVILUPPI\MSX\CODE\C\MSXgl\projects\soccerlg/soccerlg_s4_b1.c
    000009FF 21r06r00         [10] 2504 	ld	hl, #(_g_History1 + 6)
    00000A02 36 20            [10] 2505 	ld	(hl), #0x20
                                   2506 ;E:\Dropbox\FAUSTO\SVILUPPI\MSX\CODE\C\MSXgl\projects\soccerlg/soccerlg_s4_b1.c:476: ERROR: no line number 476 in file E:\Dropbox\FAUSTO\SVILUPPI\MSX\CODE\C\MSXgl\projects\soccerlg/soccerlg_s4_b1.c
    00000A04 21r07r00         [10] 2507 	ld	hl, #(_g_History1 + 7)
    00000A07 36 20            [10] 2508 	ld	(hl), #0x20
                                   2509 ;E:\Dropbox\FAUSTO\SVILUPPI\MSX\CODE\C\MSXgl\projects\soccerlg/soccerlg_s4_b1.c:477: ERROR: no line number 477 in file E:\Dropbox\FAUSTO\SVILUPPI\MSX\CODE\C\MSXgl\projects\soccerlg/soccerlg_s4_b1.c
    00000A09 21r08r00         [10] 2510 	ld	hl, #(_g_History1 + 8)
    00000A0C 36 20            [10] 2511 	ld	(hl), #0x20
                                   2512 ;E:\Dropbox\FAUSTO\SVILUPPI\MSX\CODE\C\MSXgl\projects\soccerlg/soccerlg_s4_b1.c:478: ERROR: no line number 478 in file E:\Dropbox\FAUSTO\SVILUPPI\MSX\CODE\C\MSXgl\projects\soccerlg/soccerlg_s4_b1.c
    00000A0E 21r09r00         [10] 2513 	ld	hl, #(_g_History1 + 9)
    00000A11 36 20            [10] 2514 	ld	(hl), #0x20
                                   2515 ;E:\Dropbox\FAUSTO\SVILUPPI\MSX\CODE\C\MSXgl\projects\soccerlg/soccerlg_s4_b1.c:479: ERROR: no line number 479 in file E:\Dropbox\FAUSTO\SVILUPPI\MSX\CODE\C\MSXgl\projects\soccerlg/soccerlg_s4_b1.c
    00000A13 21r0Ar00         [10] 2516 	ld	hl, #(_g_History1 + 10)
    00000A16 36 00            [10] 2517 	ld	(hl), #0x00
    00000A18 C3r52r0A         [10] 2518 	jp	00114$
    00000A1B                       2519 00112$:
                                   2520 ;E:\Dropbox\FAUSTO\SVILUPPI\MSX\CODE\C\MSXgl\projects\soccerlg/soccerlg_s4_b1.c:482: ERROR: no line number 482 in file E:\Dropbox\FAUSTO\SVILUPPI\MSX\CODE\C\MSXgl\projects\soccerlg/soccerlg_s4_b1.c
    00000A1B 21r00r00         [10] 2521 	ld	hl, #_g_History2
    00000A1E DD 7E FE         [19] 2522 	ld	a, -2 (ix)
    00000A21 77               [ 7] 2523 	ld	(hl), a
                                   2524 ;E:\Dropbox\FAUSTO\SVILUPPI\MSX\CODE\C\MSXgl\projects\soccerlg/soccerlg_s4_b1.c:483: ERROR: no line number 483 in file E:\Dropbox\FAUSTO\SVILUPPI\MSX\CODE\C\MSXgl\projects\soccerlg/soccerlg_s4_b1.c
    00000A22 0A               [ 7] 2525 	ld	a, (bc)
    00000A23 32r01r00         [13] 2526 	ld	(#(_g_History2 + 1)),a
                                   2527 ;E:\Dropbox\FAUSTO\SVILUPPI\MSX\CODE\C\MSXgl\projects\soccerlg/soccerlg_s4_b1.c:484: ERROR: no line number 484 in file E:\Dropbox\FAUSTO\SVILUPPI\MSX\CODE\C\MSXgl\projects\soccerlg/soccerlg_s4_b1.c
    00000A26 1A               [ 7] 2528 	ld	a, (de)
    00000A27 32r02r00         [13] 2529 	ld	(#(_g_History2 + 2)),a
                                   2530 ;E:\Dropbox\FAUSTO\SVILUPPI\MSX\CODE\C\MSXgl\projects\soccerlg/soccerlg_s4_b1.c:485: ERROR: no line number 485 in file E:\Dropbox\FAUSTO\SVILUPPI\MSX\CODE\C\MSXgl\projects\soccerlg/soccerlg_s4_b1.c
    00000A2A 21r03r00         [10] 2531 	ld	hl, #(_g_History2 + 3)
    00000A2D 36 3A            [10] 2532 	ld	(hl), #0x3a
                                   2533 ;E:\Dropbox\FAUSTO\SVILUPPI\MSX\CODE\C\MSXgl\projects\soccerlg/soccerlg_s4_b1.c:486: ERROR: no line number 486 in file E:\Dropbox\FAUSTO\SVILUPPI\MSX\CODE\C\MSXgl\projects\soccerlg/soccerlg_s4_b1.c
    00000A2F 21r04r00         [10] 2534 	ld	hl, #(_g_History2 + 4)
    00000A32 36 20            [10] 2535 	ld	(hl), #0x20
                                   2536 ;E:\Dropbox\FAUSTO\SVILUPPI\MSX\CODE\C\MSXgl\projects\soccerlg/soccerlg_s4_b1.c:487: ERROR: no line number 487 in file E:\Dropbox\FAUSTO\SVILUPPI\MSX\CODE\C\MSXgl\projects\soccerlg/soccerlg_s4_b1.c
    00000A34 21r05r00         [10] 2537 	ld	hl, #(_g_History2 + 5)
    00000A37 36 20            [10] 2538 	ld	(hl), #0x20
                                   2539 ;E:\Dropbox\FAUSTO\SVILUPPI\MSX\CODE\C\MSXgl\projects\soccerlg/soccerlg_s4_b1.c:488: ERROR: no line number 488 in file E:\Dropbox\FAUSTO\SVILUPPI\MSX\CODE\C\MSXgl\projects\soccerlg/soccerlg_s4_b1.c
    00000A39 21r06r00         [10] 2540 	ld	hl, #(_g_History2 + 6)
    00000A3C 36 20            [10] 2541 	ld	(hl), #0x20
                                   2542 ;E:\Dropbox\FAUSTO\SVILUPPI\MSX\CODE\C\MSXgl\projects\soccerlg/soccerlg_s4_b1.c:489: ERROR: no line number 489 in file E:\Dropbox\FAUSTO\SVILUPPI\MSX\CODE\C\MSXgl\projects\soccerlg/soccerlg_s4_b1.c
    00000A3E 21r07r00         [10] 2543 	ld	hl, #(_g_History2 + 7)
    00000A41 36 20            [10] 2544 	ld	(hl), #0x20
                                   2545 ;E:\Dropbox\FAUSTO\SVILUPPI\MSX\CODE\C\MSXgl\projects\soccerlg/soccerlg_s4_b1.c:490: ERROR: no line number 490 in file E:\Dropbox\FAUSTO\SVILUPPI\MSX\CODE\C\MSXgl\projects\soccerlg/soccerlg_s4_b1.c
    00000A43 21r08r00         [10] 2546 	ld	hl, #(_g_History2 + 8)
    00000A46 36 20            [10] 2547 	ld	(hl), #0x20
                                   2548 ;E:\Dropbox\FAUSTO\SVILUPPI\MSX\CODE\C\MSXgl\projects\soccerlg/soccerlg_s4_b1.c:491: ERROR: no line number 491 in file E:\Dropbox\FAUSTO\SVILUPPI\MSX\CODE\C\MSXgl\projects\soccerlg/soccerlg_s4_b1.c
    00000A48 21r09r00         [10] 2549 	ld	hl, #(_g_History2 + 9)
    00000A4B 36 20            [10] 2550 	ld	(hl), #0x20
                                   2551 ;E:\Dropbox\FAUSTO\SVILUPPI\MSX\CODE\C\MSXgl\projects\soccerlg/soccerlg_s4_b1.c:492: ERROR: no line number 492 in file E:\Dropbox\FAUSTO\SVILUPPI\MSX\CODE\C\MSXgl\projects\soccerlg/soccerlg_s4_b1.c
    00000A4D 21r0Ar00         [10] 2552 	ld	hl, #(_g_History2 + 10)
    00000A50 36 00            [10] 2553 	ld	(hl), #0x00
    00000A52                       2554 00114$:
                                   2555 ;E:\Dropbox\FAUSTO\SVILUPPI\MSX\CODE\C\MSXgl\projects\soccerlg/soccerlg_s4_b1.c:494: ERROR: no line number 494 in file E:\Dropbox\FAUSTO\SVILUPPI\MSX\CODE\C\MSXgl\projects\soccerlg/soccerlg_s4_b1.c
    00000A52 DD F9            [10] 2556 	ld	sp, ix
    00000A54 DD E1            [14] 2557 	pop	ix
    00000A56 C9               [10] 2558 	ret
    00000A57                       2559 ___str_2:
    00000A57 41 55 53              2560 	.ascii "AUS"
    00000A5A 00                    2561 	.db 0x00
    00000A5B                       2562 ___str_3:
    00000A5B 42 52 41              2563 	.ascii "BRA"
    00000A5E 00                    2564 	.db 0x00
    00000A5F                       2565 ___str_4:
    00000A5F 49 54 41              2566 	.ascii "ITA"
    00000A62 00                    2567 	.db 0x00
    00000A63                       2568 ___str_5:
    00000A63 46 52 41              2569 	.ascii "FRA"
    00000A66 00                    2570 	.db 0x00
    00000A67                       2571 ___str_6:
    00000A67 47 42 52              2572 	.ascii "GBR"
    00000A6A 00                    2573 	.db 0x00
    00000A6B                       2574 ___str_7:
    00000A6B 47 45 52              2575 	.ascii "GER"
    00000A6E 00                    2576 	.db 0x00
    00000A6F                       2577 ___str_8:
    00000A6F 20 20 20              2578 	.ascii "   "
    00000A72 00                    2579 	.db 0x00
                                   2580 ;E:\Dropbox\FAUSTO\SVILUPPI\MSX\CODE\C\MSXgl\projects\soccerlg/soccerlg_s4_b1.c:496: ERROR: no line number 496 in file E:\Dropbox\FAUSTO\SVILUPPI\MSX\CODE\C\MSXgl\projects\soccerlg/soccerlg_s4_b1.c
                                   2581 ;	---------------------------------
                                   2582 ; Function GetNumberString
                                   2583 ; ---------------------------------
    00000A73                       2584 _GetNumberString::
    00000A73 EB               [ 4] 2585 	ex	de, hl
                                   2586 ;E:\Dropbox\FAUSTO\SVILUPPI\MSX\CODE\C\MSXgl\projects\soccerlg/soccerlg_s4_b1.c:500: ERROR: no line number 500 in file E:\Dropbox\FAUSTO\SVILUPPI\MSX\CODE\C\MSXgl\projects\soccerlg/soccerlg_s4_b1.c
    00000A74 4B               [ 4] 2587 	ld	c, e
    00000A75 42               [ 4] 2588 	ld	b, d
    00000A76 79               [ 4] 2589 	ld	a, c
    00000A77 D6 0A            [ 7] 2590 	sub	a, #0x0a
    00000A79 78               [ 4] 2591 	ld	a, b
    00000A7A DE 00            [ 7] 2592 	sbc	a, #0x00
    00000A7C 30 0D            [12] 2593 	jr	NC, 00102$
                                   2594 ;E:\Dropbox\FAUSTO\SVILUPPI\MSX\CODE\C\MSXgl\projects\soccerlg/soccerlg_s4_b1.c:501: ERROR: no line number 501 in file E:\Dropbox\FAUSTO\SVILUPPI\MSX\CODE\C\MSXgl\projects\soccerlg/soccerlg_s4_b1.c
    00000A7E 01r00r00         [10] 2595 	ld	bc, #_GetNumberString_str_65536_1406+0
    00000A81 7B               [ 4] 2596 	ld	a, e
    00000A82 C6 30            [ 7] 2597 	add	a, #0x30
    00000A84 02               [ 7] 2598 	ld	(bc), a
                                   2599 ;E:\Dropbox\FAUSTO\SVILUPPI\MSX\CODE\C\MSXgl\projects\soccerlg/soccerlg_s4_b1.c:502: ERROR: no line number 502 in file E:\Dropbox\FAUSTO\SVILUPPI\MSX\CODE\C\MSXgl\projects\soccerlg/soccerlg_s4_b1.c
    00000A85 03               [ 6] 2600 	inc	bc
    00000A86 AF               [ 4] 2601 	xor	a, a
    00000A87 02               [ 7] 2602 	ld	(bc), a
    00000A88 C3rAEr0A         [10] 2603 	jp	00103$
    00000A8B                       2604 00102$:
                                   2605 ;E:\Dropbox\FAUSTO\SVILUPPI\MSX\CODE\C\MSXgl\projects\soccerlg/soccerlg_s4_b1.c:504: ERROR: no line number 504 in file E:\Dropbox\FAUSTO\SVILUPPI\MSX\CODE\C\MSXgl\projects\soccerlg/soccerlg_s4_b1.c
    00000A8B C5               [11] 2606 	push	bc
    00000A8C 11 0A 00         [10] 2607 	ld	de, #0x000a
    00000A8F 69               [ 4] 2608 	ld	l, c
                                   2609 ;	spillPairReg hl
                                   2610 ;	spillPairReg hl
    00000A90 60               [ 4] 2611 	ld	h, b
                                   2612 ;	spillPairReg hl
                                   2613 ;	spillPairReg hl
    00000A91 CDr00r00         [17] 2614 	call	__divuint
    00000A94 C1               [10] 2615 	pop	bc
    00000A95 7B               [ 4] 2616 	ld	a, e
    00000A96 C6 30            [ 7] 2617 	add	a, #0x30
    00000A98 32r00r00         [13] 2618 	ld	(#_GetNumberString_str_65536_1406),a
                                   2619 ;E:\Dropbox\FAUSTO\SVILUPPI\MSX\CODE\C\MSXgl\projects\soccerlg/soccerlg_s4_b1.c:505: ERROR: no line number 505 in file E:\Dropbox\FAUSTO\SVILUPPI\MSX\CODE\C\MSXgl\projects\soccerlg/soccerlg_s4_b1.c
    00000A9B 11 0A 00         [10] 2620 	ld	de, #0x000a
    00000A9E 69               [ 4] 2621 	ld	l, c
                                   2622 ;	spillPairReg hl
                                   2623 ;	spillPairReg hl
    00000A9F 60               [ 4] 2624 	ld	h, b
                                   2625 ;	spillPairReg hl
                                   2626 ;	spillPairReg hl
    00000AA0 CDr00r00         [17] 2627 	call	__moduint
    00000AA3 7B               [ 4] 2628 	ld	a, e
    00000AA4 C6 30            [ 7] 2629 	add	a, #0x30
    00000AA6 32r01r00         [13] 2630 	ld	(#(_GetNumberString_str_65536_1406 + 1)),a
                                   2631 ;E:\Dropbox\FAUSTO\SVILUPPI\MSX\CODE\C\MSXgl\projects\soccerlg/soccerlg_s4_b1.c:506: ERROR: no line number 506 in file E:\Dropbox\FAUSTO\SVILUPPI\MSX\CODE\C\MSXgl\projects\soccerlg/soccerlg_s4_b1.c
    00000AA9 21r02r00         [10] 2632 	ld	hl, #(_GetNumberString_str_65536_1406 + 2)
    00000AAC 36 00            [10] 2633 	ld	(hl), #0x00
    00000AAE                       2634 00103$:
                                   2635 ;E:\Dropbox\FAUSTO\SVILUPPI\MSX\CODE\C\MSXgl\projects\soccerlg/soccerlg_s4_b1.c:509: ERROR: no line number 509 in file E:\Dropbox\FAUSTO\SVILUPPI\MSX\CODE\C\MSXgl\projects\soccerlg/soccerlg_s4_b1.c
    00000AAE 11r00r00         [10] 2636 	ld	de, #_GetNumberString_str_65536_1406
                                   2637 ;E:\Dropbox\FAUSTO\SVILUPPI\MSX\CODE\C\MSXgl\projects\soccerlg/soccerlg_s4_b1.c:510: ERROR: no line number 510 in file E:\Dropbox\FAUSTO\SVILUPPI\MSX\CODE\C\MSXgl\projects\soccerlg/soccerlg_s4_b1.c
    00000AB1 C9               [10] 2638 	ret
                                   2639 ;E:\Dropbox\FAUSTO\SVILUPPI\MSX\CODE\C\MSXgl\projects\soccerlg/soccerlg_s4_b1.c:512: ERROR: no line number 512 in file E:\Dropbox\FAUSTO\SVILUPPI\MSX\CODE\C\MSXgl\projects\soccerlg/soccerlg_s4_b1.c
                                   2640 ;	---------------------------------
                                   2641 ; Function ShowHeaderInfo
                                   2642 ; ---------------------------------
    00000AB2                       2643 _ShowHeaderInfo::
    00000AB2 DD E5            [15] 2644 	push	ix
    00000AB4 DD 21 00 00      [14] 2645 	ld	ix,#0
    00000AB8 DD 39            [15] 2646 	add	ix,sp
    00000ABA 3B               [ 6] 2647 	dec	sp
                                   2648 ;E:\Dropbox\FAUSTO\SVILUPPI\MSX\CODE\C\MSXgl\projects\soccerlg/soccerlg_s4_b1.c:513: ERROR: no line number 513 in file E:\Dropbox\FAUSTO\SVILUPPI\MSX\CODE\C\MSXgl\projects\soccerlg/soccerlg_s4_b1.c
    00000ABB 3Ar00r00         [13] 2649 	ld	a, (_g_Team1Score+0)
    00000ABE D6 0A            [ 7] 2650 	sub	a, #0x0a
    00000AC0 38 06            [12] 2651 	jr	C, 00106$
    00000AC2 01 04 00         [10] 2652 	ld	bc, #0x0004
    00000AC5 C3rCBr0A         [10] 2653 	jp	00107$
    00000AC8                       2654 00106$:
    00000AC8 01 05 00         [10] 2655 	ld	bc, #0x0005
    00000ACB                       2656 00107$:
                                   2657 ;E:\Dropbox\FAUSTO\SVILUPPI\MSX\CODE\C\MSXgl\projects\soccerlg/soccerlg_s4_b1.c:514: ERROR: no line number 514 in file E:\Dropbox\FAUSTO\SVILUPPI\MSX\CODE\C\MSXgl\projects\soccerlg/soccerlg_s4_b1.c
    00000ACB 3Ar00r00         [13] 2658 	ld	a, (_g_Team2Score+0)
    00000ACE D6 0A            [ 7] 2659 	sub	a, #0x0a
    00000AD0 38 06            [12] 2660 	jr	C, 00108$
    00000AD2 11 09 00         [10] 2661 	ld	de, #0x0009
    00000AD5 C3rDBr0A         [10] 2662 	jp	00109$
    00000AD8                       2663 00108$:
    00000AD8 11 0A 00         [10] 2664 	ld	de, #0x000a
    00000ADB                       2665 00109$:
    00000ADB DD 73 FF         [19] 2666 	ld	-1 (ix), e
                                   2667 ;E:\Dropbox\FAUSTO\SVILUPPI\MSX\CODE\C\MSXgl\projects\soccerlg/soccerlg_s4_b1.c:516: ERROR: no line number 516 in file E:\Dropbox\FAUSTO\SVILUPPI\MSX\CODE\C\MSXgl\projects\soccerlg/soccerlg_s4_b1.c
    00000ADE C5               [11] 2668 	push	bc
    00000ADF 3Ar00r00         [13] 2669 	ld	a, (_g_Team1PaletteId+0)
    00000AE2 6F               [ 4] 2670 	ld	l, a
                                   2671 ;	spillPairReg hl
                                   2672 ;	spillPairReg hl
    00000AE3 AF               [ 4] 2673 	xor	a, a
    00000AE4 CDr73r09         [17] 2674 	call	_PrintTeamName
    00000AE7 C1               [10] 2675 	pop	bc
                                   2676 ;E:\Dropbox\FAUSTO\SVILUPPI\MSX\CODE\C\MSXgl\projects\soccerlg/soccerlg_s4_b1.c:518: ERROR: no line number 518 in file E:\Dropbox\FAUSTO\SVILUPPI\MSX\CODE\C\MSXgl\projects\soccerlg/soccerlg_s4_b1.c
    00000AE8 3Ar00r00         [13] 2677 	ld	a, (_g_Team1Score+0)
    00000AEB 6F               [ 4] 2678 	ld	l, a
                                   2679 ;	spillPairReg hl
                                   2680 ;	spillPairReg hl
    00000AEC 26 00            [ 7] 2681 	ld	h, #0x00
                                   2682 ;	spillPairReg hl
                                   2683 ;	spillPairReg hl
    00000AEE C5               [11] 2684 	push	bc
    00000AEF CDr73r0A         [17] 2685 	call	_GetNumberString
    00000AF2 C1               [10] 2686 	pop	bc
    00000AF3 D5               [11] 2687 	push	de
    00000AF4 2E 00            [ 7] 2688 	ld	l, #0x00
                                   2689 ;	spillPairReg hl
                                   2690 ;	spillPairReg hl
    00000AF6 79               [ 4] 2691 	ld	a, c
    00000AF7 CDr00r00         [17] 2692 	call	_V9990_PrintLayerAStringAtPos
                                   2693 ;E:\Dropbox\FAUSTO\SVILUPPI\MSX\CODE\C\MSXgl\projects\soccerlg/soccerlg_s4_b1.c:519: ERROR: no line number 519 in file E:\Dropbox\FAUSTO\SVILUPPI\MSX\CODE\C\MSXgl\projects\soccerlg/soccerlg_s4_b1.c
    00000AFA 21r88r0B         [10] 2694 	ld	hl, #___str_9
    00000AFD E5               [11] 2695 	push	hl
    00000AFE 2E 00            [ 7] 2696 	ld	l, #0x00
                                   2697 ;	spillPairReg hl
                                   2698 ;	spillPairReg hl
    00000B00 3E 07            [ 7] 2699 	ld	a, #0x07
    00000B02 CDr00r00         [17] 2700 	call	_V9990_PrintLayerAStringAtPos
                                   2701 ;E:\Dropbox\FAUSTO\SVILUPPI\MSX\CODE\C\MSXgl\projects\soccerlg/soccerlg_s4_b1.c:520: ERROR: no line number 520 in file E:\Dropbox\FAUSTO\SVILUPPI\MSX\CODE\C\MSXgl\projects\soccerlg/soccerlg_s4_b1.c
    00000B05 3Ar00r00         [13] 2702 	ld	a, (_g_Team2Score+0)
    00000B08 6F               [ 4] 2703 	ld	l, a
                                   2704 ;	spillPairReg hl
                                   2705 ;	spillPairReg hl
    00000B09 26 00            [ 7] 2706 	ld	h, #0x00
                                   2707 ;	spillPairReg hl
                                   2708 ;	spillPairReg hl
    00000B0B CDr73r0A         [17] 2709 	call	_GetNumberString
    00000B0E D5               [11] 2710 	push	de
    00000B0F 2E 00            [ 7] 2711 	ld	l, #0x00
                                   2712 ;	spillPairReg hl
                                   2713 ;	spillPairReg hl
    00000B11 DD 7E FF         [19] 2714 	ld	a, -1 (ix)
    00000B14 CDr00r00         [17] 2715 	call	_V9990_PrintLayerAStringAtPos
                                   2716 ;E:\Dropbox\FAUSTO\SVILUPPI\MSX\CODE\C\MSXgl\projects\soccerlg/soccerlg_s4_b1.c:522: ERROR: no line number 522 in file E:\Dropbox\FAUSTO\SVILUPPI\MSX\CODE\C\MSXgl\projects\soccerlg/soccerlg_s4_b1.c
    00000B17 3Ar00r00         [13] 2717 	ld	a, (_g_Team2PaletteId+0)
    00000B1A 6F               [ 4] 2718 	ld	l, a
                                   2719 ;	spillPairReg hl
                                   2720 ;	spillPairReg hl
    00000B1B 3E 0C            [ 7] 2721 	ld	a, #0x0c
    00000B1D CDr73r09         [17] 2722 	call	_PrintTeamName
                                   2723 ;E:\Dropbox\FAUSTO\SVILUPPI\MSX\CODE\C\MSXgl\projects\soccerlg/soccerlg_s4_b1.c:523: ERROR: no line number 523 in file E:\Dropbox\FAUSTO\SVILUPPI\MSX\CODE\C\MSXgl\projects\soccerlg/soccerlg_s4_b1.c
    00000B20 3Ar00r00         [13] 2724 	ld	a, (_g_SecondsToEndOfMatch+0)
    00000B23 6F               [ 4] 2725 	ld	l, a
                                   2726 ;	spillPairReg hl
                                   2727 ;	spillPairReg hl
    00000B24 26 00            [ 7] 2728 	ld	h, #0x00
                                   2729 ;	spillPairReg hl
                                   2730 ;	spillPairReg hl
    00000B26 11 3C 00         [10] 2731 	ld	de, #0x003c
    00000B29 CDr00r00         [17] 2732 	call	__divsint
                                   2733 ;E:\Dropbox\FAUSTO\SVILUPPI\MSX\CODE\C\MSXgl\projects\soccerlg/soccerlg_s4_b1.c:524: ERROR: no line number 524 in file E:\Dropbox\FAUSTO\SVILUPPI\MSX\CODE\C\MSXgl\projects\soccerlg/soccerlg_s4_b1.c
    00000B2C 7B               [ 4] 2734 	ld	a, e
    00000B2D 4F               [ 4] 2735 	ld	c, a
    00000B2E 87               [ 4] 2736 	add	a, a
    00000B2F 87               [ 4] 2737 	add	a, a
    00000B30 87               [ 4] 2738 	add	a, a
    00000B31 87               [ 4] 2739 	add	a, a
    00000B32 91               [ 4] 2740 	sub	a, c
    00000B33 87               [ 4] 2741 	add	a, a
    00000B34 87               [ 4] 2742 	add	a, a
    00000B35 4F               [ 4] 2743 	ld	c, a
    00000B36 3Ar00r00         [13] 2744 	ld	a, (_g_SecondsToEndOfMatch+0)
    00000B39 91               [ 4] 2745 	sub	a, c
    00000B3A 4F               [ 4] 2746 	ld	c, a
                                   2747 ;E:\Dropbox\FAUSTO\SVILUPPI\MSX\CODE\C\MSXgl\projects\soccerlg/soccerlg_s4_b1.c:525: ERROR: no line number 525 in file E:\Dropbox\FAUSTO\SVILUPPI\MSX\CODE\C\MSXgl\projects\soccerlg/soccerlg_s4_b1.c
    00000B3B 16 00            [ 7] 2748 	ld	d, #0x00
    00000B3D C5               [11] 2749 	push	bc
    00000B3E EB               [ 4] 2750 	ex	de, hl
    00000B3F CDr73r0A         [17] 2751 	call	_GetNumberString
    00000B42 D5               [11] 2752 	push	de
    00000B43 2E 00            [ 7] 2753 	ld	l, #0x00
                                   2754 ;	spillPairReg hl
                                   2755 ;	spillPairReg hl
    00000B45 3E 1C            [ 7] 2756 	ld	a, #0x1c
    00000B47 CDr00r00         [17] 2757 	call	_V9990_PrintLayerAStringAtPos
    00000B4A 21r8Ar0B         [10] 2758 	ld	hl, #___str_10
    00000B4D E5               [11] 2759 	push	hl
    00000B4E 2E 00            [ 7] 2760 	ld	l, #0x00
                                   2761 ;	spillPairReg hl
                                   2762 ;	spillPairReg hl
    00000B50 3E 1D            [ 7] 2763 	ld	a, #0x1d
    00000B52 CDr00r00         [17] 2764 	call	_V9990_PrintLayerAStringAtPos
    00000B55 C1               [10] 2765 	pop	bc
                                   2766 ;E:\Dropbox\FAUSTO\SVILUPPI\MSX\CODE\C\MSXgl\projects\soccerlg/soccerlg_s4_b1.c:528: ERROR: no line number 528 in file E:\Dropbox\FAUSTO\SVILUPPI\MSX\CODE\C\MSXgl\projects\soccerlg/soccerlg_s4_b1.c
    00000B56 69               [ 4] 2767 	ld	l, c
                                   2768 ;	spillPairReg hl
                                   2769 ;	spillPairReg hl
    00000B57 26 00            [ 7] 2770 	ld	h, #0x00
                                   2771 ;	spillPairReg hl
                                   2772 ;	spillPairReg hl
                                   2773 ;E:\Dropbox\FAUSTO\SVILUPPI\MSX\CODE\C\MSXgl\projects\soccerlg/soccerlg_s4_b1.c:527: ERROR: no line number 527 in file E:\Dropbox\FAUSTO\SVILUPPI\MSX\CODE\C\MSXgl\projects\soccerlg/soccerlg_s4_b1.c
    00000B59 79               [ 4] 2774 	ld	a, c
    00000B5A D6 0A            [ 7] 2775 	sub	a, #0x0a
    00000B5C 38 0E            [12] 2776 	jr	C, 00102$
                                   2777 ;E:\Dropbox\FAUSTO\SVILUPPI\MSX\CODE\C\MSXgl\projects\soccerlg/soccerlg_s4_b1.c:528: ERROR: no line number 528 in file E:\Dropbox\FAUSTO\SVILUPPI\MSX\CODE\C\MSXgl\projects\soccerlg/soccerlg_s4_b1.c
    00000B5E CDr73r0A         [17] 2778 	call	_GetNumberString
    00000B61 D5               [11] 2779 	push	de
    00000B62 2E 00            [ 7] 2780 	ld	l, #0x00
                                   2781 ;	spillPairReg hl
                                   2782 ;	spillPairReg hl
    00000B64 3E 1E            [ 7] 2783 	ld	a, #0x1e
    00000B66 CDr00r00         [17] 2784 	call	_V9990_PrintLayerAStringAtPos
    00000B69 C3r84r0B         [10] 2785 	jp	00104$
    00000B6C                       2786 00102$:
                                   2787 ;E:\Dropbox\FAUSTO\SVILUPPI\MSX\CODE\C\MSXgl\projects\soccerlg/soccerlg_s4_b1.c:531: ERROR: no line number 531 in file E:\Dropbox\FAUSTO\SVILUPPI\MSX\CODE\C\MSXgl\projects\soccerlg/soccerlg_s4_b1.c
    00000B6C 01r8Cr0B         [10] 2788 	ld	bc, #___str_11+0
    00000B6F E5               [11] 2789 	push	hl
    00000B70 C5               [11] 2790 	push	bc
    00000B71 2E 00            [ 7] 2791 	ld	l, #0x00
                                   2792 ;	spillPairReg hl
                                   2793 ;	spillPairReg hl
    00000B73 3E 1E            [ 7] 2794 	ld	a, #0x1e
    00000B75 CDr00r00         [17] 2795 	call	_V9990_PrintLayerAStringAtPos
    00000B78 E1               [10] 2796 	pop	hl
                                   2797 ;E:\Dropbox\FAUSTO\SVILUPPI\MSX\CODE\C\MSXgl\projects\soccerlg/soccerlg_s4_b1.c:532: ERROR: no line number 532 in file E:\Dropbox\FAUSTO\SVILUPPI\MSX\CODE\C\MSXgl\projects\soccerlg/soccerlg_s4_b1.c
    00000B79 CDr73r0A         [17] 2798 	call	_GetNumberString
    00000B7C D5               [11] 2799 	push	de
    00000B7D 2E 00            [ 7] 2800 	ld	l, #0x00
                                   2801 ;	spillPairReg hl
                                   2802 ;	spillPairReg hl
    00000B7F 3E 1F            [ 7] 2803 	ld	a, #0x1f
    00000B81 CDr00r00         [17] 2804 	call	_V9990_PrintLayerAStringAtPos
    00000B84                       2805 00104$:
                                   2806 ;E:\Dropbox\FAUSTO\SVILUPPI\MSX\CODE\C\MSXgl\projects\soccerlg/soccerlg_s4_b1.c:534: ERROR: no line number 534 in file E:\Dropbox\FAUSTO\SVILUPPI\MSX\CODE\C\MSXgl\projects\soccerlg/soccerlg_s4_b1.c
    00000B84 33               [ 6] 2807 	inc	sp
    00000B85 DD E1            [14] 2808 	pop	ix
    00000B87 C9               [10] 2809 	ret
    00000B88                       2810 ___str_9:
    00000B88 2D                    2811 	.ascii "-"
    00000B89 00                    2812 	.db 0x00
    00000B8A                       2813 ___str_10:
    00000B8A 3A                    2814 	.ascii ":"
    00000B8B 00                    2815 	.db 0x00
    00000B8C                       2816 ___str_11:
    00000B8C 30                    2817 	.ascii "0"
    00000B8D 00                    2818 	.db 0x00
                                   2819 ;E:\Dropbox\FAUSTO\SVILUPPI\MSX\CODE\C\MSXgl\projects\soccerlg/soccerlg_s4_b1.c:536: ERROR: no line number 536 in file E:\Dropbox\FAUSTO\SVILUPPI\MSX\CODE\C\MSXgl\projects\soccerlg/soccerlg_s4_b1.c
                                   2820 ;	---------------------------------
                                   2821 ; Function ShowFieldZone
                                   2822 ; ---------------------------------
    00000B8E                       2823 _ShowFieldZone::
    00000B8E 32r00r00         [13] 2824 	ld	(_g_FieldScrollingActionInProgress+0), a
                                   2825 ;E:\Dropbox\FAUSTO\SVILUPPI\MSX\CODE\C\MSXgl\projects\soccerlg/soccerlg_s4_b1.c:537: ERROR: no line number 537 in file E:\Dropbox\FAUSTO\SVILUPPI\MSX\CODE\C\MSXgl\projects\soccerlg/soccerlg_s4_b1.c
                                   2826 ;E:\Dropbox\FAUSTO\SVILUPPI\MSX\CODE\C\MSXgl\projects\soccerlg/soccerlg_s4_b1.c:538: ERROR: no line number 538 in file E:\Dropbox\FAUSTO\SVILUPPI\MSX\CODE\C\MSXgl\projects\soccerlg/soccerlg_s4_b1.c
    00000B91 C9               [10] 2827 	ret
                                   2828 ;E:\Dropbox\FAUSTO\SVILUPPI\MSX\CODE\C\MSXgl\projects\soccerlg/soccerlg_s4_b1.c:540: ERROR: no line number 540 in file E:\Dropbox\FAUSTO\SVILUPPI\MSX\CODE\C\MSXgl\projects\soccerlg/soccerlg_s4_b1.c
                                   2829 ;	---------------------------------
                                   2830 ; Function SetTeamsPresentationSpritesPosition
                                   2831 ; ---------------------------------
    00000B92                       2832 _SetTeamsPresentationSpritesPosition::
    00000B92 DD E5            [15] 2833 	push	ix
    00000B94 DD 21 00 00      [14] 2834 	ld	ix,#0
    00000B98 DD 39            [15] 2835 	add	ix,sp
    00000B9A F5               [11] 2836 	push	af
    00000B9B F5               [11] 2837 	push	af
                                   2838 ;E:\Dropbox\FAUSTO\SVILUPPI\MSX\CODE\C\MSXgl\projects\soccerlg/soccerlg_s4_b1.c:541: ERROR: no line number 541 in file E:\Dropbox\FAUSTO\SVILUPPI\MSX\CODE\C\MSXgl\projects\soccerlg/soccerlg_s4_b1.c
    00000B9C 21r00r00         [10] 2839 	ld	hl, #_g_MatchStatus
                                   2840 ;E:\Dropbox\FAUSTO\SVILUPPI\MSX\CODE\C\MSXgl\projects\soccerlg/soccerlg_s4_b1.c:542: ERROR: no line number 542 in file E:\Dropbox\FAUSTO\SVILUPPI\MSX\CODE\C\MSXgl\projects\soccerlg/soccerlg_s4_b1.c
    00000B9F 36 00            [10] 2841 	ld	(hl), #0x00
    00000BA1 4E               [ 7] 2842 	ld	c, (hl)
    00000BA2                       2843 00105$:
    00000BA2 79               [ 4] 2844 	ld	a, c
    00000BA3 D6 07            [ 7] 2845 	sub	a, #0x07
    00000BA5 30 53            [12] 2846 	jr	NC, 00101$
                                   2847 ;E:\Dropbox\FAUSTO\SVILUPPI\MSX\CODE\C\MSXgl\projects\soccerlg/soccerlg_s4_b1.c:543: ERROR: no line number 543 in file E:\Dropbox\FAUSTO\SVILUPPI\MSX\CODE\C\MSXgl\projects\soccerlg/soccerlg_s4_b1.c
    00000BA7 06 00            [ 7] 2848 	ld	b, #0x00
    00000BA9 69               [ 4] 2849 	ld	l, c
    00000BAA 60               [ 4] 2850 	ld	h, b
    00000BAB 29               [11] 2851 	add	hl, hl
    00000BAC 29               [11] 2852 	add	hl, hl
    00000BAD 09               [11] 2853 	add	hl, bc
    00000BAE 29               [11] 2854 	add	hl, hl
    00000BAF 29               [11] 2855 	add	hl, hl
    00000BB0 09               [11] 2856 	add	hl, bc
    00000BB1 EB               [ 4] 2857 	ex	de, hl
    00000BB2 21r00r00         [10] 2858 	ld	hl, #_g_Players
    00000BB5 19               [11] 2859 	add	hl, de
    00000BB6 E3               [19] 2860 	ex	(sp), hl
    00000BB7 E1               [10] 2861 	pop	hl
    00000BB8 E5               [11] 2862 	push	hl
    00000BB9 36 E6            [10] 2863 	ld	(hl), #0xe6
    00000BBB 23               [ 6] 2864 	inc	hl
    00000BBC 36 00            [10] 2865 	ld	(hl), #0x00
                                   2866 ;E:\Dropbox\FAUSTO\SVILUPPI\MSX\CODE\C\MSXgl\projects\soccerlg/soccerlg_s4_b1.c:544: ERROR: no line number 544 in file E:\Dropbox\FAUSTO\SVILUPPI\MSX\CODE\C\MSXgl\projects\soccerlg/soccerlg_s4_b1.c
    00000BBE DD 7E FC         [19] 2867 	ld	a, -4 (ix)
    00000BC1 C6 02            [ 7] 2868 	add	a, #0x02
    00000BC3 DD 77 FE         [19] 2869 	ld	-2 (ix), a
    00000BC6 DD 7E FD         [19] 2870 	ld	a, -3 (ix)
    00000BC9 CE 00            [ 7] 2871 	adc	a, #0x00
    00000BCB DD 77 FF         [19] 2872 	ld	-1 (ix), a
    00000BCE 59               [ 4] 2873 	ld	e, c
    00000BCF 16 00            [ 7] 2874 	ld	d, #0x00
    00000BD1 6B               [ 4] 2875 	ld	l, e
    00000BD2 62               [ 4] 2876 	ld	h, d
    00000BD3 29               [11] 2877 	add	hl, hl
    00000BD4 29               [11] 2878 	add	hl, hl
    00000BD5 19               [11] 2879 	add	hl, de
    00000BD6 29               [11] 2880 	add	hl, hl
    00000BD7 29               [11] 2881 	add	hl, hl
    00000BD8 11 48 00         [10] 2882 	ld	de, #0x0048
    00000BDB 19               [11] 2883 	add	hl, de
    00000BDC EB               [ 4] 2884 	ex	de, hl
    00000BDD DD 6E FE         [19] 2885 	ld	l, -2 (ix)
    00000BE0 DD 66 FF         [19] 2886 	ld	h, -1 (ix)
    00000BE3 73               [ 7] 2887 	ld	(hl), e
    00000BE4 23               [ 6] 2888 	inc	hl
    00000BE5 72               [ 7] 2889 	ld	(hl), d
                                   2890 ;E:\Dropbox\FAUSTO\SVILUPPI\MSX\CODE\C\MSXgl\projects\soccerlg/soccerlg_s4_b1.c:545: ERROR: no line number 545 in file E:\Dropbox\FAUSTO\SVILUPPI\MSX\CODE\C\MSXgl\projects\soccerlg/soccerlg_s4_b1.c
    00000BE6 E1               [10] 2891 	pop	hl
    00000BE7 E5               [11] 2892 	push	hl
    00000BE8 11 08 00         [10] 2893 	ld	de, #0x0008
    00000BEB 19               [11] 2894 	add	hl, de
    00000BEC 36 10            [10] 2895 	ld	(hl), #0x10
                                   2896 ;E:\Dropbox\FAUSTO\SVILUPPI\MSX\CODE\C\MSXgl\projects\soccerlg/soccerlg_s4_b1.c:546: ERROR: no line number 546 in file E:\Dropbox\FAUSTO\SVILUPPI\MSX\CODE\C\MSXgl\projects\soccerlg/soccerlg_s4_b1.c
    00000BEE E1               [10] 2897 	pop	hl
    00000BEF E5               [11] 2898 	push	hl
    00000BF0 11 09 00         [10] 2899 	ld	de, #0x0009
    00000BF3 19               [11] 2900 	add	hl, de
    00000BF4 36 02            [10] 2901 	ld	(hl), #0x02
                                   2902 ;E:\Dropbox\FAUSTO\SVILUPPI\MSX\CODE\C\MSXgl\projects\soccerlg/soccerlg_s4_b1.c:542: ERROR: no line number 542 in file E:\Dropbox\FAUSTO\SVILUPPI\MSX\CODE\C\MSXgl\projects\soccerlg/soccerlg_s4_b1.c
    00000BF6 0C               [ 4] 2903 	inc	c
    00000BF7 C3rA2r0B         [10] 2904 	jp	00105$
    00000BFA                       2905 00101$:
                                   2906 ;E:\Dropbox\FAUSTO\SVILUPPI\MSX\CODE\C\MSXgl\projects\soccerlg/soccerlg_s4_b1.c:549: ERROR: no line number 549 in file E:\Dropbox\FAUSTO\SVILUPPI\MSX\CODE\C\MSXgl\projects\soccerlg/soccerlg_s4_b1.c
    00000BFA 0E 07            [ 7] 2907 	ld	c, #0x07
    00000BFC                       2908 00108$:
    00000BFC 79               [ 4] 2909 	ld	a, c
    00000BFD D6 0E            [ 7] 2910 	sub	a, #0x0e
    00000BFF 30 55            [12] 2911 	jr	NC, 00102$
                                   2912 ;E:\Dropbox\FAUSTO\SVILUPPI\MSX\CODE\C\MSXgl\projects\soccerlg/soccerlg_s4_b1.c:550: ERROR: no line number 550 in file E:\Dropbox\FAUSTO\SVILUPPI\MSX\CODE\C\MSXgl\projects\soccerlg/soccerlg_s4_b1.c
    00000C01 06 00            [ 7] 2913 	ld	b, #0x00
    00000C03 69               [ 4] 2914 	ld	l, c
    00000C04 60               [ 4] 2915 	ld	h, b
    00000C05 29               [11] 2916 	add	hl, hl
    00000C06 29               [11] 2917 	add	hl, hl
    00000C07 09               [11] 2918 	add	hl, bc
    00000C08 29               [11] 2919 	add	hl, hl
    00000C09 29               [11] 2920 	add	hl, hl
    00000C0A 09               [11] 2921 	add	hl, bc
    00000C0B 11r00r00         [10] 2922 	ld	de, #_g_Players
    00000C0E 19               [11] 2923 	add	hl, de
    00000C0F 5D               [ 4] 2924 	ld	e, l
    00000C10 54               [ 4] 2925 	ld	d, h
    00000C11 36 FA            [10] 2926 	ld	(hl), #0xfa
    00000C13 23               [ 6] 2927 	inc	hl
    00000C14 36 00            [10] 2928 	ld	(hl), #0x00
                                   2929 ;E:\Dropbox\FAUSTO\SVILUPPI\MSX\CODE\C\MSXgl\projects\soccerlg/soccerlg_s4_b1.c:551: ERROR: no line number 551 in file E:\Dropbox\FAUSTO\SVILUPPI\MSX\CODE\C\MSXgl\projects\soccerlg/soccerlg_s4_b1.c
    00000C16 21 02 00         [10] 2930 	ld	hl, #0x0002
    00000C19 19               [11] 2931 	add	hl, de
    00000C1A E3               [19] 2932 	ex	(sp), hl
    00000C1B 79               [ 4] 2933 	ld	a, c
    00000C1C 06 00            [ 7] 2934 	ld	b, #0x00
    00000C1E C6 F9            [ 7] 2935 	add	a, #0xf9
    00000C20 6F               [ 4] 2936 	ld	l, a
                                   2937 ;	spillPairReg hl
                                   2938 ;	spillPairReg hl
    00000C21 78               [ 4] 2939 	ld	a, b
    00000C22 CE FF            [ 7] 2940 	adc	a, #0xff
    00000C24 67               [ 4] 2941 	ld	h, a
                                   2942 ;	spillPairReg hl
                                   2943 ;	spillPairReg hl
    00000C25 D5               [11] 2944 	push	de
    00000C26 5D               [ 4] 2945 	ld	e, l
    00000C27 54               [ 4] 2946 	ld	d, h
    00000C28 29               [11] 2947 	add	hl, hl
    00000C29 29               [11] 2948 	add	hl, hl
    00000C2A 19               [11] 2949 	add	hl, de
    00000C2B 29               [11] 2950 	add	hl, hl
    00000C2C 29               [11] 2951 	add	hl, hl
    00000C2D D1               [10] 2952 	pop	de
    00000C2E 7D               [ 4] 2953 	ld	a, l
    00000C2F C6 48            [ 7] 2954 	add	a, #0x48
    00000C31 47               [ 4] 2955 	ld	b, a
    00000C32 7C               [ 4] 2956 	ld	a, h
    00000C33 CE 00            [ 7] 2957 	adc	a, #0x00
    00000C35 DD 70 FE         [19] 2958 	ld	-2 (ix), b
    00000C38 DD 77 FF         [19] 2959 	ld	-1 (ix), a
    00000C3B E1               [10] 2960 	pop	hl
    00000C3C E5               [11] 2961 	push	hl
    00000C3D DD 7E FE         [19] 2962 	ld	a, -2 (ix)
    00000C40 77               [ 7] 2963 	ld	(hl), a
    00000C41 23               [ 6] 2964 	inc	hl
    00000C42 DD 7E FF         [19] 2965 	ld	a, -1 (ix)
    00000C45 77               [ 7] 2966 	ld	(hl), a
                                   2967 ;E:\Dropbox\FAUSTO\SVILUPPI\MSX\CODE\C\MSXgl\projects\soccerlg/soccerlg_s4_b1.c:552: ERROR: no line number 552 in file E:\Dropbox\FAUSTO\SVILUPPI\MSX\CODE\C\MSXgl\projects\soccerlg/soccerlg_s4_b1.c
    00000C46 21 08 00         [10] 2968 	ld	hl, #0x0008
    00000C49 19               [11] 2969 	add	hl, de
    00000C4A 36 11            [10] 2970 	ld	(hl), #0x11
                                   2971 ;E:\Dropbox\FAUSTO\SVILUPPI\MSX\CODE\C\MSXgl\projects\soccerlg/soccerlg_s4_b1.c:553: ERROR: no line number 553 in file E:\Dropbox\FAUSTO\SVILUPPI\MSX\CODE\C\MSXgl\projects\soccerlg/soccerlg_s4_b1.c
    00000C4C 21 09 00         [10] 2972 	ld	hl, #0x0009
    00000C4F 19               [11] 2973 	add	hl, de
    00000C50 36 01            [10] 2974 	ld	(hl), #0x01
                                   2975 ;E:\Dropbox\FAUSTO\SVILUPPI\MSX\CODE\C\MSXgl\projects\soccerlg/soccerlg_s4_b1.c:549: ERROR: no line number 549 in file E:\Dropbox\FAUSTO\SVILUPPI\MSX\CODE\C\MSXgl\projects\soccerlg/soccerlg_s4_b1.c
    00000C52 0C               [ 4] 2976 	inc	c
    00000C53 C3rFCr0B         [10] 2977 	jp	00108$
    00000C56                       2978 00102$:
                                   2979 ;E:\Dropbox\FAUSTO\SVILUPPI\MSX\CODE\C\MSXgl\projects\soccerlg/soccerlg_s4_b1.c:555: ERROR: no line number 555 in file E:\Dropbox\FAUSTO\SVILUPPI\MSX\CODE\C\MSXgl\projects\soccerlg/soccerlg_s4_b1.c
    00000C56 21 F3 00         [10] 2980 	ld	hl, #0x00f3
    00000C59 22r26r01         [16] 2981 	ld	((_g_Players + 294)), hl
                                   2982 ;E:\Dropbox\FAUSTO\SVILUPPI\MSX\CODE\C\MSXgl\projects\soccerlg/soccerlg_s4_b1.c:556: ERROR: no line number 556 in file E:\Dropbox\FAUSTO\SVILUPPI\MSX\CODE\C\MSXgl\projects\soccerlg/soccerlg_s4_b1.c
    00000C5C 2E 1E            [ 7] 2983 	ld	l, #0x1e
    00000C5E 22r28r01         [16] 2984 	ld	((_g_Players + 296)), hl
                                   2985 ;E:\Dropbox\FAUSTO\SVILUPPI\MSX\CODE\C\MSXgl\projects\soccerlg/soccerlg_s4_b1.c:557: ERROR: no line number 557 in file E:\Dropbox\FAUSTO\SVILUPPI\MSX\CODE\C\MSXgl\projects\soccerlg/soccerlg_s4_b1.c
    00000C61 21r2Er01         [10] 2986 	ld	hl, #(_g_Players + 302)
    00000C64 36 9D            [10] 2987 	ld	(hl), #0x9d
                                   2988 ;E:\Dropbox\FAUSTO\SVILUPPI\MSX\CODE\C\MSXgl\projects\soccerlg/soccerlg_s4_b1.c:558: ERROR: no line number 558 in file E:\Dropbox\FAUSTO\SVILUPPI\MSX\CODE\C\MSXgl\projects\soccerlg/soccerlg_s4_b1.c
    00000C66 21r2Fr01         [10] 2989 	ld	hl, #(_g_Players + 303)
    00000C69 36 0E            [10] 2990 	ld	(hl), #0x0e
                                   2991 ;E:\Dropbox\FAUSTO\SVILUPPI\MSX\CODE\C\MSXgl\projects\soccerlg/soccerlg_s4_b1.c:559: ERROR: no line number 559 in file E:\Dropbox\FAUSTO\SVILUPPI\MSX\CODE\C\MSXgl\projects\soccerlg/soccerlg_s4_b1.c
    00000C6B 21r32r01         [10] 2992 	ld	hl, #(_g_Players + 306)
    00000C6E 36 00            [10] 2993 	ld	(hl), #0x00
                                   2994 ;E:\Dropbox\FAUSTO\SVILUPPI\MSX\CODE\C\MSXgl\projects\soccerlg/soccerlg_s4_b1.c:560: ERROR: no line number 560 in file E:\Dropbox\FAUSTO\SVILUPPI\MSX\CODE\C\MSXgl\projects\soccerlg/soccerlg_s4_b1.c
    00000C70 21r30r01         [10] 2995 	ld	hl, #(_g_Players + 304)
    00000C73 36 03            [10] 2996 	ld	(hl), #0x03
                                   2997 ;E:\Dropbox\FAUSTO\SVILUPPI\MSX\CODE\C\MSXgl\projects\soccerlg/soccerlg_s4_b1.c:561: ERROR: no line number 561 in file E:\Dropbox\FAUSTO\SVILUPPI\MSX\CODE\C\MSXgl\projects\soccerlg/soccerlg_s4_b1.c
    00000C75 21r33r01         [10] 2998 	ld	hl, #(_g_Players + 307)
    00000C78 36 FF            [10] 2999 	ld	(hl), #0xff
                                   3000 ;E:\Dropbox\FAUSTO\SVILUPPI\MSX\CODE\C\MSXgl\projects\soccerlg/soccerlg_s4_b1.c:562: ERROR: no line number 562 in file E:\Dropbox\FAUSTO\SVILUPPI\MSX\CODE\C\MSXgl\projects\soccerlg/soccerlg_s4_b1.c
    00000C7A 21 00 00         [10] 3001 	ld	hl, #0x0000
    00000C7D 22r38r01         [16] 3002 	ld	((_g_Players + 312)), hl
                                   3003 ;E:\Dropbox\FAUSTO\SVILUPPI\MSX\CODE\C\MSXgl\projects\soccerlg/soccerlg_s4_b1.c:563: ERROR: no line number 563 in file E:\Dropbox\FAUSTO\SVILUPPI\MSX\CODE\C\MSXgl\projects\soccerlg/soccerlg_s4_b1.c
    00000C80 CDrD2r03         [17] 3004 	call	_ResetPlayersInfo
                                   3005 ;E:\Dropbox\FAUSTO\SVILUPPI\MSX\CODE\C\MSXgl\projects\soccerlg/soccerlg_s4_b1.c:564: ERROR: no line number 564 in file E:\Dropbox\FAUSTO\SVILUPPI\MSX\CODE\C\MSXgl\projects\soccerlg/soccerlg_s4_b1.c
    00000C83 3E 0E            [ 7] 3006 	ld	a, #0x0e
    00000C85 CDr0Dr0D         [17] 3007 	call	_SetPlayerTarget
                                   3008 ;E:\Dropbox\FAUSTO\SVILUPPI\MSX\CODE\C\MSXgl\projects\soccerlg/soccerlg_s4_b1.c:572: ERROR: no line number 572 in file E:\Dropbox\FAUSTO\SVILUPPI\MSX\CODE\C\MSXgl\projects\soccerlg/soccerlg_s4_b1.c
    00000C88 0E 00            [ 7] 3009 	ld	c, #0x00
    00000C8A                       3010 00111$:
    00000C8A 79               [ 4] 3011 	ld	a, c
    00000C8B D6 0E            [ 7] 3012 	sub	a, #0x0e
    00000C8D 30 39            [12] 3013 	jr	NC, 00103$
                                   3014 ;E:\Dropbox\FAUSTO\SVILUPPI\MSX\CODE\C\MSXgl\projects\soccerlg/soccerlg_s4_b1.c:573: ERROR: no line number 573 in file E:\Dropbox\FAUSTO\SVILUPPI\MSX\CODE\C\MSXgl\projects\soccerlg/soccerlg_s4_b1.c
    00000C8F 06 00            [ 7] 3015 	ld	b, #0x00
    00000C91 69               [ 4] 3016 	ld	l, c
    00000C92 60               [ 4] 3017 	ld	h, b
    00000C93 29               [11] 3018 	add	hl, hl
    00000C94 29               [11] 3019 	add	hl, hl
    00000C95 09               [11] 3020 	add	hl, bc
    00000C96 29               [11] 3021 	add	hl, hl
    00000C97 29               [11] 3022 	add	hl, hl
    00000C98 09               [11] 3023 	add	hl, bc
    00000C99 EB               [ 4] 3024 	ex	de, hl
    00000C9A 21r00r00         [10] 3025 	ld	hl, #_g_Players
    00000C9D 19               [11] 3026 	add	hl, de
    00000C9E EB               [ 4] 3027 	ex	de, hl
    00000C9F 21 14 00         [10] 3028 	ld	hl, #0x0014
    00000CA2 19               [11] 3029 	add	hl, de
    00000CA3 36 00            [10] 3030 	ld	(hl), #0x00
                                   3031 ;E:\Dropbox\FAUSTO\SVILUPPI\MSX\CODE\C\MSXgl\projects\soccerlg/soccerlg_s4_b1.c:574: ERROR: no line number 574 in file E:\Dropbox\FAUSTO\SVILUPPI\MSX\CODE\C\MSXgl\projects\soccerlg/soccerlg_s4_b1.c
    00000CA5 21 0D 00         [10] 3032 	ld	hl, #0x000d
    00000CA8 19               [11] 3033 	add	hl, de
    00000CA9 DD 75 FE         [19] 3034 	ld	-2 (ix), l
    00000CAC DD 74 FF         [19] 3035 	ld	-1 (ix), h
    00000CAF 69               [ 4] 3036 	ld	l, c
                                   3037 ;	spillPairReg hl
                                   3038 ;	spillPairReg hl
    00000CB0 26 00            [ 7] 3039 	ld	h, #0x00
                                   3040 ;	spillPairReg hl
                                   3041 ;	spillPairReg hl
    00000CB2 C5               [11] 3042 	push	bc
    00000CB3 11 07 00         [10] 3043 	ld	de, #0x0007
    00000CB6 CDr00r00         [17] 3044 	call	__modsint
    00000CB9 C1               [10] 3045 	pop	bc
    00000CBA 21rE5r0C         [10] 3046 	ld	hl, #_SetTeamsPresentationSpritesPosition_k_PlayerRoles_65537_1420
    00000CBD 19               [11] 3047 	add	hl, de
    00000CBE 7E               [ 7] 3048 	ld	a, (hl)
    00000CBF D1               [10] 3049 	pop	de
    00000CC0 E1               [10] 3050 	pop	hl
    00000CC1 E5               [11] 3051 	push	hl
    00000CC2 D5               [11] 3052 	push	de
    00000CC3 77               [ 7] 3053 	ld	(hl), a
                                   3054 ;E:\Dropbox\FAUSTO\SVILUPPI\MSX\CODE\C\MSXgl\projects\soccerlg/soccerlg_s4_b1.c:572: ERROR: no line number 572 in file E:\Dropbox\FAUSTO\SVILUPPI\MSX\CODE\C\MSXgl\projects\soccerlg/soccerlg_s4_b1.c
    00000CC4 0C               [ 4] 3055 	inc	c
    00000CC5 C3r8Ar0C         [10] 3056 	jp	00111$
    00000CC8                       3057 00103$:
                                   3058 ;E:\Dropbox\FAUSTO\SVILUPPI\MSX\CODE\C\MSXgl\projects\soccerlg/soccerlg_s4_b1.c:576: ERROR: no line number 576 in file E:\Dropbox\FAUSTO\SVILUPPI\MSX\CODE\C\MSXgl\projects\soccerlg/soccerlg_s4_b1.c
    00000CC8 21 78 00         [10] 3059 	ld	hl, #0x0078
    00000CCB 22r02r00         [16] 3060 	ld	((_g_Ball + 2)), hl
                                   3061 ;E:\Dropbox\FAUSTO\SVILUPPI\MSX\CODE\C\MSXgl\projects\soccerlg/soccerlg_s4_b1.c:577: ERROR: no line number 577 in file E:\Dropbox\FAUSTO\SVILUPPI\MSX\CODE\C\MSXgl\projects\soccerlg/soccerlg_s4_b1.c
    00000CCE 2E F3            [ 7] 3062 	ld	l, #0xf3
    00000CD0 22r00r00         [16] 3063 	ld	(_g_Ball), hl
                                   3064 ;E:\Dropbox\FAUSTO\SVILUPPI\MSX\CODE\C\MSXgl\projects\soccerlg/soccerlg_s4_b1.c:578: ERROR: no line number 578 in file E:\Dropbox\FAUSTO\SVILUPPI\MSX\CODE\C\MSXgl\projects\soccerlg/soccerlg_s4_b1.c
    00000CD3 ED 4Br00r00      [20] 3065 	ld	bc, (#_g_Ball + 0)
    00000CD7 ED 43r07r00      [20] 3066 	ld	((_g_Ball + 7)), bc
                                   3067 ;E:\Dropbox\FAUSTO\SVILUPPI\MSX\CODE\C\MSXgl\projects\soccerlg/soccerlg_s4_b1.c:579: ERROR: no line number 579 in file E:\Dropbox\FAUSTO\SVILUPPI\MSX\CODE\C\MSXgl\projects\soccerlg/soccerlg_s4_b1.c
    00000CDB 3E 01            [ 7] 3068 	ld	a, #0x01
    00000CDD CDrECr0C         [17] 3069 	call	_ResetBallInfo
                                   3070 ;E:\Dropbox\FAUSTO\SVILUPPI\MSX\CODE\C\MSXgl\projects\soccerlg/soccerlg_s4_b1.c:580: ERROR: no line number 580 in file E:\Dropbox\FAUSTO\SVILUPPI\MSX\CODE\C\MSXgl\projects\soccerlg/soccerlg_s4_b1.c
    00000CE0 DD F9            [10] 3071 	ld	sp, ix
    00000CE2 DD E1            [14] 3072 	pop	ix
    00000CE4 C9               [10] 3073 	ret
    00000CE5                       3074 _SetTeamsPresentationSpritesPosition_k_PlayerRoles_65537_1420:
    00000CE5 00                    3075 	.db #0x00	; 0
    00000CE6 01                    3076 	.db #0x01	; 1
    00000CE7 04                    3077 	.db #0x04	; 4
    00000CE8 03                    3078 	.db #0x03	; 3
    00000CE9 02                    3079 	.db #0x02	; 2
    00000CEA 05                    3080 	.db #0x05	; 5
    00000CEB 06                    3081 	.db #0x06	; 6
                                   3082 ;E:\Dropbox\FAUSTO\SVILUPPI\MSX\CODE\C\MSXgl\projects\soccerlg/soccerlg_s4_b1.c:582: ERROR: no line number 582 in file E:\Dropbox\FAUSTO\SVILUPPI\MSX\CODE\C\MSXgl\projects\soccerlg/soccerlg_s4_b1.c
                                   3083 ;	---------------------------------
                                   3084 ; Function ResetBallInfo
                                   3085 ; ---------------------------------
    00000CEC                       3086 _ResetBallInfo::
    00000CEC 4F               [ 4] 3087 	ld	c, a
                                   3088 ;E:\Dropbox\FAUSTO\SVILUPPI\MSX\CODE\C\MSXgl\projects\soccerlg/soccerlg_s4_b1.c:583: ERROR: no line number 583 in file E:\Dropbox\FAUSTO\SVILUPPI\MSX\CODE\C\MSXgl\projects\soccerlg/soccerlg_s4_b1.c
    00000CED ED 5Br00r00      [20] 3089 	ld	de, (#_g_Ball + 0)
    00000CF1 ED 53r07r00      [20] 3090 	ld	((_g_Ball + 7)), de
                                   3091 ;E:\Dropbox\FAUSTO\SVILUPPI\MSX\CODE\C\MSXgl\projects\soccerlg/soccerlg_s4_b1.c:584: ERROR: no line number 584 in file E:\Dropbox\FAUSTO\SVILUPPI\MSX\CODE\C\MSXgl\projects\soccerlg/soccerlg_s4_b1.c
    00000CF5 21r0Dr00         [10] 3092 	ld	hl, #(_g_Ball + 13)
    00000CF8 36 FF            [10] 3093 	ld	(hl), #0xff
                                   3094 ;E:\Dropbox\FAUSTO\SVILUPPI\MSX\CODE\C\MSXgl\projects\soccerlg/soccerlg_s4_b1.c:585: ERROR: no line number 585 in file E:\Dropbox\FAUSTO\SVILUPPI\MSX\CODE\C\MSXgl\projects\soccerlg/soccerlg_s4_b1.c
    00000CFA 21r04r00         [10] 3095 	ld	hl, #(_g_Ball + 4)
    00000CFD 36 01            [10] 3096 	ld	(hl), #0x01
                                   3097 ;E:\Dropbox\FAUSTO\SVILUPPI\MSX\CODE\C\MSXgl\projects\soccerlg/soccerlg_s4_b1.c:586: ERROR: no line number 586 in file E:\Dropbox\FAUSTO\SVILUPPI\MSX\CODE\C\MSXgl\projects\soccerlg/soccerlg_s4_b1.c
    00000CFF 21r05r00         [10] 3098 	ld	hl, #(_g_Ball + 5)
    00000D02 36 00            [10] 3099 	ld	(hl), #0x00
                                   3100 ;E:\Dropbox\FAUSTO\SVILUPPI\MSX\CODE\C\MSXgl\projects\soccerlg/soccerlg_s4_b1.c:587: ERROR: no line number 587 in file E:\Dropbox\FAUSTO\SVILUPPI\MSX\CODE\C\MSXgl\projects\soccerlg/soccerlg_s4_b1.c
    00000D04 79               [ 4] 3101 	ld	a, c
    00000D05 B7               [ 4] 3102 	or	a, a
    00000D06 C8               [11] 3103 	ret	Z
                                   3104 ;E:\Dropbox\FAUSTO\SVILUPPI\MSX\CODE\C\MSXgl\projects\soccerlg/soccerlg_s4_b1.c:588: ERROR: no line number 588 in file E:\Dropbox\FAUSTO\SVILUPPI\MSX\CODE\C\MSXgl\projects\soccerlg/soccerlg_s4_b1.c
    00000D07 21r06r00         [10] 3105 	ld	hl, #(_g_Ball + 6)
    00000D0A 36 FF            [10] 3106 	ld	(hl), #0xff
                                   3107 ;E:\Dropbox\FAUSTO\SVILUPPI\MSX\CODE\C\MSXgl\projects\soccerlg/soccerlg_s4_b1.c:590: ERROR: no line number 590 in file E:\Dropbox\FAUSTO\SVILUPPI\MSX\CODE\C\MSXgl\projects\soccerlg/soccerlg_s4_b1.c
    00000D0C C9               [10] 3108 	ret
                                   3109 ;E:\Dropbox\FAUSTO\SVILUPPI\MSX\CODE\C\MSXgl\projects\soccerlg/soccerlg_s4_b1.c:592: ERROR: no line number 592 in file E:\Dropbox\FAUSTO\SVILUPPI\MSX\CODE\C\MSXgl\projects\soccerlg/soccerlg_s4_b1.c
                                   3110 ;	---------------------------------
                                   3111 ; Function SetPlayerTarget
                                   3112 ; ---------------------------------
    00000D0D                       3113 _SetPlayerTarget::
    00000D0D DD E5            [15] 3114 	push	ix
    00000D0F DD 21 00 00      [14] 3115 	ld	ix,#0
    00000D13 DD 39            [15] 3116 	add	ix,sp
    00000D15 21 F1 FF         [10] 3117 	ld	hl, #-15
    00000D18 39               [11] 3118 	add	hl, sp
    00000D19 F9               [ 6] 3119 	ld	sp, hl
    00000D1A DD 77 FF         [19] 3120 	ld	-1 (ix), a
                                   3121 ;E:\Dropbox\FAUSTO\SVILUPPI\MSX\CODE\C\MSXgl\projects\soccerlg/soccerlg_s4_b1.c:593: ERROR: no line number 593 in file E:\Dropbox\FAUSTO\SVILUPPI\MSX\CODE\C\MSXgl\projects\soccerlg/soccerlg_s4_b1.c
    00000D1D 3Ar00r00         [13] 3122 	ld	a, (_g_MatchStatus+0)
    00000D20 3D               [ 4] 3123 	dec	a
    00000D21 3E 01            [ 7] 3124 	ld	a, #0x01
    00000D23 28 01            [12] 3125 	jr	Z, 00188$
    00000D25 AF               [ 4] 3126 	xor	a, a
    00000D26                       3127 00188$:
    00000D26 DD 77 FE         [19] 3128 	ld	-2 (ix), a
    00000D29 3Ar00r00         [13] 3129 	ld	a, (_g_FieldScrollingActionInProgress+0)
    00000D2C 3C               [ 4] 3130 	inc	a
    00000D2D 28 07            [12] 3131 	jr	Z, 00102$
    00000D2F DD CB FE 46      [20] 3132 	bit	0, -2 (ix)
                                   3133 ;E:\Dropbox\FAUSTO\SVILUPPI\MSX\CODE\C\MSXgl\projects\soccerlg/soccerlg_s4_b1.c:594: ERROR: no line number 594 in file E:\Dropbox\FAUSTO\SVILUPPI\MSX\CODE\C\MSXgl\projects\soccerlg/soccerlg_s4_b1.c
    00000D33 CAr92r0E         [10] 3134 	jp	Z,00121$
    00000D36                       3135 00102$:
                                   3136 ;E:\Dropbox\FAUSTO\SVILUPPI\MSX\CODE\C\MSXgl\projects\soccerlg/soccerlg_s4_b1.c:596: ERROR: no line number 596 in file E:\Dropbox\FAUSTO\SVILUPPI\MSX\CODE\C\MSXgl\projects\soccerlg/soccerlg_s4_b1.c
    00000D36 DD 7E FE         [19] 3137 	ld	a, -2 (ix)
    00000D39 B7               [ 4] 3138 	or	a, a
    00000D3A CAr92r0E         [10] 3139 	jp	Z, 00121$
                                   3140 ;E:\Dropbox\FAUSTO\SVILUPPI\MSX\CODE\C\MSXgl\projects\soccerlg/soccerlg_s4_b1.c:618: ERROR: no line number 618 in file E:\Dropbox\FAUSTO\SVILUPPI\MSX\CODE\C\MSXgl\projects\soccerlg/soccerlg_s4_b1.c
    00000D3D 01r00r00         [10] 3141 	ld	bc, #_g_Players+0
    00000D40 DD 5E FF         [19] 3142 	ld	e, -1 (ix)
    00000D43 16 00            [ 7] 3143 	ld	d, #0x00
    00000D45 6B               [ 4] 3144 	ld	l, e
    00000D46 62               [ 4] 3145 	ld	h, d
    00000D47 29               [11] 3146 	add	hl, hl
    00000D48 29               [11] 3147 	add	hl, hl
    00000D49 19               [11] 3148 	add	hl, de
    00000D4A 29               [11] 3149 	add	hl, hl
    00000D4B 29               [11] 3150 	add	hl, hl
    00000D4C 19               [11] 3151 	add	hl, de
    00000D4D 09               [11] 3152 	add	hl, bc
    00000D4E EB               [ 4] 3153 	ex	de, hl
    00000D4F D5               [11] 3154 	push	de
    00000D50 FD E1            [14] 3155 	pop	iy
    00000D52 FD 7E 09         [19] 3156 	ld	a, 9 (iy)
    00000D55 DD 77 F3         [19] 3157 	ld	-13 (ix), a
                                   3158 ;E:\Dropbox\FAUSTO\SVILUPPI\MSX\CODE\C\MSXgl\projects\soccerlg/soccerlg_s4_b1.c:620: ERROR: no line number 620 in file E:\Dropbox\FAUSTO\SVILUPPI\MSX\CODE\C\MSXgl\projects\soccerlg/soccerlg_s4_b1.c
    00000D58 21 10 00         [10] 3159 	ld	hl, #0x0010
    00000D5B 19               [11] 3160 	add	hl, de
    00000D5C DD 75 F4         [19] 3161 	ld	-12 (ix), l
    00000D5F DD 74 F5         [19] 3162 	ld	-11 (ix), h
                                   3163 ;E:\Dropbox\FAUSTO\SVILUPPI\MSX\CODE\C\MSXgl\projects\soccerlg/soccerlg_s4_b1.c:621: ERROR: no line number 621 in file E:\Dropbox\FAUSTO\SVILUPPI\MSX\CODE\C\MSXgl\projects\soccerlg/soccerlg_s4_b1.c
    00000D62 21 0E 00         [10] 3164 	ld	hl, #0x000e
    00000D65 19               [11] 3165 	add	hl, de
    00000D66 DD 75 F6         [19] 3166 	ld	-10 (ix), l
    00000D69 DD 74 F7         [19] 3167 	ld	-9 (ix), h
                                   3168 ;E:\Dropbox\FAUSTO\SVILUPPI\MSX\CODE\C\MSXgl\projects\soccerlg/soccerlg_s4_b1.c:618: ERROR: no line number 618 in file E:\Dropbox\FAUSTO\SVILUPPI\MSX\CODE\C\MSXgl\projects\soccerlg/soccerlg_s4_b1.c
    00000D6C DD 7E F3         [19] 3169 	ld	a, -13 (ix)
    00000D6F D6 0E            [ 7] 3170 	sub	a, #0x0e
    00000D71 20 19            [12] 3171 	jr	NZ, 00118$
                                   3172 ;E:\Dropbox\FAUSTO\SVILUPPI\MSX\CODE\C\MSXgl\projects\soccerlg/soccerlg_s4_b1.c:620: ERROR: no line number 620 in file E:\Dropbox\FAUSTO\SVILUPPI\MSX\CODE\C\MSXgl\projects\soccerlg/soccerlg_s4_b1.c
    00000D73 DD 6E F4         [19] 3173 	ld	l, -12 (ix)
    00000D76 DD 66 F5         [19] 3174 	ld	h, -11 (ix)
    00000D79 36 5A            [10] 3175 	ld	(hl), #0x5a
    00000D7B 23               [ 6] 3176 	inc	hl
    00000D7C 36 00            [10] 3177 	ld	(hl), #0x00
                                   3178 ;E:\Dropbox\FAUSTO\SVILUPPI\MSX\CODE\C\MSXgl\projects\soccerlg/soccerlg_s4_b1.c:621: ERROR: no line number 621 in file E:\Dropbox\FAUSTO\SVILUPPI\MSX\CODE\C\MSXgl\projects\soccerlg/soccerlg_s4_b1.c
    00000D7E DD 6E F6         [19] 3179 	ld	l, -10 (ix)
    00000D81 DD 66 F7         [19] 3180 	ld	h, -9 (ix)
    00000D84 36 CB            [10] 3181 	ld	(hl), #0xcb
    00000D86 23               [ 6] 3182 	inc	hl
    00000D87 36 00            [10] 3183 	ld	(hl), #0x00
    00000D89 C3r92r0E         [10] 3184 	jp	00121$
    00000D8C                       3185 00118$:
                                   3186 ;E:\Dropbox\FAUSTO\SVILUPPI\MSX\CODE\C\MSXgl\projects\soccerlg/soccerlg_s4_b1.c:624: ERROR: no line number 624 in file E:\Dropbox\FAUSTO\SVILUPPI\MSX\CODE\C\MSXgl\projects\soccerlg/soccerlg_s4_b1.c
    00000D8C 21 0D 00         [10] 3187 	ld	hl, #13
    00000D8F 19               [11] 3188 	add	hl, de
    00000D90 7E               [ 7] 3189 	ld	a, (hl)
    00000D91 DD 77 F8         [19] 3190 	ld	-8 (ix), a
                                   3191 ;E:\Dropbox\FAUSTO\SVILUPPI\MSX\CODE\C\MSXgl\projects\soccerlg/soccerlg_s4_b1.c:625: ERROR: no line number 625 in file E:\Dropbox\FAUSTO\SVILUPPI\MSX\CODE\C\MSXgl\projects\soccerlg/soccerlg_s4_b1.c
    00000D94 3E 06            [ 7] 3192 	ld	a, #0x06
    00000D96 DD 96 F8         [19] 3193 	sub	a, -8 (ix)
    00000D99 30 04            [12] 3194 	jr	NC, 00106$
    00000D9B DD 36 F8 00      [19] 3195 	ld	-8 (ix), #0x00
    00000D9F                       3196 00106$:
                                   3197 ;E:\Dropbox\FAUSTO\SVILUPPI\MSX\CODE\C\MSXgl\projects\soccerlg/soccerlg_s4_b1.c:627: ERROR: no line number 627 in file E:\Dropbox\FAUSTO\SVILUPPI\MSX\CODE\C\MSXgl\projects\soccerlg/soccerlg_s4_b1.c
    00000D9F DD 7E F3         [19] 3198 	ld	a, -13 (ix)
    00000DA2 3D               [ 4] 3199 	dec	a
    00000DA3 3E 01            [ 7] 3200 	ld	a, #0x01
    00000DA5 28 01            [12] 3201 	jr	Z, 00193$
    00000DA7 AF               [ 4] 3202 	xor	a, a
    00000DA8                       3203 00193$:
    00000DA8 DD 77 F9         [19] 3204 	ld	-7 (ix), a
                                   3205 ;E:\Dropbox\FAUSTO\SVILUPPI\MSX\CODE\C\MSXgl\projects\soccerlg/soccerlg_s4_b1.c:630: ERROR: no line number 630 in file E:\Dropbox\FAUSTO\SVILUPPI\MSX\CODE\C\MSXgl\projects\soccerlg/soccerlg_s4_b1.c
    00000DAB 01r97r0E         [10] 3206 	ld	bc, #_SetPlayerTarget_k_KO_X_196608_1430+0
    00000DAE DD 6E F8         [19] 3207 	ld	l, -8 (ix)
    00000DB1 26 00            [ 7] 3208 	ld	h, #0x00
    00000DB3 09               [11] 3209 	add	hl, bc
    00000DB4 7E               [ 7] 3210 	ld	a, (hl)
    00000DB5 DD 77 FE         [19] 3211 	ld	-2 (ix), a
    00000DB8 DD 77 FA         [19] 3212 	ld	-6 (ix), a
    00000DBB DD 36 FB 00      [19] 3213 	ld	-5 (ix), #0x00
                                   3214 ;E:\Dropbox\FAUSTO\SVILUPPI\MSX\CODE\C\MSXgl\projects\soccerlg/soccerlg_s4_b1.c:631: ERROR: no line number 631 in file E:\Dropbox\FAUSTO\SVILUPPI\MSX\CODE\C\MSXgl\projects\soccerlg/soccerlg_s4_b1.c
    00000DBF DD 7E F8         [19] 3215 	ld	a, -8 (ix)
    00000DC2 DD 77 FD         [19] 3216 	ld	-3 (ix), a
    00000DC5 DD 36 FE 00      [19] 3217 	ld	-2 (ix), #0x00
    00000DC9 DD CB FD 26      [23] 3218 	sla	-3 (ix)
    00000DCD DD CB FE 16      [23] 3219 	rl	-2 (ix)
    00000DD1 DD 7E F9         [19] 3220 	ld	a, -7 (ix)
    00000DD4 B7               [ 4] 3221 	or	a, a
    00000DD5 28 16            [12] 3222 	jr	Z, 00123$
    00000DD7 01r9Er0E         [10] 3223 	ld	bc, #_SetPlayerTarget_k_KO_Y_T1_196608_1430+0
    00000DDA DD 6E FD         [19] 3224 	ld	l, -3 (ix)
    00000DDD DD 66 FE         [19] 3225 	ld	h, -2 (ix)
    00000DE0 09               [11] 3226 	add	hl, bc
    00000DE1 7E               [ 7] 3227 	ld	a, (hl)
    00000DE2 DD 77 F1         [19] 3228 	ld	-15 (ix), a
    00000DE5 23               [ 6] 3229 	inc	hl
    00000DE6 7E               [ 7] 3230 	ld	a, (hl)
    00000DE7 DD 77 F2         [19] 3231 	ld	-14 (ix), a
    00000DEA C3r02r0E         [10] 3232 	jp	00124$
    00000DED                       3233 00123$:
    00000DED DD 7E FD         [19] 3234 	ld	a, -3 (ix)
    00000DF0 C6rAC            [ 7] 3235 	add	a, #<(_SetPlayerTarget_k_KO_Y_T2_196608_1430)
    00000DF2 4F               [ 4] 3236 	ld	c, a
    00000DF3 DD 7E FE         [19] 3237 	ld	a, -2 (ix)
    00000DF6 CEs0E            [ 7] 3238 	adc	a, #>(_SetPlayerTarget_k_KO_Y_T2_196608_1430)
    00000DF8 47               [ 4] 3239 	ld	b, a
    00000DF9 0A               [ 7] 3240 	ld	a, (bc)
    00000DFA DD 77 F1         [19] 3241 	ld	-15 (ix), a
    00000DFD 03               [ 6] 3242 	inc	bc
    00000DFE 0A               [ 7] 3243 	ld	a, (bc)
    00000DFF DD 77 F2         [19] 3244 	ld	-14 (ix), a
    00000E02                       3245 00124$:
    00000E02 DD 7E F1         [19] 3246 	ld	a, -15 (ix)
    00000E05 DD 77 FC         [19] 3247 	ld	-4 (ix), a
    00000E08 DD 7E F2         [19] 3248 	ld	a, -14 (ix)
    00000E0B DD 77 FD         [19] 3249 	ld	-3 (ix), a
                                   3250 ;E:\Dropbox\FAUSTO\SVILUPPI\MSX\CODE\C\MSXgl\projects\soccerlg/soccerlg_s4_b1.c:634: ERROR: no line number 634 in file E:\Dropbox\FAUSTO\SVILUPPI\MSX\CODE\C\MSXgl\projects\soccerlg/soccerlg_s4_b1.c
    00000E0E DD 7E F9         [19] 3251 	ld	a, -7 (ix)
    00000E11 B7               [ 4] 3252 	or	a, a
    00000E12 20 0F            [12] 3253 	jr	NZ, 00108$
    00000E14 DD 7E F8         [19] 3254 	ld	a, -8 (ix)
    00000E17 D6 04            [ 7] 3255 	sub	a, #0x04
    00000E19 20 08            [12] 3256 	jr	NZ, 00108$
                                   3257 ;E:\Dropbox\FAUSTO\SVILUPPI\MSX\CODE\C\MSXgl\projects\soccerlg/soccerlg_s4_b1.c:635: ERROR: no line number 635 in file E:\Dropbox\FAUSTO\SVILUPPI\MSX\CODE\C\MSXgl\projects\soccerlg/soccerlg_s4_b1.c
    00000E1B DD 36 FA 52      [19] 3258 	ld	-6 (ix), #0x52
    00000E1F DD 36 FB 00      [19] 3259 	ld	-5 (ix), #0
    00000E23                       3260 00108$:
                                   3261 ;E:\Dropbox\FAUSTO\SVILUPPI\MSX\CODE\C\MSXgl\projects\soccerlg/soccerlg_s4_b1.c:639: ERROR: no line number 639 in file E:\Dropbox\FAUSTO\SVILUPPI\MSX\CODE\C\MSXgl\projects\soccerlg/soccerlg_s4_b1.c
    00000E23 DD 7E F8         [19] 3262 	ld	a, -8 (ix)
    00000E26 D6 03            [ 7] 3263 	sub	a, #0x03
    00000E28 3E 01            [ 7] 3264 	ld	a, #0x01
    00000E2A 28 01            [12] 3265 	jr	Z, 00198$
    00000E2C AF               [ 4] 3266 	xor	a, a
    00000E2D                       3267 00198$:
    00000E2D DD 77 FE         [19] 3268 	ld	-2 (ix), a
    00000E30 B7               [ 4] 3269 	or	a, a
    00000E31 20 07            [12] 3270 	jr	NZ, 00116$
    00000E33 DD 7E F8         [19] 3271 	ld	a, -8 (ix)
    00000E36 D6 04            [ 7] 3272 	sub	a, #0x04
    00000E38 20 3A            [12] 3273 	jr	NZ, 00114$
    00000E3A                       3274 00116$:
                                   3275 ;E:\Dropbox\FAUSTO\SVILUPPI\MSX\CODE\C\MSXgl\projects\soccerlg/soccerlg_s4_b1.c:640: ERROR: no line number 640 in file E:\Dropbox\FAUSTO\SVILUPPI\MSX\CODE\C\MSXgl\projects\soccerlg/soccerlg_s4_b1.c
    00000E3A 3Ar00r00         [13] 3276 	ld	a, (_g_RestartKickTeamId+0)
    00000E3D DD 96 F3         [19] 3277 	sub	a, -13 (ix)
    00000E40 20 32            [12] 3278 	jr	NZ, 00114$
                                   3279 ;E:\Dropbox\FAUSTO\SVILUPPI\MSX\CODE\C\MSXgl\projects\soccerlg/soccerlg_s4_b1.c:642: ERROR: no line number 642 in file E:\Dropbox\FAUSTO\SVILUPPI\MSX\CODE\C\MSXgl\projects\soccerlg/soccerlg_s4_b1.c
    00000E42 DD 7E F9         [19] 3280 	ld	a, -7 (ix)
    00000E45 B7               [ 4] 3281 	or	a, a
    00000E46 28 0B            [12] 3282 	jr	Z, 00125$
    00000E48 DD 36 FC F3      [19] 3283 	ld	-4 (ix), #0xf3
    00000E4C DD 36 FD 00      [19] 3284 	ld	-3 (ix), #0
    00000E50 C3r5Br0E         [10] 3285 	jp	00126$
    00000E53                       3286 00125$:
    00000E53 DD 36 FC E9      [19] 3287 	ld	-4 (ix), #0xe9
    00000E57 DD 36 FD 00      [19] 3288 	ld	-3 (ix), #0
    00000E5B                       3289 00126$:
                                   3290 ;E:\Dropbox\FAUSTO\SVILUPPI\MSX\CODE\C\MSXgl\projects\soccerlg/soccerlg_s4_b1.c:643: ERROR: no line number 643 in file E:\Dropbox\FAUSTO\SVILUPPI\MSX\CODE\C\MSXgl\projects\soccerlg/soccerlg_s4_b1.c
    00000E5B DD 7E FE         [19] 3291 	ld	a, -2 (ix)
    00000E5E B7               [ 4] 3292 	or	a, a
    00000E5F 28 0B            [12] 3293 	jr	Z, 00111$
    00000E61 DD 36 FA 71      [19] 3294 	ld	-6 (ix), #0x71
    00000E65 DD 36 FB 00      [19] 3295 	ld	-5 (ix), #0
    00000E69 C3r74r0E         [10] 3296 	jp	00114$
    00000E6C                       3297 00111$:
                                   3298 ;E:\Dropbox\FAUSTO\SVILUPPI\MSX\CODE\C\MSXgl\projects\soccerlg/soccerlg_s4_b1.c:644: ERROR: no line number 644 in file E:\Dropbox\FAUSTO\SVILUPPI\MSX\CODE\C\MSXgl\projects\soccerlg/soccerlg_s4_b1.c
    00000E6C DD 36 FA 7F      [19] 3299 	ld	-6 (ix), #0x7f
    00000E70 DD 36 FB 00      [19] 3300 	ld	-5 (ix), #0
    00000E74                       3301 00114$:
                                   3302 ;E:\Dropbox\FAUSTO\SVILUPPI\MSX\CODE\C\MSXgl\projects\soccerlg/soccerlg_s4_b1.c:647: ERROR: no line number 647 in file E:\Dropbox\FAUSTO\SVILUPPI\MSX\CODE\C\MSXgl\projects\soccerlg/soccerlg_s4_b1.c
    00000E74 DD 6E F4         [19] 3303 	ld	l, -12 (ix)
    00000E77 DD 66 F5         [19] 3304 	ld	h, -11 (ix)
    00000E7A DD 7E FA         [19] 3305 	ld	a, -6 (ix)
    00000E7D 77               [ 7] 3306 	ld	(hl), a
    00000E7E 23               [ 6] 3307 	inc	hl
    00000E7F DD 7E FB         [19] 3308 	ld	a, -5 (ix)
    00000E82 77               [ 7] 3309 	ld	(hl), a
                                   3310 ;E:\Dropbox\FAUSTO\SVILUPPI\MSX\CODE\C\MSXgl\projects\soccerlg/soccerlg_s4_b1.c:648: ERROR: no line number 648 in file E:\Dropbox\FAUSTO\SVILUPPI\MSX\CODE\C\MSXgl\projects\soccerlg/soccerlg_s4_b1.c
    00000E83 DD 6E F6         [19] 3311 	ld	l, -10 (ix)
    00000E86 DD 66 F7         [19] 3312 	ld	h, -9 (ix)
    00000E89 DD 7E FC         [19] 3313 	ld	a, -4 (ix)
    00000E8C 77               [ 7] 3314 	ld	(hl), a
    00000E8D 23               [ 6] 3315 	inc	hl
    00000E8E DD 7E FD         [19] 3316 	ld	a, -3 (ix)
    00000E91 77               [ 7] 3317 	ld	(hl), a
                                   3318 ;E:\Dropbox\FAUSTO\SVILUPPI\MSX\CODE\C\MSXgl\projects\soccerlg/soccerlg_s4_b1.c:652: ERROR: no line number 652 in file E:\Dropbox\FAUSTO\SVILUPPI\MSX\CODE\C\MSXgl\projects\soccerlg/soccerlg_s4_b1.c
    00000E92                       3319 00121$:
                                   3320 ;E:\Dropbox\FAUSTO\SVILUPPI\MSX\CODE\C\MSXgl\projects\soccerlg/soccerlg_s4_b1.c:653: ERROR: no line number 653 in file E:\Dropbox\FAUSTO\SVILUPPI\MSX\CODE\C\MSXgl\projects\soccerlg/soccerlg_s4_b1.c
    00000E92 DD F9            [10] 3321 	ld	sp, ix
    00000E94 DD E1            [14] 3322 	pop	ix
    00000E96 C9               [10] 3323 	ret
    00000E97                       3324 _SetPlayerTarget_k_KO_X_196608_1430:
    00000E97 78                    3325 	.db #0x78	; 120	'x'
    00000E98 28                    3326 	.db #0x28	; 40
    00000E99 C6                    3327 	.db #0xc6	; 198
    00000E9A 8C                    3328 	.db #0x8c	; 140
    00000E9B 62                    3329 	.db #0x62	; 98	'b'
    00000E9C 28                    3330 	.db #0x28	; 40
    00000E9D C6                    3331 	.db #0xc6	; 198
    00000E9E                       3332 _SetPlayerTarget_k_KO_Y_T1_196608_1430:
    00000E9E A8 01                 3333 	.dw #0x01a8
    00000EA0 76 01                 3334 	.dw #0x0176
    00000EA2 76 01                 3335 	.dw #0x0176
    00000EA4 44 01                 3336 	.dw #0x0144
    00000EA6 44 01                 3337 	.dw #0x0144
    00000EA8 1C 01                 3338 	.dw #0x011c
    00000EAA 1C 01                 3339 	.dw #0x011c
    00000EAC                       3340 _SetPlayerTarget_k_KO_Y_T2_196608_1430:
    00000EAC 32 00                 3341 	.dw #0x0032
    00000EAE 82 00                 3342 	.dw #0x0082
    00000EB0 82 00                 3343 	.dw #0x0082
    00000EB2 B4 00                 3344 	.dw #0x00b4
    00000EB4 B4 00                 3345 	.dw #0x00b4
    00000EB6 DC 00                 3346 	.dw #0x00dc
    00000EB8 DC 00                 3347 	.dw #0x00dc
                                   3348 ;E:\Dropbox\FAUSTO\SVILUPPI\MSX\CODE\C\MSXgl\projects\soccerlg/soccerlg_s4_b1.c:655: ERROR: no line number 655 in file E:\Dropbox\FAUSTO\SVILUPPI\MSX\CODE\C\MSXgl\projects\soccerlg/soccerlg_s4_b1.c
                                   3349 ;	---------------------------------
                                   3350 ; Function ShowField
                                   3351 ; ---------------------------------
    00000EBA                       3352 _ShowField::
    00000EBA DD E5            [15] 3353 	push	ix
    00000EBC DD 21 00 00      [14] 3354 	ld	ix,#0
    00000EC0 DD 39            [15] 3355 	add	ix,sp
    00000EC2 F5               [11] 3356 	push	af
    00000EC3 F5               [11] 3357 	push	af
                                   3358 ;E:\Dropbox\FAUSTO\SVILUPPI\MSX\CODE\C\MSXgl\projects\soccerlg/soccerlg_s4_b1.c:657: ERROR: no line number 657 in file E:\Dropbox\FAUSTO\SVILUPPI\MSX\CODE\C\MSXgl\projects\soccerlg/soccerlg_s4_b1.c
    00000EC4 01 00 00         [10] 3359 	ld	bc, #0x0000
                                   3360 ;E:\Dropbox\FAUSTO\SVILUPPI\MSX\CODE\C\MSXgl\projects\soccerlg/soccerlg_s4_b1.c:659: ERROR: no line number 659 in file E:\Dropbox\FAUSTO\SVILUPPI\MSX\CODE\C\MSXgl\projects\soccerlg/soccerlg_s4_b1.c
    00000EC7 DD 36 FE 00      [19] 3361 	ld	-2 (ix), #0x00
    00000ECB                       3362 00116$:
    00000ECB DD 7E FE         [19] 3363 	ld	a, -2 (ix)
    00000ECE D6 40            [ 7] 3364 	sub	a, #0x40
    00000ED0 30 48            [12] 3365 	jr	NC, 00102$
                                   3366 ;E:\Dropbox\FAUSTO\SVILUPPI\MSX\CODE\C\MSXgl\projects\soccerlg/soccerlg_s4_b1.c:660: ERROR: no line number 660 in file E:\Dropbox\FAUSTO\SVILUPPI\MSX\CODE\C\MSXgl\projects\soccerlg/soccerlg_s4_b1.c
    00000ED2 DD 36 FF 00      [19] 3367 	ld	-1 (ix), #0x00
    00000ED6                       3368 00113$:
    00000ED6 DD 7E FF         [19] 3369 	ld	a, -1 (ix)
    00000ED9 D6 20            [ 7] 3370 	sub	a, #0x20
    00000EDB 30 37            [12] 3371 	jr	NC, 00139$
                                   3372 ;E:\Dropbox\FAUSTO\SVILUPPI\MSX\CODE\C\MSXgl\projects\soccerlg/soccerlg_s4_b1.c:661: ERROR: no line number 661 in file E:\Dropbox\FAUSTO\SVILUPPI\MSX\CODE\C\MSXgl\projects\soccerlg/soccerlg_s4_b1.c
    00000EDD 33               [ 6] 3373 	inc	sp
    00000EDE 33               [ 6] 3374 	inc	sp
    00000EDF C5               [11] 3375 	push	bc
    00000EE0 03               [ 6] 3376 	inc	bc
                                   3377 ;E:/Dropbox/FAUSTO/SVILUPPI/MSX/CODE/C/MSXgl/engine/src/v9990.h:1437: ERROR: no line number 1437 in file E:/Dropbox/FAUSTO/SVILUPPI/MSX/CODE/C/MSXgl/engine/src/v9990.h
    00000EE1 DD 6E FE         [19] 3378 	ld	l, -2 (ix)
                                   3379 ;	spillPairReg hl
                                   3380 ;	spillPairReg hl
    00000EE4 26 00            [ 7] 3381 	ld	h, #0x00
                                   3382 ;	spillPairReg hl
                                   3383 ;	spillPairReg hl
    00000EE6 29               [11] 3384 	add	hl, hl
    00000EE7 29               [11] 3385 	add	hl, hl
    00000EE8 29               [11] 3386 	add	hl, hl
    00000EE9 29               [11] 3387 	add	hl, hl
    00000EEA 29               [11] 3388 	add	hl, hl
    00000EEB 29               [11] 3389 	add	hl, hl
    00000EEC DD 5E FF         [19] 3390 	ld	e, -1 (ix)
    00000EEF 16 00            [ 7] 3391 	ld	d, #0x00
    00000EF1 19               [11] 3392 	add	hl, de
    00000EF2 29               [11] 3393 	add	hl, hl
    00000EF3 7C               [ 4] 3394 	ld	a, h
    00000EF4 07               [ 4] 3395 	rlca
    00000EF5 9F               [ 4] 3396 	sbc	a, a
    00000EF6 5F               [ 4] 3397 	ld	e, a
    00000EF7 57               [ 4] 3398 	ld	d, a
    00000EF8 7C               [ 4] 3399 	ld	a, h
    00000EF9 C6 E0            [ 7] 3400 	add	a, #0xe0
    00000EFB 67               [ 4] 3401 	ld	h, a
                                   3402 ;	spillPairReg hl
                                   3403 ;	spillPairReg hl
    00000EFC 7B               [ 4] 3404 	ld	a, e
    00000EFD CE 07            [ 7] 3405 	adc	a, #0x07
    00000EFF 5F               [ 4] 3406 	ld	e, a
    00000F00 30 01            [12] 3407 	jr	NC, 00184$
    00000F02 14               [ 4] 3408 	inc	d
    00000F03                       3409 00184$:
                                   3410 ;E:/Dropbox/FAUSTO/SVILUPPI/MSX/CODE/C/MSXgl/engine/src/v9990.h:396: ERROR: no line number 396 in file E:/Dropbox/FAUSTO/SVILUPPI/MSX/CODE/C/MSXgl/engine/src/v9990.h
    00000F03 C5               [11] 3411 	push	bc
    00000F04 EB               [ 4] 3412 	ex	de, hl
    00000F05 CDr00r00         [17] 3413 	call	_V9_SetWriteAddress
    00000F08 C1               [10] 3414 	pop	bc
    00000F09 E1               [10] 3415 	pop	hl
    00000F0A E5               [11] 3416 	push	hl
    00000F0B CDr00r00         [17] 3417 	call	_V9_Poke16_CurrentAddr
                                   3418 ;E:\Dropbox\FAUSTO\SVILUPPI\MSX\CODE\C\MSXgl\projects\soccerlg/soccerlg_s4_b1.c:660: ERROR: no line number 660 in file E:\Dropbox\FAUSTO\SVILUPPI\MSX\CODE\C\MSXgl\projects\soccerlg/soccerlg_s4_b1.c
    00000F0E DD 34 FF         [23] 3419 	inc	-1 (ix)
    00000F11 C3rD6r0E         [10] 3420 	jp	00113$
    00000F14                       3421 00139$:
                                   3422 ;E:\Dropbox\FAUSTO\SVILUPPI\MSX\CODE\C\MSXgl\projects\soccerlg/soccerlg_s4_b1.c:659: ERROR: no line number 659 in file E:\Dropbox\FAUSTO\SVILUPPI\MSX\CODE\C\MSXgl\projects\soccerlg/soccerlg_s4_b1.c
    00000F14 DD 34 FE         [23] 3423 	inc	-2 (ix)
    00000F17 C3rCBr0E         [10] 3424 	jp	00116$
    00000F1A                       3425 00102$:
                                   3426 ;E:\Dropbox\FAUSTO\SVILUPPI\MSX\CODE\C\MSXgl\projects\soccerlg/soccerlg_s4_b1.c:665: ERROR: no line number 665 in file E:\Dropbox\FAUSTO\SVILUPPI\MSX\CODE\C\MSXgl\projects\soccerlg/soccerlg_s4_b1.c
    00000F1A 0E 00            [ 7] 3427 	ld	c, #0x00
    00000F1C                       3428 00122$:
    00000F1C 79               [ 4] 3429 	ld	a, c
    00000F1D D6 40            [ 7] 3430 	sub	a, #0x40
    00000F1F 30 39            [12] 3431 	jr	NC, 00104$
                                   3432 ;E:\Dropbox\FAUSTO\SVILUPPI\MSX\CODE\C\MSXgl\projects\soccerlg/soccerlg_s4_b1.c:666: ERROR: no line number 666 in file E:\Dropbox\FAUSTO\SVILUPPI\MSX\CODE\C\MSXgl\projects\soccerlg/soccerlg_s4_b1.c
    00000F21 06 00            [ 7] 3433 	ld	b, #0x00
    00000F23                       3434 00119$:
    00000F23 78               [ 4] 3435 	ld	a, b
    00000F24 D6 20            [ 7] 3436 	sub	a, #0x20
    00000F26 30 2E            [12] 3437 	jr	NC, 00123$
                                   3438 ;E:/Dropbox/FAUSTO/SVILUPPI/MSX/CODE/C/MSXgl/engine/src/v9990.h:1426: ERROR: no line number 1426 in file E:/Dropbox/FAUSTO/SVILUPPI/MSX/CODE/C/MSXgl/engine/src/v9990.h
    00000F28 69               [ 4] 3439 	ld	l, c
                                   3440 ;	spillPairReg hl
                                   3441 ;	spillPairReg hl
    00000F29 26 00            [ 7] 3442 	ld	h, #0x00
                                   3443 ;	spillPairReg hl
                                   3444 ;	spillPairReg hl
    00000F2B 29               [11] 3445 	add	hl, hl
    00000F2C 29               [11] 3446 	add	hl, hl
    00000F2D 29               [11] 3447 	add	hl, hl
    00000F2E 29               [11] 3448 	add	hl, hl
    00000F2F 29               [11] 3449 	add	hl, hl
    00000F30 29               [11] 3450 	add	hl, hl
    00000F31 58               [ 4] 3451 	ld	e, b
    00000F32 16 00            [ 7] 3452 	ld	d, #0x00
    00000F34 19               [11] 3453 	add	hl, de
    00000F35 29               [11] 3454 	add	hl, hl
    00000F36 7C               [ 4] 3455 	ld	a, h
    00000F37 07               [ 4] 3456 	rlca
    00000F38 9F               [ 4] 3457 	sbc	a, a
    00000F39 5F               [ 4] 3458 	ld	e, a
    00000F3A 57               [ 4] 3459 	ld	d, a
    00000F3B 7C               [ 4] 3460 	ld	a, h
    00000F3C C6 C0            [ 7] 3461 	add	a, #0xc0
    00000F3E 67               [ 4] 3462 	ld	h, a
                                   3463 ;	spillPairReg hl
                                   3464 ;	spillPairReg hl
    00000F3F 7B               [ 4] 3465 	ld	a, e
    00000F40 CE 07            [ 7] 3466 	adc	a, #0x07
    00000F42 5F               [ 4] 3467 	ld	e, a
    00000F43 30 01            [12] 3468 	jr	NC, 00185$
    00000F45 14               [ 4] 3469 	inc	d
    00000F46                       3470 00185$:
                                   3471 ;E:/Dropbox/FAUSTO/SVILUPPI/MSX/CODE/C/MSXgl/engine/src/v9990.h:396: ERROR: no line number 396 in file E:/Dropbox/FAUSTO/SVILUPPI/MSX/CODE/C/MSXgl/engine/src/v9990.h
    00000F46 C5               [11] 3472 	push	bc
    00000F47 EB               [ 4] 3473 	ex	de, hl
    00000F48 CDr00r00         [17] 3474 	call	_V9_SetWriteAddress
    00000F4B C1               [10] 3475 	pop	bc
    00000F4C 21 00 00         [10] 3476 	ld	hl, #0x0000
    00000F4F CDr00r00         [17] 3477 	call	_V9_Poke16_CurrentAddr
                                   3478 ;E:\Dropbox\FAUSTO\SVILUPPI\MSX\CODE\C\MSXgl\projects\soccerlg/soccerlg_s4_b1.c:666: ERROR: no line number 666 in file E:\Dropbox\FAUSTO\SVILUPPI\MSX\CODE\C\MSXgl\projects\soccerlg/soccerlg_s4_b1.c
    00000F52 04               [ 4] 3479 	inc	b
    00000F53 C3r23r0F         [10] 3480 	jp	00119$
    00000F56                       3481 00123$:
                                   3482 ;E:\Dropbox\FAUSTO\SVILUPPI\MSX\CODE\C\MSXgl\projects\soccerlg/soccerlg_s4_b1.c:665: ERROR: no line number 665 in file E:\Dropbox\FAUSTO\SVILUPPI\MSX\CODE\C\MSXgl\projects\soccerlg/soccerlg_s4_b1.c
    00000F56 0C               [ 4] 3483 	inc	c
    00000F57 C3r1Cr0F         [10] 3484 	jp	00122$
    00000F5A                       3485 00104$:
                                   3486 ;E:\Dropbox\FAUSTO\SVILUPPI\MSX\CODE\C\MSXgl\projects\soccerlg/soccerlg_s4_b1.c:670: ERROR: no line number 670 in file E:\Dropbox\FAUSTO\SVILUPPI\MSX\CODE\C\MSXgl\projects\soccerlg/soccerlg_s4_b1.c
    00000F5A 0E 00            [ 7] 3487 	ld	c, #0x00
    00000F5C                       3488 00125$:
    00000F5C 79               [ 4] 3489 	ld	a, c
    00000F5D D6 40            [ 7] 3490 	sub	a, #0x40
    00000F5F 30 24            [12] 3491 	jr	NC, 00127$
                                   3492 ;E:/Dropbox/FAUSTO/SVILUPPI/MSX/CODE/C/MSXgl/engine/src/v9990.h:1426: ERROR: no line number 1426 in file E:/Dropbox/FAUSTO/SVILUPPI/MSX/CODE/C/MSXgl/engine/src/v9990.h
    00000F61 69               [ 4] 3493 	ld	l, c
                                   3494 ;	spillPairReg hl
                                   3495 ;	spillPairReg hl
    00000F62 26 00            [ 7] 3496 	ld	h, #0x00
                                   3497 ;	spillPairReg hl
                                   3498 ;	spillPairReg hl
    00000F64 29               [11] 3499 	add	hl, hl
    00000F65 7C               [ 4] 3500 	ld	a, h
    00000F66 07               [ 4] 3501 	rlca
    00000F67 9F               [ 4] 3502 	sbc	a, a
    00000F68 5F               [ 4] 3503 	ld	e, a
    00000F69 57               [ 4] 3504 	ld	d, a
    00000F6A 7C               [ 4] 3505 	ld	a, h
    00000F6B C6 C0            [ 7] 3506 	add	a, #0xc0
    00000F6D 67               [ 4] 3507 	ld	h, a
                                   3508 ;	spillPairReg hl
                                   3509 ;	spillPairReg hl
    00000F6E 7B               [ 4] 3510 	ld	a, e
    00000F6F CE 07            [ 7] 3511 	adc	a, #0x07
    00000F71 5F               [ 4] 3512 	ld	e, a
    00000F72 30 01            [12] 3513 	jr	NC, 00186$
    00000F74 14               [ 4] 3514 	inc	d
    00000F75                       3515 00186$:
                                   3516 ;E:/Dropbox/FAUSTO/SVILUPPI/MSX/CODE/C/MSXgl/engine/src/v9990.h:396: ERROR: no line number 396 in file E:/Dropbox/FAUSTO/SVILUPPI/MSX/CODE/C/MSXgl/engine/src/v9990.h
    00000F75 C5               [11] 3517 	push	bc
    00000F76 EB               [ 4] 3518 	ex	de, hl
    00000F77 CDr00r00         [17] 3519 	call	_V9_SetWriteAddress
    00000F7A C1               [10] 3520 	pop	bc
    00000F7B 21 20 00         [10] 3521 	ld	hl, #0x0020
    00000F7E CDr00r00         [17] 3522 	call	_V9_Poke16_CurrentAddr
                                   3523 ;E:\Dropbox\FAUSTO\SVILUPPI\MSX\CODE\C\MSXgl\projects\soccerlg/soccerlg_s4_b1.c:670: ERROR: no line number 670 in file E:\Dropbox\FAUSTO\SVILUPPI\MSX\CODE\C\MSXgl\projects\soccerlg/soccerlg_s4_b1.c
    00000F81 0C               [ 4] 3524 	inc	c
    00000F82 C3r5Cr0F         [10] 3525 	jp	00125$
    00000F85                       3526 00127$:
                                   3527 ;E:\Dropbox\FAUSTO\SVILUPPI\MSX\CODE\C\MSXgl\projects\soccerlg/soccerlg_s4_b1.c:673: ERROR: no line number 673 in file E:\Dropbox\FAUSTO\SVILUPPI\MSX\CODE\C\MSXgl\projects\soccerlg/soccerlg_s4_b1.c
    00000F85 DD F9            [10] 3528 	ld	sp, ix
    00000F87 DD E1            [14] 3529 	pop	ix
    00000F89 C9               [10] 3530 	ret
                                   3531 	.area _SEG4
                                   3532 	.area _INITIALIZER
                                   3533 	.area _CABS (ABS)
