;--------------------------------------------------------
; File Created by SDCC : free open source ANSI-C Compiler
; Version 4.2.0 #13081 (MINGW64)
;--------------------------------------------------------
	.module soccerlg_s3_b1
	.optsdcc -mz80
	
;--------------------------------------------------------
; Public variables in this module
;--------------------------------------------------------
	.globl _PutBallSprite
	.globl _SetPlayerTarget
	.globl _V9990_ClearTextFromLayerA
	.globl _Trampoline_VOID_P1
	.globl _V9990_LoadP1LayerA
	.globl _V9_SetPaletteEntry
	.globl _V9_SetScreenMode
	.globl _V9_Poke16_CurrentAddr
	.globl _V9_WriteVRAM_CurrentAddr
	.globl _V9_SetWriteAddress
	.globl _V9_GetRegister
	.globl _V9_SetRegister
	.globl _g_SLTSL
	.globl _g_GRPACY
	.globl _g_GRPACX
	.globl _g_LOGOPR
	.globl _g_CMASK
	.globl _g_CLOC
	.globl _g_FNKSTR
	.globl _g_ATRBYT
	.globl _g_BDRCLR
	.globl _g_BAKCLR
	.globl _g_FORCLR
	.globl _g_CSRX
	.globl _g_CSRY
	.globl _g_CLIKSW
	.globl _g_MLTPAT
	.globl _g_MLTATR
	.globl _g_MLTCGP
	.globl _g_MLTCOL
	.globl _g_MLTNAM
	.globl _g_GRPPAT
	.globl _g_GRPATR
	.globl _g_GRPCGP
	.globl _g_GRPCOL
	.globl _g_GRPNAM
	.globl _g_T32PAT
	.globl _g_T32ATR
	.globl _g_T32CGP
	.globl _g_T32COL
	.globl _g_T32NAM
	.globl _g_TXTPAT
	.globl _g_TXTATR
	.globl _g_TXTCGP
	.globl _g_TXTCOL
	.globl _g_TXTNAM
	.globl _g_CLMLST
	.globl _g_CRTCNT
	.globl _g_LINLEN
	.globl _g_LINL32
	.globl _g_LINL40
	.globl _g_Data_Palette_LayerB_Standard
	.globl _g_Data_Palette_LayerA_Standard
	.globl _g_PonPonGirlsPos
	.globl _g_GirlPatterns
	.globl _g_BDOS
	.globl _g_MASTER
	.globl _g_RAMAD3
	.globl _g_RAMAD2
	.globl _g_RAMAD1
	.globl _g_RAMAD0
	.globl _g_BREAKV
	.globl _g_DISKVE
	.globl _g_KANJTABLE
	.globl _g_STRSRC
	.globl _g_SUBRID
	.globl _g_CHAR_16
	.globl _g_MSXMID
	.globl _g_MSXVER
	.globl _g_ROMVersion
	.globl _g_BASRVN
	.globl _g_VDP_DW
	.globl _g_VDP_DR
	.globl _g_CGTABL
	.globl _g_SVFFFD
	.globl _g_RG27SAV
	.globl _g_RG26SAV
	.globl _g_RG25SAV
	.globl _g_SVFFF8
	.globl _g_MINROM
	.globl _g_RG23SAV
	.globl _g_RG22SAV
	.globl _g_RG21SAV
	.globl _g_RG20SAV
	.globl _g_RG19SAV
	.globl _g_RG18SAV
	.globl _g_RG17SAV
	.globl _g_RG16SAV
	.globl _g_RG15SAV
	.globl _g_RG14SAV
	.globl _g_RG13SAV
	.globl _g_RG12SAV
	.globl _g_RG11SAV
	.globl _g_RG10SAV
	.globl _g_RG09SAV
	.globl _g_RG08SAV
	.globl _g_PROCNM
	.globl _g_SLTWRK
	.globl _g_SLTATR
	.globl _g_SLTTBL
	.globl _g_EXPTBL
	.globl _g_MNROM
	.globl _g_DRWANG
	.globl _g_DRWSCL
	.globl _g_DRWFLG
	.globl _g_GYPOS
	.globl _g_GXPOS
	.globl _g_BRDATR
	.globl _g_CASPRV
	.globl _g_OLDSCR
	.globl _g_SCRMOD
	.globl _g_FLBMEM
	.globl _g_KANAMD
	.globl _g_KANAST
	.globl _g_CAPST
	.globl _g_CSTYLE
	.globl _g_CSRSW
	.globl _g_INSFLG
	.globl _g_ESCCNT
	.globl _g_GRPHED
	.globl _g_WINWID
	.globl _g_LOWLIM
	.globl _g_INTCNT
	.globl _g_INTVAL
	.globl _g_JIFFY
	.globl _g_PADX
	.globl _g_PADY
	.globl _g_INTFLG
	.globl _g_RTYCNT
	.globl _g_TRPTBL
	.globl _g_HIMEM
	.globl _g_BOTTOM
	.globl _g_PATWRK
	.globl _g_LINWRK
	.globl _g_KEYBUF
	.globl _g_NEWKEY
	.globl _g_OLDKEY
	.globl _g_CLIKFL
	.globl _g_ONGSBF
	.globl _g_FNKFLG
	.globl _g_FNKSWI
	.globl _g_CODSAV
	.globl _g_FSTPOS
	.globl _g_LINTTB
	.globl _g_BASROM
	.globl _g_ENSTOP
	.globl _g_VCBC
	.globl _g_VCBB
	.globl _g_VCBA
	.globl _g_PLYCNT
	.globl _g_MUSICF
	.globl _g_QUEUEN
	.globl _g_MCLPTR
	.globl _g_MCLLEN
	.globl _g_SAVVOL
	.globl _g_VOICEN
	.globl _g_SAVSP
	.globl _g_PRSCNT
	.globl _g_LSTMOD
	.globl _g_LSTCOM
	.globl _g_COMMSK
	.globl _g_ESTBLS
	.globl _g_FLAGS
	.globl _g_ERRORS
	.globl _g_DATCNT
	.globl _g_DEVNUM
	.globl _g_OLDINT
	.globl _g_OLDSTT
	.globl _g_MEXBIh
	.globl _g_RSIQLN
	.globl _g_RSFCB
	.globl _g_TOCNT
	.globl _g_RSTMP
	.globl _g_YSAVE
	.globl _g_XSAVE
	.globl _g_NORUSE
	.globl _g_MODE
	.globl _g_ROMA
	.globl _g_CHRCNT
	.globl _g_EXBRSA
	.globl _g_AVCSAV
	.globl _g_ACPAGE
	.globl _g_DPPAGE
	.globl _g_RS2IQ
	.globl _g_VOICCQ
	.globl _g_VOICBQ
	.globl _g_VOICAQ
	.globl _g_QUEBAK
	.globl _g_QUETAB
	.globl _g_ASPCT2
	.globl _g_ASPCT1
	.globl _g_HEADER
	.globl _g_HIGH
	.globl _g_LOW
	.globl _g_CS240
	.globl _g_CS120
	.globl _g_GETPNT
	.globl _g_PUTPNT
	.globl _g_REPCNT
	.globl _g_SCNCNT
	.globl _g_FRCNEW
	.globl _g_QUEUES
	.globl _g_MINUPD
	.globl _g_MAXUPD
	.globl _g_TRGFLG
	.globl _g_STATFL
	.globl _g_RG7SAV
	.globl _g_RG6SAV
	.globl _g_RG5SAV
	.globl _g_RG4SAV
	.globl _g_RG3SAV
	.globl _g_RG2SAV
	.globl _g_RG1SAV
	.globl _g_RG0SAV
	.globl _g_CNSDFG
	.globl _g_USRTAB
	.globl _g_CLPRIM
	.globl _g_WRPRIM
	.globl _g_RDPRIM
	.globl _V9990_InitPalette
	.globl _V9990_InitMenuLayers
	.globl _InitPonPonGirls
	.globl _TickGoalCelebration
	.globl _TickPonPonGirlsAnimation
	.globl _PeopleMoving
	.globl _PutPonPonGirlSprite
;--------------------------------------------------------
; special function registers
;--------------------------------------------------------
_g_PortPrimarySlot	=	0x00a8
_g_PortReadKeyboard	=	0x00a9
_g_PortAccessKeyboard	=	0x00aa
_g_PortControl	=	0x00ab
_g_VDP_DataPort	=	0x0098
_g_VDP_RegPort	=	0x0099
_g_VDP_AddrPort	=	0x0099
_g_VDP_StatPort	=	0x0099
_g_PSG_RegPort	=	0x00a0
_g_PSG_DataPort	=	0x00a1
_g_PSG_StatPort	=	0x00a2
_g_PSG_Ext_RegPort	=	0x0010
_g_PSG_Ext_DataPort	=	0x0011
_g_PSG_Ext_StatPort	=	0x0012
_g_MSXMusic_IndexPort	=	0x007c
_g_MSXMusic_DataPort	=	0x007d
_g_MSXAudio_IndexPort	=	0x00c0
_g_MSXAudio_DataPort	=	0x00c1
_g_MSXAudio_IndexPort2	=	0x00c2
_g_MSXAudio_DataPort2	=	0x00c3
_g_RTC_AddrPort	=	0x00b4
_g_RTC_DataPort	=	0x00b5
_g_V9_VRAMPort	=	0x0060
_g_V9_PalettePort	=	0x0061
_g_V9_CmdDataPort	=	0x0062
_g_V9_RegDataPort	=	0x0063
_g_V9_RegSelectPort	=	0x0064
_g_V9_SatusPort	=	0x0065
_g_V9_IntFlagPort	=	0x0066
_g_V9_SysCtrlPort	=	0x0067
_g_V9_KanjiAddrLPort	=	0x0068
_g_V9_KanjiAddrHPort	=	0x0069
_g_V9_KanjiDataPort	=	0x0069
_g_V9_Kanji2AddrLPort	=	0x006a
_g_V9_Kanji2AddrHPort	=	0x006b
_g_V9_Kanji2DataPort	=	0x006b
_g_V9_OutputCtrPort	=	0x006f
;--------------------------------------------------------
; ram data
;--------------------------------------------------------
	.area _DATA
_g_LINL40	=	0xf3ae
_g_LINL32	=	0xf3af
_g_LINLEN	=	0xf3b0
_g_CRTCNT	=	0xf3b1
_g_CLMLST	=	0xf3b2
_g_TXTNAM	=	0xf3b3
_g_TXTCOL	=	0xf3b5
_g_TXTCGP	=	0xf3b7
_g_TXTATR	=	0xf3b9
_g_TXTPAT	=	0xf3bb
_g_T32NAM	=	0xf3bd
_g_T32COL	=	0xf3bf
_g_T32CGP	=	0xf3c1
_g_T32ATR	=	0xf3c3
_g_T32PAT	=	0xf3c5
_g_GRPNAM	=	0xf3c7
_g_GRPCOL	=	0xf3c9
_g_GRPCGP	=	0xf3cb
_g_GRPATR	=	0xf3cd
_g_GRPPAT	=	0xf3cf
_g_MLTNAM	=	0xf3d1
_g_MLTCOL	=	0xf3d3
_g_MLTCGP	=	0xf3d5
_g_MLTATR	=	0xf3d7
_g_MLTPAT	=	0xf3d9
_g_CLIKSW	=	0xf3db
_g_CSRY	=	0xf3dc
_g_CSRX	=	0xf3dd
_g_FORCLR	=	0xf3e9
_g_BAKCLR	=	0xf3ea
_g_BDRCLR	=	0xf3eb
_g_ATRBYT	=	0xf3f2
_g_FNKSTR	=	0xf87f
_g_CLOC	=	0xf92a
_g_CMASK	=	0xf92c
_g_LOGOPR	=	0xfb02
_g_GRPACX	=	0xfcb7
_g_GRPACY	=	0xfcb9
_g_SLTSL	=	0xffff
_PutBallSprite_s_StopCooldown_65538_1187:
	.ds 1
;--------------------------------------------------------
; ram data
;--------------------------------------------------------
	.area _INITIALIZED
;--------------------------------------------------------
; absolute external ram data
;--------------------------------------------------------
	.area _DABS (ABS)
;--------------------------------------------------------
; global & static initialisations
;--------------------------------------------------------
	.area _HOME
	.area _GSINIT
	.area _GSFINAL
	.area _GSINIT
;E:\Dropbox\FAUSTO\SVILUPPI\MSX\CODE\C\MSXgl\projects\soccerlg/soccerlg_s3_b1.c:223: static u8 s_StopCooldown = 0;
	ld	iy, #_PutBallSprite_s_StopCooldown_65538_1187
	ld	0 (iy), #0x00
;--------------------------------------------------------
; Home
;--------------------------------------------------------
	.area _HOME
	.area _HOME
;--------------------------------------------------------
; code
;--------------------------------------------------------
	.area _SEG3
;E:\Dropbox\FAUSTO\SVILUPPI\MSX\CODE\C\MSXgl\projects\soccerlg/soccerlg_s3_b1.c:74: void V9990_InitPalette(){
;	---------------------------------
; Function V9990_InitPalette
; ---------------------------------
_V9990_InitPalette::
;E:\Dropbox\FAUSTO\SVILUPPI\MSX\CODE\C\MSXgl\projects\soccerlg/soccerlg_s3_b1.c:75: V9_SetPalette(0, 16, g_Data_Palette_LayerA_Standard);
	ld	hl, #_g_Data_Palette_LayerA_Standard+0
;E:\Dropbox\FAUSTO\SVILUPPI\MSX\CODE\C\MSXgl\projects\soccerlg/soccerlg_s3_b1.c:1028: ERROR: no line number 1028 in file E:\Dropbox\FAUSTO\SVILUPPI\MSX\CODE\C\MSXgl\projects\soccerlg/soccerlg_s3_b1.c
	ld	bc, #0x0
00107$:
	ld	a, b
	sub	a, #0x10
	jr	NC, 00102$
	push	iy
	ex	(sp), hl
	ld	l, c
;	spillPairReg hl
;	spillPairReg hl
	ex	(sp), hl
	pop	iy
	inc	c
	push	hl
	push	bc
	ld	e, l
	ld	d, h
	push	iy
	ex	(sp), hl
	ld	a, l
	ex	(sp), hl
	pop	iy
	call	_V9_SetPaletteEntry
	pop	bc
	pop	hl
	inc	hl
	inc	hl
	inc	hl
	inc	b
	jp	00107$
;E:\Dropbox\FAUSTO\SVILUPPI\MSX\CODE\C\MSXgl\projects\soccerlg/soccerlg_s3_b1.c:75: V9_SetPalette(0, 16, g_Data_Palette_LayerA_Standard);
00102$:
;E:\Dropbox\FAUSTO\SVILUPPI\MSX\CODE\C\MSXgl\projects\soccerlg/soccerlg_s3_b1.c:76: V9_SetPalette(16, 16, g_Data_Palette_LayerB_Standard);
	ld	hl, #_g_Data_Palette_LayerB_Standard+0
;E:\Dropbox\FAUSTO\SVILUPPI\MSX\CODE\C\MSXgl\projects\soccerlg/soccerlg_s3_b1.c:1028: ERROR: no line number 1028 in file E:\Dropbox\FAUSTO\SVILUPPI\MSX\CODE\C\MSXgl\projects\soccerlg/soccerlg_s3_b1.c
	ld	bc, #0x10
00110$:
	ld	a, b
	sub	a, #0x10
	jr	NC, 00104$
	push	iy
	ex	(sp), hl
	ld	l, c
;	spillPairReg hl
;	spillPairReg hl
	ex	(sp), hl
	pop	iy
	inc	c
	push	hl
	push	bc
	ld	e, l
	ld	d, h
	push	iy
	ex	(sp), hl
	ld	a, l
	ex	(sp), hl
	pop	iy
	call	_V9_SetPaletteEntry
	pop	bc
	pop	hl
	inc	hl
	inc	hl
	inc	hl
	inc	b
	jp	00110$
;E:\Dropbox\FAUSTO\SVILUPPI\MSX\CODE\C\MSXgl\projects\soccerlg/soccerlg_s3_b1.c:76: V9_SetPalette(16, 16, g_Data_Palette_LayerB_Standard);
00104$:
;E:/Dropbox/FAUSTO/SVILUPPI/MSX/CODE/C/MSXgl/engine/src/v9990.h:1047: inline void V9_SelectPaletteP1(u8 a, u8 b) { V9_SetRegister(13, ((b & 0x3) << 2) + (a & 0x3)); }
	ld	a, #0x01
	and	a, #0x03
	add	a, a
	add	a, a
	ld	c, a
	xor	a, a
	and	a, #0x03
	add	a, c
	ld	l, a
;	spillPairReg hl
;	spillPairReg hl
	ld	a, #0x0d
;E:\Dropbox\FAUSTO\SVILUPPI\MSX\CODE\C\MSXgl\projects\soccerlg/soccerlg_s3_b1.c:77: V9_SelectPaletteP1(0,1);
;E:\Dropbox\FAUSTO\SVILUPPI\MSX\CODE\C\MSXgl\projects\soccerlg/soccerlg_s3_b1.c:78: }
	jp	_V9_SetRegister
_g_RDPRIM	=	0xf380
_g_WRPRIM	=	0xf385
_g_CLPRIM	=	0xf38c
_g_USRTAB	=	0xf39a
_g_CNSDFG	=	0xf3de
_g_RG0SAV	=	0xf3df
_g_RG1SAV	=	0xf3e0
_g_RG2SAV	=	0xf3e1
_g_RG3SAV	=	0xf3e2
_g_RG4SAV	=	0xf3e3
_g_RG5SAV	=	0xf3e4
_g_RG6SAV	=	0xf3e5
_g_RG7SAV	=	0xf3e6
_g_STATFL	=	0xf3e7
_g_TRGFLG	=	0xf3e8
_g_MAXUPD	=	0xf3ec
_g_MINUPD	=	0xf3ef
_g_QUEUES	=	0xf3f3
_g_FRCNEW	=	0xf3f5
_g_SCNCNT	=	0xf3f6
_g_REPCNT	=	0xf3f7
_g_PUTPNT	=	0xf3f8
_g_GETPNT	=	0xf3fa
_g_CS120	=	0xf3fc
_g_CS240	=	0xf401
_g_LOW	=	0xf406
_g_HIGH	=	0xf408
_g_HEADER	=	0xf40a
_g_ASPCT1	=	0xf40b
_g_ASPCT2	=	0xf40d
_g_QUETAB	=	0xf959
_g_QUEBAK	=	0xf971
_g_VOICAQ	=	0xf975
_g_VOICBQ	=	0xf9f5
_g_VOICCQ	=	0xfa75
_g_RS2IQ	=	0xfaf5
_g_DPPAGE	=	0xfaf5
_g_ACPAGE	=	0xfaf6
_g_AVCSAV	=	0xfaf7
_g_EXBRSA	=	0xfaf8
_g_CHRCNT	=	0xfaf9
_g_ROMA	=	0xfafa
_g_MODE	=	0xfafc
_g_NORUSE	=	0xfafd
_g_XSAVE	=	0xfafe
_g_YSAVE	=	0xfb00
_g_RSTMP	=	0xfb03
_g_TOCNT	=	0xfb03
_g_RSFCB	=	0xfb04
_g_RSIQLN	=	0xfb06
_g_MEXBIh	=	0xfb07
_g_OLDSTT	=	0xfb0c
_g_OLDINT	=	0xfb0c
_g_DEVNUM	=	0xfb16
_g_DATCNT	=	0xfb17
_g_ERRORS	=	0xfb1a
_g_FLAGS	=	0xfb1b
_g_ESTBLS	=	0xfb1c
_g_COMMSK	=	0xfb1d
_g_LSTCOM	=	0xfb1e
_g_LSTMOD	=	0xfb1f
_g_PRSCNT	=	0xfb35
_g_SAVSP	=	0xfb36
_g_VOICEN	=	0xfb38
_g_SAVVOL	=	0xfb39
_g_MCLLEN	=	0xfb3b
_g_MCLPTR	=	0xfb3c
_g_QUEUEN	=	0xfb3e
_g_MUSICF	=	0xfb3f
_g_PLYCNT	=	0xfb40
_g_VCBA	=	0xfb41
_g_VCBB	=	0xfb66
_g_VCBC	=	0xfb8b
_g_ENSTOP	=	0xfbb0
_g_BASROM	=	0xfbb1
_g_LINTTB	=	0xfbb2
_g_FSTPOS	=	0xfbca
_g_CODSAV	=	0xfbcc
_g_FNKSWI	=	0xfbcd
_g_FNKFLG	=	0xfbce
_g_ONGSBF	=	0xfbd8
_g_CLIKFL	=	0xfbd9
_g_OLDKEY	=	0xfbda
_g_NEWKEY	=	0xfbe5
_g_KEYBUF	=	0xfbf0
_g_LINWRK	=	0xfc18
_g_PATWRK	=	0xfc40
_g_BOTTOM	=	0xfc48
_g_HIMEM	=	0xfc4a
_g_TRPTBL	=	0xfc4c
_g_RTYCNT	=	0xfc9a
_g_INTFLG	=	0xfc9b
_g_PADY	=	0xfc9c
_g_PADX	=	0xfc9d
_g_JIFFY	=	0xfc9e
_g_INTVAL	=	0xfca0
_g_INTCNT	=	0xfca2
_g_LOWLIM	=	0xfca4
_g_WINWID	=	0xfca5
_g_GRPHED	=	0xfca6
_g_ESCCNT	=	0xfca7
_g_INSFLG	=	0xfca8
_g_CSRSW	=	0xfca9
_g_CSTYLE	=	0xfcaa
_g_CAPST	=	0xfcab
_g_KANAST	=	0xfcac
_g_KANAMD	=	0xfcad
_g_FLBMEM	=	0xfcae
_g_SCRMOD	=	0xfcaf
_g_OLDSCR	=	0xfcb0
_g_CASPRV	=	0xfcb1
_g_BRDATR	=	0xfcb2
_g_GXPOS	=	0xfcb3
_g_GYPOS	=	0xfcb5
_g_DRWFLG	=	0xfcbb
_g_DRWSCL	=	0xfcbc
_g_DRWANG	=	0xfcbd
_g_MNROM	=	0xfcc1
_g_EXPTBL	=	0xfcc1
_g_SLTTBL	=	0xfcc5
_g_SLTATR	=	0xfcc9
_g_SLTWRK	=	0xfd09
_g_PROCNM	=	0xfd89
_g_RG08SAV	=	0xffe7
_g_RG09SAV	=	0xffe8
_g_RG10SAV	=	0xffe9
_g_RG11SAV	=	0xffea
_g_RG12SAV	=	0xffeb
_g_RG13SAV	=	0xffec
_g_RG14SAV	=	0xffed
_g_RG15SAV	=	0xffee
_g_RG16SAV	=	0xffef
_g_RG17SAV	=	0xfff0
_g_RG18SAV	=	0xfff1
_g_RG19SAV	=	0xfff2
_g_RG20SAV	=	0xfff3
_g_RG21SAV	=	0xfff4
_g_RG22SAV	=	0xfff5
_g_RG23SAV	=	0xfff6
_g_MINROM	=	0xfff7
_g_SVFFF8	=	0xfff8
_g_RG25SAV	=	0xfffa
_g_RG26SAV	=	0xfffb
_g_RG27SAV	=	0xfffc
_g_SVFFFD	=	0xfffd
_g_CGTABL	=	0x0004
_g_VDP_DR	=	0x0006
_g_VDP_DW	=	0x0007
_g_BASRVN	=	0x002b
_g_ROMVersion	=	0x002b
_g_MSXVER	=	0x002d
_g_MSXMID	=	0x002e
_g_CHAR_16	=	0x0034
_g_SUBRID	=	0x0000
_g_STRSRC	=	0x0002
_g_KANJTABLE	=	0xf30f
_g_DISKVE	=	0xf323
_g_BREAKV	=	0xf325
_g_RAMAD0	=	0xf341
_g_RAMAD1	=	0xf342
_g_RAMAD2	=	0xf343
_g_RAMAD3	=	0xf344
_g_MASTER	=	0xf348
_g_BDOS	=	0xf37d
_g_GirlPatterns:
	.db #0x7a	; 122	'z'
	.db #0x7b	; 123
	.db #0x7c	; 124
	.db #0x7d	; 125
	.db #0x7e	; 126
	.db #0x7f	; 127
	.db #0xf0	; 240
	.db #0xf1	; 241
	.db #0xf2	; 242
_g_PonPonGirlsPos:
	.db #0x1e	; 30
	.db #0x32	; 50	'2'
	.db #0x46	; 70	'F'
	.db #0xaf	; 175
	.db #0xc3	; 195
	.db #0xd7	; 215
_g_Data_Palette_LayerA_Standard:
	.db #0x00	; 0
	.db #0x00	; 0
	.db #0x00	; 0
	.db #0x01	; 1
	.db #0x01	; 1
	.db #0x01	; 1
	.db #0x01	; 1
	.db #0x01	; 1
	.db #0x01	; 1
	.db #0x01	; 1
	.db #0x01	; 1
	.db #0x01	; 1
	.db #0xff	; 255
	.db #0xff	; 255
	.db #0xff	; 255
	.db #0x1e	; 30
	.db #0x1a	; 26
	.db #0x08	; 8
	.db #0x01	; 1
	.db #0x01	; 1
	.db #0x01	; 1
	.db #0x14	; 20
	.db #0x09	; 9
	.db #0x14	; 20
	.db #0x1b	; 27
	.db #0x13	; 19
	.db #0x09	; 9
	.db #0x01	; 1
	.db #0x01	; 1
	.db #0x01	; 1
	.db #0x01	; 1
	.db #0x01	; 1
	.db #0x01	; 1
	.db #0x01	; 1
	.db #0x01	; 1
	.db #0x01	; 1
	.db #0x01	; 1
	.db #0x01	; 1
	.db #0x01	; 1
	.db #0x01	; 1
	.db #0x01	; 1
	.db #0x01	; 1
	.db #0x01	; 1
	.db #0x01	; 1
	.db #0x01	; 1
	.db #0xff	; 255
	.db #0xff	; 255
	.db #0xff	; 255
_g_Data_Palette_LayerB_Standard:
	.db #0x00	; 0
	.db #0x00	; 0
	.db #0x00	; 0
	.db #0x08	; 8
	.db #0x17	; 23
	.db #0x1b	; 27
	.db #0x01	; 1
	.db #0x01	; 1
	.db #0x01	; 1
	.db #0x01	; 1
	.db #0x01	; 1
	.db #0x01	; 1
	.db #0x01	; 1
	.db #0x01	; 1
	.db #0x01	; 1
	.db #0x1e	; 30
	.db #0x1a	; 26
	.db #0x08	; 8
	.db #0x01	; 1
	.db #0x01	; 1
	.db #0x01	; 1
	.db #0x01	; 1
	.db #0x01	; 1
	.db #0x01	; 1
	.db #0x01	; 1
	.db #0x01	; 1
	.db #0x01	; 1
	.db #0x1f	; 31
	.db #0x00	; 0
	.db #0x00	; 0
	.db #0x1b	; 27
	.db #0x1b	; 27
	.db #0x1b	; 27
	.db #0x04	; 4
	.db #0x04	; 4
	.db #0x1b	; 27
	.db #0x00	; 0
	.db #0x00	; 0
	.db #0x00	; 0
	.db #0x1b	; 27
	.db #0x1b	; 27
	.db #0x1b	; 27
	.db #0x00	; 0
	.db #0x17	; 23
	.db #0x00	; 0
	.db #0x1b	; 27
	.db #0x13	; 19
	.db #0x09	; 9
;E:\Dropbox\FAUSTO\SVILUPPI\MSX\CODE\C\MSXgl\projects\soccerlg/soccerlg_s3_b1.c:80: void V9990_InitMenuLayers(){   
;	---------------------------------
; Function V9990_InitMenuLayers
; ---------------------------------
_V9990_InitMenuLayers::
;E:\Dropbox\FAUSTO\SVILUPPI\MSX\CODE\C\MSXgl\projects\soccerlg/soccerlg_s3_b1.c:81: V9990_InitPalette();
	call	_V9990_InitPalette
;E:\Dropbox\FAUSTO\SVILUPPI\MSX\CODE\C\MSXgl\projects\soccerlg/soccerlg_s3_b1.c:82: V9_SetScreenMode(V9_MODE_P1);
	xor	a, a
	call	_V9_SetScreenMode
;E:/Dropbox/FAUSTO/SVILUPPI/MSX/CODE/C/MSXgl/engine/src/v9990.h:480: inline void V9_SetBackgroundColor(u8 color) { V9_SetRegister(15, color); }
	ld	l, #0x01
;	spillPairReg hl
;	spillPairReg hl
	ld	a, #0x0f
	call	_V9_SetRegister
;E:/Dropbox/FAUSTO/SVILUPPI/MSX/CODE/C/MSXgl/engine/src/v9990.h:258: inline void V9_SetFlag(u8 reg, u8 mask, u8 flag) { V9_SetRegister(reg, V9_GetRegister(reg) & (~mask) | flag); }
	ld	a, #0x08
	call	_V9_GetRegister
	ld	l, a
;	spillPairReg hl
;	spillPairReg hl
	res	7, l
	ld	a, #0x08
	call	_V9_SetRegister
;E:\Dropbox\FAUSTO\SVILUPPI\MSX\CODE\C\MSXgl\projects\soccerlg/soccerlg_s3_b1.c:85: V9990_LoadP1LayerA();
;E:\Dropbox\FAUSTO\SVILUPPI\MSX\CODE\C\MSXgl\projects\soccerlg/soccerlg_s3_b1.c:86: }
	jp	_V9990_LoadP1LayerA
;E:\Dropbox\FAUSTO\SVILUPPI\MSX\CODE\C\MSXgl\projects\soccerlg/soccerlg_s3_b1.c:87: void InitPonPonGirls(){
;	---------------------------------
; Function InitPonPonGirls
; ---------------------------------
_InitPonPonGirls::
	push	ix
	ld	ix,#0
	add	ix,sp
	dec	sp
;E:\Dropbox\FAUSTO\SVILUPPI\MSX\CODE\C\MSXgl\projects\soccerlg/soccerlg_s3_b1.c:88: g_ponPonPatternIndex=0;
	ld	hl, #_g_ponPonPatternIndex
	ld	(hl), #0x00
;E:\Dropbox\FAUSTO\SVILUPPI\MSX\CODE\C\MSXgl\projects\soccerlg/soccerlg_s3_b1.c:90: for(u8 i=0;i<6;i++){
	ld	-1 (ix), #0x00
00103$:
	ld	a, -1 (ix)
	sub	a, #0x06
	jr	NC, 00105$
;E:\Dropbox\FAUSTO\SVILUPPI\MSX\CODE\C\MSXgl\projects\soccerlg/soccerlg_s3_b1.c:91: g_PonPonGirls[i].X=g_PonPonGirlsPos[i];
	ld	c, -1 (ix)
	ld	b, #0x00
	ld	l, c
	ld	h, b
	add	hl, hl
	add	hl, hl
	add	hl, bc
	ld	de, #_g_PonPonGirls
	add	hl, de
;	spillPairReg hl
;	spillPairReg hl
	ld	e, l
	ld	d, h
;	spillPairReg hl
;	spillPairReg hl
	inc	hl
	inc	hl
	ld	a, #<(_g_PonPonGirlsPos)
	add	a, -1 (ix)
	ld	c, a
	ld	a, #>(_g_PonPonGirlsPos)
	adc	a, #0x00
	ld	b, a
	ld	a, (bc)
	ld	c, a
	ld	b, #0x00
	ld	(hl), c
	inc	hl
	ld	(hl), b
;E:\Dropbox\FAUSTO\SVILUPPI\MSX\CODE\C\MSXgl\projects\soccerlg/soccerlg_s3_b1.c:92: g_PonPonGirls[i].Y=42;
	ld	l, e
	ld	h, d
	ld	(hl), #0x2a
	inc	hl
	ld	(hl), #0x00
;E:\Dropbox\FAUSTO\SVILUPPI\MSX\CODE\C\MSXgl\projects\soccerlg/soccerlg_s3_b1.c:93: g_PonPonGirls[i].PatternId=SPRITE_GIRL_1;
	ld	hl, #0x0004
	add	hl, de
	ld	(hl), #0x7a
;E:\Dropbox\FAUSTO\SVILUPPI\MSX\CODE\C\MSXgl\projects\soccerlg/soccerlg_s3_b1.c:94: PutPonPonGirlSprite(i);
	ld	a, -1 (ix)
	call	_PutPonPonGirlSprite
;E:\Dropbox\FAUSTO\SVILUPPI\MSX\CODE\C\MSXgl\projects\soccerlg/soccerlg_s3_b1.c:90: for(u8 i=0;i<6;i++){
	inc	-1 (ix)
	jp	00103$
00105$:
;E:\Dropbox\FAUSTO\SVILUPPI\MSX\CODE\C\MSXgl\projects\soccerlg/soccerlg_s3_b1.c:97: }
	inc	sp
	pop	ix
	ret
;E:\Dropbox\FAUSTO\SVILUPPI\MSX\CODE\C\MSXgl\projects\soccerlg/soccerlg_s3_b1.c:99: void TickGoalCelebration(){
;	---------------------------------
; Function TickGoalCelebration
; ---------------------------------
_TickGoalCelebration::
	push	ix
	ld	ix,#0
	add	ix,sp
	ld	hl, #-13
	add	hl, sp
	ld	sp, hl
;E:\Dropbox\FAUSTO\SVILUPPI\MSX\CODE\C\MSXgl\projects\soccerlg/soccerlg_s3_b1.c:100: if(g_MatchStatus!=MATCH_AFTER_IN_GOAL) return;
	ld	a, (_g_MatchStatus+0)
	sub	a, #0x06
	jp	NZ,00158$
;E:\Dropbox\FAUSTO\SVILUPPI\MSX\CODE\C\MSXgl\projects\soccerlg/soccerlg_s3_b1.c:104: g_Timer++;
	ld	hl, #_g_Timer
	inc	(hl)
;E:\Dropbox\FAUSTO\SVILUPPI\MSX\CODE\C\MSXgl\projects\soccerlg/soccerlg_s3_b1.c:106: if((g_Timer % 10) < 5){
	ld	a, (_g_Timer+0)
	ld	l, a
;	spillPairReg hl
;	spillPairReg hl
	ld	h, #0x00
;	spillPairReg hl
;	spillPairReg hl
	ld	de, #0x000a
	call	__modsint
	ld	a, e
	sub	a, #0x05
	ld	a, d
	rla
	ccf
	rra
	sbc	a, #0x80
	jr	NC, 00104$
;E:/Dropbox/FAUSTO/SVILUPPI/MSX/CODE/C/MSXgl/engine/src/v9990.h:480: inline void V9_SetBackgroundColor(u8 color) { V9_SetRegister(15, color); }
	ld	l, #0x08
;	spillPairReg hl
;	spillPairReg hl
	ld	a, #0x0f
	call	_V9_SetRegister
;E:\Dropbox\FAUSTO\SVILUPPI\MSX\CODE\C\MSXgl\projects\soccerlg/soccerlg_s3_b1.c:107: V9_SetBackgroundColor(8); // Cyan/Flash
	jp	00105$
00104$:
;E:/Dropbox/FAUSTO/SVILUPPI/MSX/CODE/C/MSXgl/engine/src/v9990.h:480: inline void V9_SetBackgroundColor(u8 color) { V9_SetRegister(15, color); }
	ld	l, #0x01
;	spillPairReg hl
;	spillPairReg hl
	ld	a, #0x0f
	call	_V9_SetRegister
;E:\Dropbox\FAUSTO\SVILUPPI\MSX\CODE\C\MSXgl\projects\soccerlg/soccerlg_s3_b1.c:109: V9_SetBackgroundColor(1); // Default Blue
00105$:
;E:\Dropbox\FAUSTO\SVILUPPI\MSX\CODE\C\MSXgl\projects\soccerlg/soccerlg_s3_b1.c:115: if (g_Timer < 120) {
	ld	a, (_g_Timer+0)
	sub	a, #0x78
	jp	NC, 00136$
;E:\Dropbox\FAUSTO\SVILUPPI\MSX\CODE\C\MSXgl\projects\soccerlg/soccerlg_s3_b1.c:116: u8 scoringTeamId = (g_RestartKickTeamId == TEAM_1) ? TEAM_2 : TEAM_1;
	ld	a, (_g_RestartKickTeamId+0)
	dec	a
	jr	NZ, 00160$
	ld	bc, #0x0002
	jp	00161$
00160$:
	ld	bc, #0x0001
00161$:
	ld	-11 (ix), c
;E:\Dropbox\FAUSTO\SVILUPPI\MSX\CODE\C\MSXgl\projects\soccerlg/soccerlg_s3_b1.c:119: u16 limitY_Top = FIELD_BOUND_Y_TOP;
	ld	-10 (ix), #0x32
	xor	a, a
	ld	-9 (ix), a
;E:\Dropbox\FAUSTO\SVILUPPI\MSX\CODE\C\MSXgl\projects\soccerlg/soccerlg_s3_b1.c:120: u16 limitY_Bottom = FIELD_BOUND_Y_BOTTOM;
	ld	-8 (ix), #0xae
	ld	-7 (ix), #0x01
;E:\Dropbox\FAUSTO\SVILUPPI\MSX\CODE\C\MSXgl\projects\soccerlg/soccerlg_s3_b1.c:122: if (g_Ball.Y < FIELD_CENTRAL_Y) { // Top Goal
	ld	hl, #_g_Ball
	ld	a, (hl)
	ld	-2 (ix), a
	inc	hl
	ld	a, (hl)
	ld	-1 (ix), a
	ld	a, -2 (ix)
	sub	a, #0x8c
	ld	a, -1 (ix)
	sbc	a, #0x00
	jr	NC, 00107$
;E:\Dropbox\FAUSTO\SVILUPPI\MSX\CODE\C\MSXgl\projects\soccerlg/soccerlg_s3_b1.c:123: limitY_Bottom = FIELD_BOUND_Y_TOP + 160; 
	ld	-8 (ix), #0xd2
	ld	-7 (ix), #0
	jp	00200$
00107$:
;E:\Dropbox\FAUSTO\SVILUPPI\MSX\CODE\C\MSXgl\projects\soccerlg/soccerlg_s3_b1.c:125: limitY_Top = FIELD_BOUND_Y_BOTTOM - 160;
	ld	-10 (ix), #0x0e
	ld	-9 (ix), #0x01
;E:\Dropbox\FAUSTO\SVILUPPI\MSX\CODE\C\MSXgl\projects\soccerlg/soccerlg_s3_b1.c:133: for(u8 i=0; i<15; i++){
00200$:
	ld	-1 (ix), #0x00
00154$:
	ld	a, -1 (ix)
	sub	a, #0x0f
	jp	NC, 00136$
;E:\Dropbox\FAUSTO\SVILUPPI\MSX\CODE\C\MSXgl\projects\soccerlg/soccerlg_s3_b1.c:134: if(i == REFEREE) continue;
	ld	a, -1 (ix)
	sub	a, #0x0e
	jp	Z,00133$
;E:\Dropbox\FAUSTO\SVILUPPI\MSX\CODE\C\MSXgl\projects\soccerlg/soccerlg_s3_b1.c:135: u8 dir = g_Players[i].Direction;
	ld	c, -1 (ix)
	ld	b, #0x00
	ld	l, c
	ld	h, b
	add	hl, hl
	add	hl, hl
	add	hl, bc
	add	hl, hl
	add	hl, hl
	add	hl, bc
	ld	de, #_g_Players
	add	hl, de
	ex	(sp), hl
	ld	a, -13 (ix)
	add	a, #0x0a
	ld	c, a
	ld	a, -12 (ix)
	adc	a, #0x00
	ld	b, a
	ld	a, (bc)
	ld	-2 (ix), a
;E:\Dropbox\FAUSTO\SVILUPPI\MSX\CODE\C\MSXgl\projects\soccerlg/soccerlg_s3_b1.c:138: if (g_Players[i].TeamId == scoringTeamId) {
	pop	de
	push	de
	ld	hl, #9
	add	hl, de
	ld	e, (hl)
;E:\Dropbox\FAUSTO\SVILUPPI\MSX\CODE\C\MSXgl\projects\soccerlg/soccerlg_s3_b1.c:162: if (isBack) g_Players[i].PatternId = (animFrame1) ? PLAYER_POSE_CELEBRATION_BACK_1 : PLAYER_POSE_CELEBRATION_BACK_2;
	ld	a, -13 (ix)
	add	a, #0x08
	ld	-6 (ix), a
	ld	a, -12 (ix)
	adc	a, #0x00
	ld	-5 (ix), a
;E:\Dropbox\FAUSTO\SVILUPPI\MSX\CODE\C\MSXgl\projects\soccerlg/soccerlg_s3_b1.c:138: if (g_Players[i].TeamId == scoringTeamId) {
	ld	a, -11 (ix)
	sub	a, e
	jp	NZ,00131$
;E:\Dropbox\FAUSTO\SVILUPPI\MSX\CODE\C\MSXgl\projects\soccerlg/soccerlg_s3_b1.c:142: if ((g_Timer % 19) == 0) {
	ld	a, (_g_Timer+0)
	ld	l, a
;	spillPairReg hl
;	spillPairReg hl
	ld	h, #0x00
;	spillPairReg hl
;	spillPairReg hl
	push	bc
	ld	de, #0x0013
	call	__modsint
	pop	bc
	ld	a, d
	or	a, e
	jr	NZ, 00112$
;E:\Dropbox\FAUSTO\SVILUPPI\MSX\CODE\C\MSXgl\projects\soccerlg/soccerlg_s3_b1.c:144: u8 rnd = (g_Timer * 3) + (i * 37); 
	ld	a, (_g_Timer+0)
	ld	e, a
	add	a, a
	add	a, e
	ld	e, a
	ld	a, -1 (ix)
	push	de
	ld	e, a
	add	a, a
	add	a, a
	add	a, a
	add	a, e
	add	a, a
	add	a, a
	add	a, e
	pop	de
	add	a, e
;E:\Dropbox\FAUSTO\SVILUPPI\MSX\CODE\C\MSXgl\projects\soccerlg/soccerlg_s3_b1.c:145: dir = (rnd % 8) + 1; 
	and	a, #0x07
	inc	a
;E:\Dropbox\FAUSTO\SVILUPPI\MSX\CODE\C\MSXgl\projects\soccerlg/soccerlg_s3_b1.c:146: g_Players[i].Direction = dir;
	ld	-2 (ix), a
	ld	(bc), a
00112$:
;E:\Dropbox\FAUSTO\SVILUPPI\MSX\CODE\C\MSXgl\projects\soccerlg/soccerlg_s3_b1.c:149: i8 dy = k_CelebDY[dir];
	ld	a, #<(_TickGoalCelebration_k_CelebDY_131073_1162)
	add	a, -2 (ix)
	ld	l, a
;	spillPairReg hl
;	spillPairReg hl
	ld	a, #>(_TickGoalCelebration_k_CelebDY_131073_1162)
	adc	a, #0x00
	ld	h, a
	ld	c, (hl)
;E:\Dropbox\FAUSTO\SVILUPPI\MSX\CODE\C\MSXgl\projects\soccerlg/soccerlg_s3_b1.c:150: i8 dx = k_CelebDX[dir];
	ld	a, #<(_TickGoalCelebration_k_CelebDX_131073_1162)
	add	a, -2 (ix)
	ld	l, a
;	spillPairReg hl
;	spillPairReg hl
	ld	a, #>(_TickGoalCelebration_k_CelebDX_131073_1162)
	adc	a, #0x00
	ld	h, a
	ld	b, (hl)
;E:\Dropbox\FAUSTO\SVILUPPI\MSX\CODE\C\MSXgl\projects\soccerlg/soccerlg_s3_b1.c:152: if (dy < 0 && g_Players[i].Y > limitY_Top) g_Players[i].Y--;
	ld	a, c
	rlca
	and	a,#0x01
	ld	-4 (ix), a
	or	a, a
	jr	Z, 00117$
	pop	hl
	push	hl
	ld	e, (hl)
	inc	hl
	ld	d, (hl)
	ld	a, -10 (ix)
	sub	a, e
	ld	a, -9 (ix)
	sbc	a, d
	jr	NC, 00117$
	dec	de
	pop	hl
	push	hl
	ld	(hl), e
	inc	hl
	ld	(hl), d
	jp	00118$
00117$:
;E:\Dropbox\FAUSTO\SVILUPPI\MSX\CODE\C\MSXgl\projects\soccerlg/soccerlg_s3_b1.c:153: else if (dy > 0 && g_Players[i].Y < limitY_Bottom) g_Players[i].Y++;
	xor	a, a
	sub	a, c
	jp	PO, 00387$
	xor	a, #0x80
00387$:
	jp	P, 00118$
	pop	hl
	push	hl
	ld	e, (hl)
	inc	hl
	ld	d, (hl)
	ld	a, e
	sub	a, -8 (ix)
	ld	a, d
	sbc	a, -7 (ix)
	jr	NC, 00118$
	inc	de
	pop	hl
	push	hl
	ld	(hl), e
	inc	hl
	ld	(hl), d
00118$:
;E:\Dropbox\FAUSTO\SVILUPPI\MSX\CODE\C\MSXgl\projects\soccerlg/soccerlg_s3_b1.c:155: if (dx < 0 && g_Players[i].X > FIELD_BOUND_X_LEFT) g_Players[i].X--;
	bit	7, b
	jr	Z, 00124$
	pop	hl
	push	hl
	inc	hl
	inc	hl
	ld	e, (hl)
	inc	hl
	ld	d, (hl)
	dec	hl
	ld	-3 (ix), e
	ld	-2 (ix), d
	ld	a, #0x0a
	cp	a, -3 (ix)
	ld	a, #0x00
	sbc	a, -2 (ix)
	jr	NC, 00124$
	dec	de
	ld	(hl), e
	inc	hl
	ld	(hl), d
	jp	00125$
00124$:
;E:\Dropbox\FAUSTO\SVILUPPI\MSX\CODE\C\MSXgl\projects\soccerlg/soccerlg_s3_b1.c:156: else if (dx > 0 && g_Players[i].X < FIELD_BOUND_X_RIGHT) g_Players[i].X++;
	xor	a, a
	sub	a, b
	jp	PO, 00388$
	xor	a, #0x80
00388$:
	jp	P, 00125$
	pop	hl
	push	hl
	inc	hl
	inc	hl
	ld	c, (hl)
	inc	hl
	ld	b, (hl)
	dec	hl
	ld	e, c
	ld	d, b
	ld	a, e
	sub	a, #0xec
	ld	a, d
	sbc	a, #0x00
	jr	NC, 00125$
	inc	bc
	ld	(hl), c
	inc	hl
	ld	(hl), b
00125$:
;E:\Dropbox\FAUSTO\SVILUPPI\MSX\CODE\C\MSXgl\projects\soccerlg/soccerlg_s3_b1.c:159: bool animFrame1 = ((g_Timer / 8) % 2) == 0;
	ld	a, (_g_Timer+0)
	ld	e, a
	ld	d, #0x00
	ld	c, e
	ld	b, d
	bit	7, d
	jr	Z, 00162$
	ld	hl, #0x0007
	add	hl, de
	ld	c, l
	ld	b, h
00162$:
	ld	-3 (ix), c
	ld	-2 (ix), b
	sra	-2 (ix)
	rr	-3 (ix)
	sra	-2 (ix)
	rr	-3 (ix)
	sra	-2 (ix)
	rr	-3 (ix)
	ld	de, #0x0002
	ld	l, -3 (ix)
;	spillPairReg hl
;	spillPairReg hl
	ld	h, -2 (ix)
;	spillPairReg hl
;	spillPairReg hl
	call	__modsint
	ld	-3 (ix), e
	ld	-2 (ix), d
	ld	a, -3 (ix)
	or	a, a
	or	a, -2 (ix)
	ld	a, #0x01
	jr	Z, 00390$
	xor	a, a
00390$:
	ld	-2 (ix), a
;E:\Dropbox\FAUSTO\SVILUPPI\MSX\CODE\C\MSXgl\projects\soccerlg/soccerlg_s3_b1.c:162: if (isBack) g_Players[i].PatternId = (animFrame1) ? PLAYER_POSE_CELEBRATION_BACK_1 : PLAYER_POSE_CELEBRATION_BACK_2;
	ld	a, -4 (ix)
	or	a, a
	jr	Z, 00128$
	ld	a, -2 (ix)
	or	a, a
	jr	Z, 00163$
	ld	-3 (ix), #0x32
	ld	-2 (ix), #0
	jp	00164$
00163$:
	ld	-3 (ix), #0x33
	ld	-2 (ix), #0
00164$:
	ld	a, -3 (ix)
	ld	-2 (ix), a
	ld	l, -6 (ix)
	ld	h, -5 (ix)
	ld	a, -2 (ix)
	ld	(hl), a
	jp	00133$
00128$:
;E:\Dropbox\FAUSTO\SVILUPPI\MSX\CODE\C\MSXgl\projects\soccerlg/soccerlg_s3_b1.c:163: else g_Players[i].PatternId = (animFrame1) ? PLAYER_POSE_CELEBRATION_FRONT_1 : PLAYER_POSE_CELEBRATION_FRONT_2;
	ld	a, -2 (ix)
	or	a, a
	jr	Z, 00165$
	ld	-3 (ix), #0x30
	ld	-2 (ix), #0
	jp	00166$
00165$:
	ld	-3 (ix), #0x31
	ld	-2 (ix), #0
00166$:
	ld	a, -3 (ix)
	ld	l, -6 (ix)
	ld	h, -5 (ix)
	ld	(hl), a
	jp	00133$
00131$:
;E:\Dropbox\FAUSTO\SVILUPPI\MSX\CODE\C\MSXgl\projects\soccerlg/soccerlg_s3_b1.c:167: bool isUp = (dir == DIRECTION_UP || dir == DIRECTION_UP_LEFT || dir == DIRECTION_UP_RIGHT);
	ld	a, -2 (ix)
	dec	a
	jr	Z, 00168$
	ld	a, -2 (ix)
	sub	a, #0x08
	jr	Z, 00168$
	ld	a, -2 (ix)
	sub	a, #0x02
	jr	Z, 00168$
	xor	a, a
	jp	00169$
00168$:
	ld	a, #0x01
00169$:
;E:\Dropbox\FAUSTO\SVILUPPI\MSX\CODE\C\MSXgl\projects\soccerlg/soccerlg_s3_b1.c:168: g_Players[i].PatternId = isUp ? PLAYER_POSE_BACK : PLAYER_POSE_FRONT;
	or	a, a
	jr	Z, 00173$
	ld	-3 (ix), #0x11
	ld	-2 (ix), #0
	jp	00174$
00173$:
	ld	-3 (ix), #0x10
	ld	-2 (ix), #0
00174$:
	ld	a, -3 (ix)
	ld	-2 (ix), a
	ld	l, -6 (ix)
	ld	h, -5 (ix)
	ld	a, -2 (ix)
	ld	(hl), a
00133$:
;E:\Dropbox\FAUSTO\SVILUPPI\MSX\CODE\C\MSXgl\projects\soccerlg/soccerlg_s3_b1.c:133: for(u8 i=0; i<15; i++){
	inc	-1 (ix)
	jp	00154$
00136$:
;E:\Dropbox\FAUSTO\SVILUPPI\MSX\CODE\C\MSXgl\projects\soccerlg/soccerlg_s3_b1.c:173: if(g_Timer > 150){
	ld	a, #0x96
	ld	hl, #_g_Timer
	sub	a, (hl)
	jp	NC, 00158$
;E:/Dropbox/FAUSTO/SVILUPPI/MSX/CODE/C/MSXgl/engine/src/v9990.h:480: inline void V9_SetBackgroundColor(u8 color) { V9_SetRegister(15, color); }
	ld	l, #0x01
;	spillPairReg hl
;	spillPairReg hl
	ld	a, #0x0f
	call	_V9_SetRegister
;E:\Dropbox\FAUSTO\SVILUPPI\MSX\CODE\C\MSXgl\projects\soccerlg/soccerlg_s3_b1.c:175: V9990_ClearTextFromLayerA(12, 18, 8); // "IN  GOAL"
	ld	a, #0x08
	push	af
	inc	sp
	ld	l, #0x12
;	spillPairReg hl
;	spillPairReg hl
	ld	a, #0x0c
	call	_V9990_ClearTextFromLayerA
;E:\Dropbox\FAUSTO\SVILUPPI\MSX\CODE\C\MSXgl\projects\soccerlg/soccerlg_s3_b1.c:177: g_MatchStatus = MATCH_BEFORE_KICK_OFF;
	ld	hl, #_g_MatchStatus
	ld	(hl), #0x01
;E:\Dropbox\FAUSTO\SVILUPPI\MSX\CODE\C\MSXgl\projects\soccerlg/soccerlg_s3_b1.c:178: g_Ball.PossessionPlayerId = NO_VALUE;
	ld	hl, #(_g_Ball + 6)
	ld	(hl), #0xff
;E:\Dropbox\FAUSTO\SVILUPPI\MSX\CODE\C\MSXgl\projects\soccerlg/soccerlg_s3_b1.c:179: g_Ball.KickMoveState = 0;
	ld	hl, #(_g_Ball + 13)
	ld	(hl), #0x00
;E:\Dropbox\FAUSTO\SVILUPPI\MSX\CODE\C\MSXgl\projects\soccerlg/soccerlg_s3_b1.c:180: g_Ball.ShotActive = 0;
	ld	hl, #(_g_Ball + 27)
	ld	(hl), #0x00
;E:\Dropbox\FAUSTO\SVILUPPI\MSX\CODE\C\MSXgl\projects\soccerlg/soccerlg_s3_b1.c:181: if(g_Team1ActivePlayer!=NO_VALUE) g_Players[g_Team1ActivePlayer].Status=PLAYER_STATUS_NONE;
	ld	a, (_g_Team1ActivePlayer+0)
	inc	a
	jr	Z, 00138$
	ld	bc, #_g_Players+0
	ld	de, (_g_Team1ActivePlayer)
	ld	d, #0x00
	ld	l, e
	ld	h, d
	add	hl, hl
	add	hl, hl
	add	hl, de
	add	hl, hl
	add	hl, hl
	add	hl, de
	add	hl, bc
	ld	bc, #0x0012
	add	hl, bc
	xor	a, a
	ld	(hl), a
	inc	hl
	ld	(hl), a
00138$:
;E:\Dropbox\FAUSTO\SVILUPPI\MSX\CODE\C\MSXgl\projects\soccerlg/soccerlg_s3_b1.c:182: if(g_Team2ActivePlayer!=NO_VALUE) g_Players[g_Team2ActivePlayer].Status=PLAYER_STATUS_NONE;
	ld	a, (_g_Team2ActivePlayer+0)
	inc	a
	jr	Z, 00140$
	ld	bc, #_g_Players+0
	ld	de, (_g_Team2ActivePlayer)
	ld	d, #0x00
	ld	l, e
	ld	h, d
	add	hl, hl
	add	hl, hl
	add	hl, de
	add	hl, hl
	add	hl, hl
	add	hl, de
	add	hl, bc
	ld	bc, #0x0012
	add	hl, bc
	xor	a, a
	ld	(hl), a
	inc	hl
	ld	(hl), a
00140$:
;E:\Dropbox\FAUSTO\SVILUPPI\MSX\CODE\C\MSXgl\projects\soccerlg/soccerlg_s3_b1.c:183: g_Team1ActivePlayer=NO_VALUE;
	ld	hl, #_g_Team1ActivePlayer
	ld	(hl), #0xff
;E:\Dropbox\FAUSTO\SVILUPPI\MSX\CODE\C\MSXgl\projects\soccerlg/soccerlg_s3_b1.c:184: g_Team2ActivePlayer=NO_VALUE;
	ld	hl, #_g_Team2ActivePlayer
	ld	(hl), #0xff
;E:\Dropbox\FAUSTO\SVILUPPI\MSX\CODE\C\MSXgl\projects\soccerlg/soccerlg_s3_b1.c:186: g_Ball.X = FIELD_POS_X_CENTER;
	ld	hl, #0x0078
	ld	((_g_Ball + 2)), hl
;E:\Dropbox\FAUSTO\SVILUPPI\MSX\CODE\C\MSXgl\projects\soccerlg/soccerlg_s3_b1.c:187: g_Ball.Y = FIELD_POS_Y_CENTER;
	ld	l, #0xf3
	ld	(_g_Ball), hl
;E:\Dropbox\FAUSTO\SVILUPPI\MSX\CODE\C\MSXgl\projects\soccerlg/soccerlg_s3_b1.c:188: g_Ball.PreviousY = g_Ball.Y;
	ld	bc, (#_g_Ball + 0)
	ld	((_g_Ball + 7)), bc
;E:\Dropbox\FAUSTO\SVILUPPI\MSX\CODE\C\MSXgl\projects\soccerlg/soccerlg_s3_b1.c:189: PutBallSprite();
	call	_PutBallSprite
;E:\Dropbox\FAUSTO\SVILUPPI\MSX\CODE\C\MSXgl\projects\soccerlg/soccerlg_s3_b1.c:191: for(u8 i=0; i<15; i++){
	ld	de, #_g_Players
	ld	-1 (ix), #0x00
00156$:
	ld	a, -1 (ix)
	sub	a, #0x0f
	jp	NC, 00147$
;E:\Dropbox\FAUSTO\SVILUPPI\MSX\CODE\C\MSXgl\projects\soccerlg/soccerlg_s3_b1.c:192: if(i==REFEREE || g_Players[i].TeamId==TEAM_1 || g_Players[i].TeamId==TEAM_2){
	ld	a, -1 (ix)
	sub	a, #0x0e
	ld	a, #0x01
	jr	Z, 00397$
	xor	a, a
00397$:
	ld	c, a
	or	a, a
	jr	NZ, 00143$
	push	de
	ld	e, -1 (ix)
	ld	d, #0x00
	ld	l, e
	ld	h, d
	add	hl, hl
	add	hl, hl
	add	hl, de
	add	hl, hl
	add	hl, hl
	add	hl, de
	pop	de
	ld	iy, #_g_Players
	push	bc
	ld	c, l
	ld	b, h
	add	iy, bc
	pop	bc
	ld	a, 9 (iy)
	cp	a, #0x01
	jr	Z, 00143$
	sub	a, #0x02
	jr	NZ, 00157$
00143$:
;E:\Dropbox\FAUSTO\SVILUPPI\MSX\CODE\C\MSXgl\projects\soccerlg/soccerlg_s3_b1.c:194: if (i==REFEREE) {
	ld	a, c
	or	a, a
	jr	Z, 00142$
;E:\Dropbox\FAUSTO\SVILUPPI\MSX\CODE\C\MSXgl\projects\soccerlg/soccerlg_s3_b1.c:195: g_Players[i].Direction=DIRECTION_RIGHT;
	ld	c, -1 (ix)
	ld	b, #0x00
	ld	l, c
	ld	h, b
	add	hl, hl
	add	hl, hl
	add	hl, bc
	add	hl, hl
	add	hl, hl
	add	hl, bc
	ld	-5 (ix), l
	ld	-4 (ix), h
	ld	a, e
	add	a, -5 (ix)
	ld	-3 (ix), a
	ld	a, d
	adc	a, -4 (ix)
	ld	-2 (ix), a
	ld	l, -3 (ix)
	ld	h, -2 (ix)
	ld	bc, #0x000a
	add	hl, bc
	ld	(hl), #0x03
;E:\Dropbox\FAUSTO\SVILUPPI\MSX\CODE\C\MSXgl\projects\soccerlg/soccerlg_s3_b1.c:196: g_Players[i].LastPose=0;
	ld	l, -3 (ix)
	ld	h, -2 (ix)
	ld	bc, #0x000c
	add	hl, bc
	ld	(hl), #0x00
00142$:
;E:\Dropbox\FAUSTO\SVILUPPI\MSX\CODE\C\MSXgl\projects\soccerlg/soccerlg_s3_b1.c:198: Trampoline_VOID_P1(4,SetPlayerTarget,i);
	push	de
	ld	a, -1 (ix)
	push	af
	inc	sp
	ld	de, #_SetPlayerTarget
	ld	a, #0x04
	call	_Trampoline_VOID_P1
	pop	de
00157$:
;E:\Dropbox\FAUSTO\SVILUPPI\MSX\CODE\C\MSXgl\projects\soccerlg/soccerlg_s3_b1.c:191: for(u8 i=0; i<15; i++){
	inc	-1 (ix)
	jp	00156$
00147$:
;E:\Dropbox\FAUSTO\SVILUPPI\MSX\CODE\C\MSXgl\projects\soccerlg/soccerlg_s3_b1.c:203: g_FieldScrollingActionInProgress=FIELD_CENTRAL_ZONE;
	ld	hl, #_g_FieldScrollingActionInProgress
	ld	(hl), #0x01
00158$:
;E:\Dropbox\FAUSTO\SVILUPPI\MSX\CODE\C\MSXgl\projects\soccerlg/soccerlg_s3_b1.c:205: }
	ld	sp, ix
	pop	ix
	ret
_TickGoalCelebration_k_CelebDX_131073_1162:
	.db #0x00	;  0
	.db #0x00	;  0
	.db #0x01	;  1
	.db #0x01	;  1
	.db #0x01	;  1
	.db #0x00	;  0
	.db #0xff	; -1
	.db #0xff	; -1
	.db #0xff	; -1
_TickGoalCelebration_k_CelebDY_131073_1162:
	.db #0x00	;  0
	.db #0xff	; -1
	.db #0xff	; -1
	.db #0x00	;  0
	.db #0x01	;  1
	.db #0x01	;  1
	.db #0x01	;  1
	.db #0x00	;  0
	.db #0xff	; -1
;E:\Dropbox\FAUSTO\SVILUPPI\MSX\CODE\C\MSXgl\projects\soccerlg/soccerlg_s3_b1.c:207: void PutBallSprite(){
;	---------------------------------
; Function PutBallSprite
; ---------------------------------
_PutBallSprite::
	push	ix
	ld	ix,#0
	add	ix,sp
	ld	hl, #-8
	add	hl, sp
	ld	sp, hl
;E:\Dropbox\FAUSTO\SVILUPPI\MSX\CODE\C\MSXgl\projects\soccerlg/soccerlg_s3_b1.c:209: attr.D=0;
	ld	hl, #0
	add	hl, sp
	ld	c, l
	ld	b, h
	ld	hl, #3
	add	hl, sp
	res	4, (hl)
;E:\Dropbox\FAUSTO\SVILUPPI\MSX\CODE\C\MSXgl\projects\soccerlg/soccerlg_s3_b1.c:210: attr.SC=0;
	ld	hl, #3
	add	hl, sp
	ld	a, (hl)
	and	a, #0x3f
	ld	(hl), a
;E:\Dropbox\FAUSTO\SVILUPPI\MSX\CODE\C\MSXgl\projects\soccerlg/soccerlg_s3_b1.c:211: attr.Y = g_Ball.Y-g_FieldCurrentYPosition;
	ld	hl, #_g_Ball+0
	ld	d, (hl)
	ld	a, (_g_FieldCurrentYPosition+0)
	ld	e, a
	ld	a, d
	sub	a, e
	ld	(bc), a
;E:\Dropbox\FAUSTO\SVILUPPI\MSX\CODE\C\MSXgl\projects\soccerlg/soccerlg_s3_b1.c:214: u8 logicalSize = g_Ball.Size;
	ld	hl, #_g_Ball + 4
	ld	e, (hl)
;E:\Dropbox\FAUSTO\SVILUPPI\MSX\CODE\C\MSXgl\projects\soccerlg/soccerlg_s3_b1.c:216: if (g_Ball.PossessionPlayerId != NO_VALUE) logicalSize = 1;
	ld	a, (#_g_Ball + 6)
	inc	a
	jr	Z, 00102$
	ld	e, #0x01
00102$:
;E:\Dropbox\FAUSTO\SVILUPPI\MSX\CODE\C\MSXgl\projects\soccerlg/soccerlg_s3_b1.c:218: if (logicalSize == 0) logicalSize = 1;
	ld	a, e
	or	a, a
	jr	NZ, 00104$
	ld	e, #0x01
00104$:
;E:\Dropbox\FAUSTO\SVILUPPI\MSX\CODE\C\MSXgl\projects\soccerlg/soccerlg_s3_b1.c:219: if (logicalSize > 4) logicalSize = 4;
	ld	a, #0x04
	sub	a, e
	jr	NC, 00106$
	ld	e, #0x04
00106$:
;E:\Dropbox\FAUSTO\SVILUPPI\MSX\CODE\C\MSXgl\projects\soccerlg/soccerlg_s3_b1.c:224: bool rawMovement = (g_Ball.OldX != g_Ball.X || g_Ball.OldY != g_Ball.Y);
	ld	hl, #(_g_Ball + 9)
	ld	a, (hl)
	ld	-2 (ix), a
	inc	hl
	ld	a, (hl)
	ld	-1 (ix), a
	ld	hl, #(_g_Ball + 2)
	ld	a, (hl)
	ld	-4 (ix), a
	inc	hl
	ld	a, (hl)
	ld	-3 (ix), a
	ld	a, -2 (ix)
	sub	a, -4 (ix)
	jr	NZ, 00117$
	ld	a, -1 (ix)
	sub	a, -3 (ix)
	jr	NZ, 00117$
	ld	hl, #(_g_Ball + 11)
	ld	a, (hl)
	ld	-2 (ix), a
	inc	hl
	ld	a, (hl)
	ld	-1 (ix), a
	ld	hl, (#_g_Ball + 0)
	ld	a, l
	sub	a, -2 (ix)
	jr	NZ, 00117$
	ld	a, h
	sub	a, -1 (ix)
	jr	NZ, 00117$
	ld	d, #0x00
	jp	00118$
00117$:
	ld	d, #0x01
00118$:
;E:\Dropbox\FAUSTO\SVILUPPI\MSX\CODE\C\MSXgl\projects\soccerlg/soccerlg_s3_b1.c:227: g_Ball.OldX = g_Ball.X;
	ld	hl, #(_g_Ball + 9)
	ld	a, -4 (ix)
	ld	(hl), a
	inc	hl
	ld	a, -3 (ix)
	ld	(hl), a
;E:\Dropbox\FAUSTO\SVILUPPI\MSX\CODE\C\MSXgl\projects\soccerlg/soccerlg_s3_b1.c:228: g_Ball.OldY = g_Ball.Y;
	ld	hl, #_g_Ball
	ld	a, (hl)
	ld	-2 (ix), a
	inc	hl
	ld	a, (hl)
	ld	-1 (ix), a
	ld	hl, #(_g_Ball + 11)
	ld	a, -2 (ix)
	ld	(hl), a
	inc	hl
	ld	a, -1 (ix)
	ld	(hl), a
;E:\Dropbox\FAUSTO\SVILUPPI\MSX\CODE\C\MSXgl\projects\soccerlg/soccerlg_s3_b1.c:230: if (rawMovement) {
	ld	a, d
	or	a, a
	jr	Z, 00110$
;E:\Dropbox\FAUSTO\SVILUPPI\MSX\CODE\C\MSXgl\projects\soccerlg/soccerlg_s3_b1.c:231: s_StopCooldown = 15; // Keep animation active for ~1/4 sec after last move
	ld	a, #0x0f
	ld	(#_PutBallSprite_s_StopCooldown_65538_1187), a
	jp	00111$
00110$:
;E:\Dropbox\FAUSTO\SVILUPPI\MSX\CODE\C\MSXgl\projects\soccerlg/soccerlg_s3_b1.c:233: if (s_StopCooldown > 0) s_StopCooldown--;
	ld	a, (_PutBallSprite_s_StopCooldown_65538_1187+0)
	or	a, a
	jr	Z, 00111$
	ld	iy, #_PutBallSprite_s_StopCooldown_65538_1187
	dec	0 (iy)
00111$:
;E:\Dropbox\FAUSTO\SVILUPPI\MSX\CODE\C\MSXgl\projects\soccerlg/soccerlg_s3_b1.c:236: bool isAnimating = (s_StopCooldown > 0);
	ld	a, (_PutBallSprite_s_StopCooldown_65538_1187+0)
	or	a, a
	ld	a, #0x01
	jr	NZ, 00120$
	xor	a, a
00120$:
;E:\Dropbox\FAUSTO\SVILUPPI\MSX\CODE\C\MSXgl\projects\soccerlg/soccerlg_s3_b1.c:240: bool useAlt = isAnimating && ((g_FrameCounter & 8) != 0);
	or	a, a
	jr	Z, 00121$
	ld	a, (_g_FrameCounter+0)
	bit	3, a
	jr	NZ, 00122$
00121$:
	xor	a, a
	jp	00123$
00122$:
	ld	a, #0x01
00123$:
;E:\Dropbox\FAUSTO\SVILUPPI\MSX\CODE\C\MSXgl\projects\soccerlg/soccerlg_s3_b1.c:247: u8 idx = (logicalSize - 1) * 2 + (useAlt ? 1 : 0);
	ld	l, e
;	spillPairReg hl
;	spillPairReg hl
	dec	l
	sla	l
	or	a, a
	jr	Z, 00124$
	ld	de, #0x0001
	jp	00125$
00124$:
	ld	de, #0x0000
00125$:
	add	hl, de
;E:\Dropbox\FAUSTO\SVILUPPI\MSX\CODE\C\MSXgl\projects\soccerlg/soccerlg_s3_b1.c:248: attr.Pattern = k_BallPatterns[idx & 7];
	ld	de, #_PutBallSprite_k_BallPatterns_65539_1190+0
	ld	a, l
;	spillPairReg hl
;	spillPairReg hl
	and	a, #0x07
	ld	h, #0x00
;	spillPairReg hl
;	spillPairReg hl
	ld	l, a
	add	hl, de
	ld	a, (hl)
	ld	-7 (ix), a
;E:\Dropbox\FAUSTO\SVILUPPI\MSX\CODE\C\MSXgl\projects\soccerlg/soccerlg_s3_b1.c:250: attr.X = g_Ball.X;
	ld	de, (#(_g_Ball + 2) + 0)
	ld	hl, #2
	add	hl, sp
	ld	(hl), e
	inc	hl
	ld	a, d
	and	a, #0x03
	push	bc
	ld	c,a
	ld	a, (hl)
	and	a, #0xfc
	or	a, c
	pop	bc
	ld	(hl), a
;E:\Dropbox\FAUSTO\SVILUPPI\MSX\CODE\C\MSXgl\projects\soccerlg/soccerlg_s3_b1.c:251: attr.P = attr.D;
	ld	hl, #3
	add	hl, sp
	ld	a, (hl)
	rlca
	rlca
	rlca
	rlca
	and	a, #0x01
	ld	hl, #3
	add	hl, sp
	rrca
	rrca
	rrca
	and	a, #0x20
	ld	e, a
	ld	a, (hl)
	and	a, #0xdf
	or	a, e
	ld	(hl), a
;E:\Dropbox\FAUSTO\SVILUPPI\MSX\CODE\C\MSXgl\projects\soccerlg/soccerlg_s3_b1.c:252: V9_SetSpriteP1(15, &attr);
;E:/Dropbox/FAUSTO/SVILUPPI/MSX/CODE/C/MSXgl/engine/src/v9990.h:781: inline void V9_SetSpriteP1(u8 id, const V9_Sprite* attr) { V9_WriteVRAM(V9_P1_SPAT + (id * 4), (const u8*)attr, 4); }
;E:/Dropbox/FAUSTO/SVILUPPI/MSX/CODE/C/MSXgl/engine/src/v9990.h:371: inline void V9_WriteVRAM(u32 addr, const u8* src, u16 count) { V9_SetWriteAddress(addr); V9_WriteVRAM_CurrentAddr(src, count); }
	ld	de, #0xfe3c
	ld	hl, #0x0003
	call	_V9_SetWriteAddress
	ld	de, #0x0004
	ld	hl, #0
	add	hl, sp
	call	_V9_WriteVRAM_CurrentAddr
;E:\Dropbox\FAUSTO\SVILUPPI\MSX\CODE\C\MSXgl\projects\soccerlg/soccerlg_s3_b1.c:252: V9_SetSpriteP1(15, &attr);
;E:\Dropbox\FAUSTO\SVILUPPI\MSX\CODE\C\MSXgl\projects\soccerlg/soccerlg_s3_b1.c:253: }
	ld	sp, ix
	pop	ix
	ret
_PutBallSprite_k_BallPatterns_65539_1190:
	.db #0x39	; 57	'9'
	.db #0x3a	; 58
	.db #0x3b	; 59
	.db #0x3c	; 60
	.db #0x3d	; 61
	.db #0x3e	; 62
	.db #0x3f	; 63
	.db #0x74	; 116	't'
;E:\Dropbox\FAUSTO\SVILUPPI\MSX\CODE\C\MSXgl\projects\soccerlg/soccerlg_s3_b1.c:256: void TickPonPonGirlsAnimation(){
;	---------------------------------
; Function TickPonPonGirlsAnimation
; ---------------------------------
_TickPonPonGirlsAnimation::
;E:\Dropbox\FAUSTO\SVILUPPI\MSX\CODE\C\MSXgl\projects\soccerlg/soccerlg_s3_b1.c:257: if(g_MatchStatus!=MATCH_AFTER_IN_GOAL){
	ld	a, (_g_MatchStatus+0)
	sub	a, #0x06
	jr	Z, 00104$
;E:\Dropbox\FAUSTO\SVILUPPI\MSX\CODE\C\MSXgl\projects\soccerlg/soccerlg_s3_b1.c:258: if(!g_ponPonGirlsInitailized){
	ld	a, (_g_ponPonGirlsInitailized+0)
	or	a, a
	ret	NZ
;E:\Dropbox\FAUSTO\SVILUPPI\MSX\CODE\C\MSXgl\projects\soccerlg/soccerlg_s3_b1.c:259: InitPonPonGirls();
	call	_InitPonPonGirls
;E:\Dropbox\FAUSTO\SVILUPPI\MSX\CODE\C\MSXgl\projects\soccerlg/soccerlg_s3_b1.c:260: g_ponPonGirlsInitailized=true;
	ld	hl, #_g_ponPonGirlsInitailized
	ld	(hl), #0x01
;E:\Dropbox\FAUSTO\SVILUPPI\MSX\CODE\C\MSXgl\projects\soccerlg/soccerlg_s3_b1.c:263: return;
	ret
00104$:
;E:\Dropbox\FAUSTO\SVILUPPI\MSX\CODE\C\MSXgl\projects\soccerlg/soccerlg_s3_b1.c:265: g_ponPonGirlsInitailized=false;
	ld	hl, #_g_ponPonGirlsInitailized
	ld	(hl), #0x00
;E:\Dropbox\FAUSTO\SVILUPPI\MSX\CODE\C\MSXgl\projects\soccerlg/soccerlg_s3_b1.c:266: if(g_PonPonGrilsPoseCounter==PON_PON_GIRLS_POSE_SPEED){
	ld	a, (_g_PonPonGrilsPoseCounter+0)
	sub	a, #0x03
	jr	NZ, 00106$
;E:\Dropbox\FAUSTO\SVILUPPI\MSX\CODE\C\MSXgl\projects\soccerlg/soccerlg_s3_b1.c:267: g_PonPonGrilsPoseCounter=0;
	ld	hl, #_g_PonPonGrilsPoseCounter
	ld	(hl), #0x00
	jp	00107$
00106$:
;E:\Dropbox\FAUSTO\SVILUPPI\MSX\CODE\C\MSXgl\projects\soccerlg/soccerlg_s3_b1.c:270: g_PonPonGrilsPoseCounter++;
	ld	hl, #_g_PonPonGrilsPoseCounter
	inc	(hl)
;E:\Dropbox\FAUSTO\SVILUPPI\MSX\CODE\C\MSXgl\projects\soccerlg/soccerlg_s3_b1.c:271: return;
	ret
00107$:
;E:\Dropbox\FAUSTO\SVILUPPI\MSX\CODE\C\MSXgl\projects\soccerlg/soccerlg_s3_b1.c:276: g_ponPonPatternIndex++;
	ld	iy, #_g_ponPonPatternIndex
	inc	0 (iy)
;E:\Dropbox\FAUSTO\SVILUPPI\MSX\CODE\C\MSXgl\projects\soccerlg/soccerlg_s3_b1.c:277: if(g_ponPonPatternIndex >= 9) g_ponPonPatternIndex = 0;
	ld	a, (_g_ponPonPatternIndex+0)
	sub	a, #0x09
	jr	C, 00109$
	ld	0 (iy), #0x00
00109$:
;E:\Dropbox\FAUSTO\SVILUPPI\MSX\CODE\C\MSXgl\projects\soccerlg/soccerlg_s3_b1.c:279: u8 pat = g_GirlPatterns[g_ponPonPatternIndex];
	ld	bc, #_g_GirlPatterns+0
	ld	hl, (_g_ponPonPatternIndex)
	ld	h, #0x00
	add	hl, bc
	ld	c, (hl)
;E:\Dropbox\FAUSTO\SVILUPPI\MSX\CODE\C\MSXgl\projects\soccerlg/soccerlg_s3_b1.c:281: for(u8 i=0; i<6; i++){
	ld	b, #0x00
00112$:
	ld	a, b
	sub	a, #0x06
	jr	NC, 00110$
;E:\Dropbox\FAUSTO\SVILUPPI\MSX\CODE\C\MSXgl\projects\soccerlg/soccerlg_s3_b1.c:282: g_PonPonGirls[i].PatternId = pat;
	ld	e, b
	ld	d, #0x00
	ld	l, e
	ld	h, d
	add	hl, hl
	add	hl, hl
	add	hl, de
	ld	de, #_g_PonPonGirls
	add	hl, de
	ld	de, #0x0004
	add	hl, de
	ld	(hl), c
;E:\Dropbox\FAUSTO\SVILUPPI\MSX\CODE\C\MSXgl\projects\soccerlg/soccerlg_s3_b1.c:283: PutPonPonGirlSprite(i);
	push	bc
	ld	a, b
	call	_PutPonPonGirlSprite
	pop	bc
;E:\Dropbox\FAUSTO\SVILUPPI\MSX\CODE\C\MSXgl\projects\soccerlg/soccerlg_s3_b1.c:281: for(u8 i=0; i<6; i++){
	inc	b
	jp	00112$
00110$:
;E:\Dropbox\FAUSTO\SVILUPPI\MSX\CODE\C\MSXgl\projects\soccerlg/soccerlg_s3_b1.c:285: g_peopleState=!g_peopleState;
	ld	a, (_g_peopleState+0)
	sub	a,#0x01
	ld	a, #0x00
	rla
;E:\Dropbox\FAUSTO\SVILUPPI\MSX\CODE\C\MSXgl\projects\soccerlg/soccerlg_s3_b1.c:286: PeopleMoving(g_peopleState);
	ld	(_g_peopleState+0), a
;E:\Dropbox\FAUSTO\SVILUPPI\MSX\CODE\C\MSXgl\projects\soccerlg/soccerlg_s3_b1.c:287: }
	jp	_PeopleMoving
;E:\Dropbox\FAUSTO\SVILUPPI\MSX\CODE\C\MSXgl\projects\soccerlg/soccerlg_s3_b1.c:289: void PeopleMoving(bool isBasicMoving){
;	---------------------------------
; Function PeopleMoving
; ---------------------------------
_PeopleMoving::
	push	ix
	ld	ix,#0
	add	ix,sp
	ld	hl, #-5
	add	hl, sp
	ld	sp, hl
	ld	e, a
;E:\Dropbox\FAUSTO\SVILUPPI\MSX\CODE\C\MSXgl\projects\soccerlg/soccerlg_s3_b1.c:290: u16 tileId=PUBLIC_TILE_1;
	ld	bc, #0x0000
;E:\Dropbox\FAUSTO\SVILUPPI\MSX\CODE\C\MSXgl\projects\soccerlg/soccerlg_s3_b1.c:291: u8  yPosition=0;
	ld	-5 (ix), #0x00
;E:\Dropbox\FAUSTO\SVILUPPI\MSX\CODE\C\MSXgl\projects\soccerlg/soccerlg_s3_b1.c:292: if(!g_ActiveFieldZone==FIELD_NORTH_ZONE){
	ld	a, (_g_ActiveFieldZone+0)
	or	a, a
	jr	Z, 00102$
;E:\Dropbox\FAUSTO\SVILUPPI\MSX\CODE\C\MSXgl\projects\soccerlg/soccerlg_s3_b1.c:293: yPosition=62;
	ld	-5 (ix), #0x3e
00102$:
;E:\Dropbox\FAUSTO\SVILUPPI\MSX\CODE\C\MSXgl\projects\soccerlg/soccerlg_s3_b1.c:297: if(!isBasicMoving){
	ld	a, e
	or	a, a
	jr	NZ, 00122$
;E:\Dropbox\FAUSTO\SVILUPPI\MSX\CODE\C\MSXgl\projects\soccerlg/soccerlg_s3_b1.c:298: tileId=PUBLIC_TILE_2;
	ld	bc, #0x0801
;E:\Dropbox\FAUSTO\SVILUPPI\MSX\CODE\C\MSXgl\projects\soccerlg/soccerlg_s3_b1.c:300: for (u8 y=yPosition;y<yPosition+2;y++){
00122$:
	ld	a, -5 (ix)
	ld	-2 (ix), a
00113$:
	ld	e, -5 (ix)
	ld	d, #0x00
	inc	de
	inc	de
	ld	a, -2 (ix)
	ld	-4 (ix), a
	ld	-3 (ix), #0x00
	ld	a, -4 (ix)
	sub	a, e
	ld	a, -3 (ix)
	sbc	a, d
	jp	PO, 00149$
	xor	a, #0x80
00149$:
	jp	P, 00115$
;E:\Dropbox\FAUSTO\SVILUPPI\MSX\CODE\C\MSXgl\projects\soccerlg/soccerlg_s3_b1.c:301: for (u8 x=0;x<32;x++){
	ld	-1 (ix), #0x00
00110$:
	ld	a, -1 (ix)
	sub	a, #0x20
	jr	NC, 00114$
;E:/Dropbox/FAUSTO/SVILUPPI/MSX/CODE/C/MSXgl/engine/src/v9990.h:1426: inline u32 V9_CellAddrP1A(u8 x, u8 y) { return V9_P1_PNT_A + (((64 * y) + x) * 2); }
	ld	l, -4 (ix)
	ld	h, -3 (ix)
	add	hl, hl
	add	hl, hl
	add	hl, hl
	add	hl, hl
	add	hl, hl
	add	hl, hl
	ld	e, -1 (ix)
	ld	d, #0x00
	add	hl, de
	add	hl, hl
	ld	a, h
	rlca
	sbc	a, a
	ld	e, a
	ld	d, a
	ld	a, h
	add	a, #0xc0
	ld	h, a
;	spillPairReg hl
;	spillPairReg hl
	ld	a, e
	adc	a, #0x07
	ld	e, a
	jr	NC, 00150$
	inc	d
00150$:
;E:/Dropbox/FAUSTO/SVILUPPI/MSX/CODE/C/MSXgl/engine/src/v9990.h:396: inline void V9_Poke16(u32 addr, u16 val) { V9_SetWriteAddress(addr); V9_Poke16_CurrentAddr(val); }
	push	bc
	ex	de, hl
	call	_V9_SetWriteAddress
	pop	bc
	ld	l, c
;	spillPairReg hl
;	spillPairReg hl
	ld	h, b
;	spillPairReg hl
;	spillPairReg hl
	call	_V9_Poke16_CurrentAddr
;E:\Dropbox\FAUSTO\SVILUPPI\MSX\CODE\C\MSXgl\projects\soccerlg/soccerlg_s3_b1.c:301: for (u8 x=0;x<32;x++){
	inc	-1 (ix)
	jp	00110$
00114$:
;E:\Dropbox\FAUSTO\SVILUPPI\MSX\CODE\C\MSXgl\projects\soccerlg/soccerlg_s3_b1.c:300: for (u8 y=yPosition;y<yPosition+2;y++){
	inc	-2 (ix)
	jp	00113$
00115$:
;E:\Dropbox\FAUSTO\SVILUPPI\MSX\CODE\C\MSXgl\projects\soccerlg/soccerlg_s3_b1.c:305: }
	ld	sp, ix
	pop	ix
	ret
;E:\Dropbox\FAUSTO\SVILUPPI\MSX\CODE\C\MSXgl\projects\soccerlg/soccerlg_s3_b1.c:307: void PutPonPonGirlSprite(u8 ponPonGirlId){
;	---------------------------------
; Function PutPonPonGirlSprite
; ---------------------------------
_PutPonPonGirlSprite::
	push	ix
	ld	ix,#0
	add	ix,sp
	ld	hl, #-5
	add	hl, sp
	ld	sp, hl
	ld	-1 (ix), a
;E:\Dropbox\FAUSTO\SVILUPPI\MSX\CODE\C\MSXgl\projects\soccerlg/soccerlg_s3_b1.c:309: attr.D=0;
	ld	hl, #3
	add	hl, sp
	res	4, (hl)
;E:\Dropbox\FAUSTO\SVILUPPI\MSX\CODE\C\MSXgl\projects\soccerlg/soccerlg_s3_b1.c:311: attr.SC=0;
	ld	hl, #3
	add	hl, sp
	ld	a, (hl)
	and	a, #0x3f
	ld	(hl), a
;E:\Dropbox\FAUSTO\SVILUPPI\MSX\CODE\C\MSXgl\projects\soccerlg/soccerlg_s3_b1.c:312: attr.Y=g_PonPonGirls[ponPonGirlId].Y-g_FieldCurrentYPosition;
	ld	bc, #_g_PonPonGirls+0
	ld	e, -1 (ix)
	ld	d, #0x00
	ld	l, e
	ld	h, d
	add	hl, hl
	add	hl, hl
	add	hl, de
	add	hl, bc
	ex	de, hl
	ld	a, (de)
	ld	l, a
;	spillPairReg hl
;	spillPairReg hl
	ld	a, (_g_FieldCurrentYPosition+0)
	ld	c, a
	ld	a, l
	sub	a, c
	ld	-5 (ix), a
;E:\Dropbox\FAUSTO\SVILUPPI\MSX\CODE\C\MSXgl\projects\soccerlg/soccerlg_s3_b1.c:313: attr.X=g_PonPonGirls[ponPonGirlId].X;
	ld	l, e
;	spillPairReg hl
;	spillPairReg hl
	ld	h, d
;	spillPairReg hl
;	spillPairReg hl
	inc	hl
	inc	hl
	ld	c, (hl)
	inc	hl
	ld	b, (hl)
	ld	hl, #2
	add	hl, sp
	ld	(hl), c
	inc	hl
	ld	a, b
	and	a, #0x03
	ld	c,a
	ld	a, (hl)
	and	a, #0xfc
	or	a, c
	ld	(hl), a
;E:\Dropbox\FAUSTO\SVILUPPI\MSX\CODE\C\MSXgl\projects\soccerlg/soccerlg_s3_b1.c:314: if(g_ActiveFieldZone!=FIELD_NORTH_ZONE||attr.Y>100){
	ld	a, (_g_ActiveFieldZone+0)
	or	a, a
	jr	NZ, 00101$
	ld	c, -5 (ix)
	ld	a, #0x64
	sub	a, c
	jr	NC, 00102$
00101$:
;E:\Dropbox\FAUSTO\SVILUPPI\MSX\CODE\C\MSXgl\projects\soccerlg/soccerlg_s3_b1.c:315: attr.D=1;
	ld	hl, #3
	add	hl, sp
	set	4, (hl)
00102$:
;E:\Dropbox\FAUSTO\SVILUPPI\MSX\CODE\C\MSXgl\projects\soccerlg/soccerlg_s3_b1.c:317: attr.Pattern = g_PonPonGirls[ponPonGirlId].PatternId;
	ld	hl, #4
	add	hl, de
	ld	a, (hl)
	ld	-4 (ix), a
;E:\Dropbox\FAUSTO\SVILUPPI\MSX\CODE\C\MSXgl\projects\soccerlg/soccerlg_s3_b1.c:318: attr.P = 1;
	ld	hl, #3
	add	hl, sp
	set	5, (hl)
;E:\Dropbox\FAUSTO\SVILUPPI\MSX\CODE\C\MSXgl\projects\soccerlg/soccerlg_s3_b1.c:319: V9_SetSpriteP1(ponPonGirlId+20, &attr);
	ld	a, -1 (ix)
	add	a, #0x14
;E:/Dropbox/FAUSTO/SVILUPPI/MSX/CODE/C/MSXgl/engine/src/v9990.h:781: inline void V9_SetSpriteP1(u8 id, const V9_Sprite* attr) { V9_WriteVRAM(V9_P1_SPAT + (id * 4), (const u8*)attr, 4); }
	ld	l, a
;	spillPairReg hl
;	spillPairReg hl
	ld	h, #0x00
;	spillPairReg hl
;	spillPairReg hl
	add	hl, hl
	add	hl, hl
	ld	a, h
	rlca
	sbc	a, a
	ld	e, a
	ld	d, a
	ld	a, h
	add	a, #0xfe
	ld	h, a
;	spillPairReg hl
;	spillPairReg hl
	ld	a, e
	adc	a, #0x03
	ld	e, a
	jr	NC, 00113$
	inc	d
00113$:
;E:/Dropbox/FAUSTO/SVILUPPI/MSX/CODE/C/MSXgl/engine/src/v9990.h:371: inline void V9_WriteVRAM(u32 addr, const u8* src, u16 count) { V9_SetWriteAddress(addr); V9_WriteVRAM_CurrentAddr(src, count); }
	ex	de, hl
	call	_V9_SetWriteAddress
	ld	de, #0x0004
	ld	hl, #0
	add	hl, sp
	call	_V9_WriteVRAM_CurrentAddr
;E:\Dropbox\FAUSTO\SVILUPPI\MSX\CODE\C\MSXgl\projects\soccerlg/soccerlg_s3_b1.c:319: V9_SetSpriteP1(ponPonGirlId+20, &attr);
;E:\Dropbox\FAUSTO\SVILUPPI\MSX\CODE\C\MSXgl\projects\soccerlg/soccerlg_s3_b1.c:320: }
	ld	sp, ix
	pop	ix
	ret
	.area _SEG3
	.area _INITIALIZER
	.area _CABS (ABS)
